

Microchip MPLAB XC8 Assembler V2.20 build 20200408173844 
                                                                                               Wed Sep 23 13:11:50 2020

Microchip MPLAB XC8 C Compiler v2.20 (Free license) build 20200408173844 Og1 
     1                           	processor	16F19197
     2                           	pagewidth 120
     3                           	opt	flic
     4                           	psect	idataBANK0,global,class=CODE,delta=2,noexec
     5                           	psect	stringtext1,global,class=STRCODE,delta=2,noexec
     6                           	psect	stringtext2,global,class=STRCODE,delta=2,noexec
     7                           	psect	stringtext3,global,class=STRCODE,delta=2,noexec
     8                           	psect	stringtext4,global,class=STRCODE,delta=2,noexec
     9                           	psect	stringtext5,global,class=STRCODE,delta=2,noexec
    10                           	psect	stringtext6,global,class=STRCODE,delta=2,noexec
    11                           	psect	stringtext7,global,class=STRCODE,delta=2,noexec
    12                           	psect	stringtext8,global,class=STRCODE,delta=2,noexec
    13                           	psect	stringtext9,global,class=STRCODE,delta=2,noexec
    14                           	psect	cinit,global,class=CODE,merge=1,delta=2
    15                           	psect	bssBANK0,global,class=BANK0,space=1,delta=1,noexec
    16                           	psect	dataBANK0,global,class=BANK0,space=1,delta=1,noexec
    17                           	psect	bssBANK1,global,class=BANK1,space=1,delta=1,noexec
    18                           	psect	inittext,global,class=CODE,delta=2
    19                           	psect	clrtext,global,class=CODE,delta=2
    20                           	psect	cstackCOMMON,global,class=COMMON,space=1,delta=1,noexec
    21                           	psect	cstackBANK0,global,class=BANK0,space=1,delta=1,noexec
    22                           	psect	maintext,global,class=CODE,merge=1,split=1,delta=2
    23                           	psect	text1,local,class=CODE,merge=1,delta=2
    24                           	psect	text2,local,class=CODE,merge=1,delta=2,group=3
    25                           	psect	text3,local,class=CODE,merge=1,delta=2,group=1
    26                           	psect	text4,local,class=CODE,merge=1,delta=2,group=1
    27                           	psect	text5,local,class=CODE,merge=1,delta=2,group=1
    28                           	psect	text6,local,class=CODE,merge=1,delta=2,group=3
    29                           	psect	text7,local,class=CODE,merge=1,delta=2,group=3
    30                           	psect	text8,local,class=CODE,merge=1,delta=2
    31                           	psect	text9,local,class=CODE,merge=1,delta=2
    32                           	psect	text10,local,class=CODE,merge=1,delta=2
    33                           	psect	text11,local,class=CODE,merge=1,delta=2
    34                           	psect	text12,local,class=CODE,merge=1,delta=2
    35                           	psect	intentry,global,class=CODE,delta=2
    36                           	psect	config,global,abs,ovrld,class=CONFIG,space=4,delta=2,noexec
    37                           	dabs	1,0x7E,2
    38  0000                     
    39                           ; Version 2.20
    40                           ; Generated 30/04/2020 GMT
    41                           ; 
    42                           ; Copyright © 2020, Microchip Technology Inc. and its subsidiaries ("Microchip")
    43                           ; All rights reserved.
    44                           ; 
    45                           ; This software is developed by Microchip Technology Inc. and its subsidiaries ("Microch
      +                          ip").
    46                           ; 
    47                           ; Redistribution and use in source and binary forms, with or without modification, are
    48                           ; permitted provided that the following conditions are met:
    49                           ; 
    50                           ;     1. Redistributions of source code must retain the above copyright notice, this lis
      +                          t of
    51                           ;        conditions and the following disclaimer.
    52                           ; 
    53                           ;     2. Redistributions in binary form must reproduce the above copyright notice, this 
      +                          list
    54                           ;        of conditions and the following disclaimer in the documentation and/or other
    55                           ;        materials provided with the distribution.
    56                           ; 
    57                           ;     3. Microchip's name may not be used to endorse or promote products derived from th
      +                          is
    58                           ;        software without specific prior written permission.
    59                           ; 
    60                           ; THIS SOFTWARE IS PROVIDED BY MICROCHIP "AS IS" AND ANY EXPRESS OR IMPLIED WARRANTIES,
    61                           ; INCLUDING, BUT NOT LIMITED TO, THE IMPLIED WARRANTIES OF MERCHANTABILITY AND FITNESS F
      +                          OR
    62                           ; PURPOSE ARE DISCLAIMED.  IN NO EVENT SHALL MICROCHIP BE LIABLE FOR ANY DIRECT, INDIREC
      +                          T,
    63                           ; INCIDENTAL, SPECIAL, EXEMPLARY, OR CONSEQUENTIAL DAMAGES (INCLUDING BUT NOT LIMITED TO
    64                           ; PROCUREMENT OF SUBSTITUTE GOODS OR SERVICES; LOSS OF USE, DATA OR PROFITS; OR BUSINESS
    65                           ; INTERRUPTION) HOWSOEVER CAUSED AND ON ANY THEORY OF LIABILITY, WHETHER IN CONTRACT, ST
      +                          RICT
    66                           ; LIABILITY, OR TORT (INCLUDING NEGLIGENCE OR OTHERWISE) ARISING IN ANY WAY OUT OF THE U
      +                          SE OF
    67                           ; THIS SOFTWARE, EVEN IF ADVISED OF THE POSSIBILITY OF SUCH DAMAGE.
    68                           ; 
    69                           ; 
    70                           ; Code-generator required, PIC16F19197 Definitions
    71                           ; 
    72                           ; SFR Addresses
    73  0000                     	;# 
    74  0001                     	;# 
    75  0002                     	;# 
    76  0003                     	;# 
    77  0004                     	;# 
    78  0005                     	;# 
    79  0006                     	;# 
    80  0007                     	;# 
    81  0008                     	;# 
    82  0009                     	;# 
    83  000A                     	;# 
    84  000B                     	;# 
    85  000C                     	;# 
    86  000D                     	;# 
    87  000E                     	;# 
    88  000F                     	;# 
    89  0010                     	;# 
    90  0011                     	;# 
    91  0012                     	;# 
    92  0013                     	;# 
    93  0014                     	;# 
    94  0015                     	;# 
    95  0016                     	;# 
    96  0017                     	;# 
    97  0018                     	;# 
    98  0019                     	;# 
    99  001A                     	;# 
   100  001B                     	;# 
   101  001C                     	;# 
   102  001D                     	;# 
   103  001F                     	;# 
   104  008C                     	;# 
   105  008C                     	;# 
   106  008D                     	;# 
   107  008E                     	;# 
   108  008E                     	;# 
   109  008F                     	;# 
   110  0090                     	;# 
   111  0090                     	;# 
   112  0091                     	;# 
   113  0092                     	;# 
   114  0092                     	;# 
   115  0093                     	;# 
   116  0094                     	;# 
   117  0094                     	;# 
   118  0095                     	;# 
   119  0096                     	;# 
   120  0096                     	;# 
   121  0097                     	;# 
   122  0098                     	;# 
   123  0099                     	;# 
   124  009A                     	;# 
   125  009B                     	;# 
   126  009B                     	;# 
   127  009C                     	;# 
   128  009D                     	;# 
   129  009D                     	;# 
   130  009E                     	;# 
   131  009F                     	;# 
   132  010C                     	;# 
   133  010C                     	;# 
   134  010D                     	;# 
   135  010E                     	;# 
   136  010F                     	;# 
   137  010F                     	;# 
   138  0110                     	;# 
   139  0111                     	;# 
   140  0112                     	;# 
   141  0113                     	;# 
   142  0114                     	;# 
   143  0115                     	;# 
   144  0116                     	;# 
   145  0117                     	;# 
   146  0118                     	;# 
   147  0119                     	;# 
   148  0119                     	;# 
   149  0119                     	;# 
   150  011A                     	;# 
   151  011A                     	;# 
   152  011A                     	;# 
   153  011B                     	;# 
   154  011B                     	;# 
   155  011B                     	;# 
   156  011B                     	;# 
   157  011B                     	;# 
   158  011C                     	;# 
   159  011C                     	;# 
   160  011C                     	;# 
   161  011D                     	;# 
   162  011D                     	;# 
   163  011D                     	;# 
   164  011E                     	;# 
   165  011E                     	;# 
   166  011E                     	;# 
   167  011F                     	;# 
   168  011F                     	;# 
   169  011F                     	;# 
   170  011F                     	;# 
   171  011F                     	;# 
   172  018C                     	;# 
   173  018D                     	;# 
   174  018E                     	;# 
   175  018F                     	;# 
   176  0190                     	;# 
   177  0191                     	;# 
   178  0192                     	;# 
   179  020C                     	;# 
   180  020C                     	;# 
   181  020D                     	;# 
   182  020E                     	;# 
   183  020F                     	;# 
   184  020F                     	;# 
   185  0210                     	;# 
   186  0210                     	;# 
   187  0211                     	;# 
   188  0211                     	;# 
   189  021E                     	;# 
   190  028C                     	;# 
   191  028C                     	;# 
   192  028D                     	;# 
   193  028D                     	;# 
   194  028E                     	;# 
   195  028F                     	;# 
   196  0290                     	;# 
   197  0290                     	;# 
   198  0291                     	;# 
   199  0292                     	;# 
   200  0292                     	;# 
   201  0293                     	;# 
   202  0293                     	;# 
   203  0294                     	;# 
   204  0295                     	;# 
   205  0296                     	;# 
   206  0296                     	;# 
   207  0297                     	;# 
   208  030C                     	;# 
   209  030C                     	;# 
   210  030D                     	;# 
   211  030E                     	;# 
   212  030F                     	;# 
   213  0310                     	;# 
   214  0310                     	;# 
   215  0311                     	;# 
   216  0312                     	;# 
   217  0313                     	;# 
   218  0314                     	;# 
   219  0314                     	;# 
   220  0315                     	;# 
   221  0316                     	;# 
   222  0318                     	;# 
   223  0318                     	;# 
   224  0319                     	;# 
   225  031A                     	;# 
   226  048C                     	;# 
   227  048C                     	;# 
   228  048D                     	;# 
   229  048E                     	;# 
   230  048F                     	;# 
   231  048F                     	;# 
   232  0490                     	;# 
   233  0491                     	;# 
   234  0492                     	;# 
   235  0492                     	;# 
   236  0493                     	;# 
   237  0494                     	;# 
   238  0495                     	;# 
   239  0495                     	;# 
   240  0496                     	;# 
   241  0497                     	;# 
   242  0498                     	;# 
   243  0499                     	;# 
   244  049A                     	;# 
   245  049B                     	;# 
   246  049C                     	;# 
   247  049D                     	;# 
   248  059C                     	;# 
   249  059C                     	;# 
   250  059D                     	;# 
   251  059D                     	;# 
   252  059E                     	;# 
   253  059F                     	;# 
   254  060C                     	;# 
   255  060D                     	;# 
   256  060E                     	;# 
   257  060F                     	;# 
   258  0610                     	;# 
   259  0611                     	;# 
   260  0612                     	;# 
   261  0613                     	;# 
   262  0614                     	;# 
   263  070C                     	;# 
   264  070D                     	;# 
   265  070E                     	;# 
   266  070F                     	;# 
   267  0710                     	;# 
   268  0711                     	;# 
   269  0712                     	;# 
   270  0713                     	;# 
   271  0714                     	;# 
   272  0716                     	;# 
   273  0717                     	;# 
   274  0718                     	;# 
   275  0719                     	;# 
   276  071A                     	;# 
   277  071B                     	;# 
   278  071C                     	;# 
   279  071D                     	;# 
   280  071E                     	;# 
   281  0796                     	;# 
   282  0797                     	;# 
   283  0798                     	;# 
   284  0799                     	;# 
   285  079A                     	;# 
   286  079B                     	;# 
   287  080C                     	;# 
   288  080D                     	;# 
   289  080E                     	;# 
   290  080F                     	;# 
   291  0810                     	;# 
   292  0811                     	;# 
   293  0812                     	;# 
   294  0813                     	;# 
   295  0814                     	;# 
   296  081A                     	;# 
   297  081B                     	;# 
   298  081C                     	;# 
   299  081D                     	;# 
   300  081E                     	;# 
   301  081F                     	;# 
   302  088C                     	;# 
   303  088D                     	;# 
   304  088E                     	;# 
   305  088F                     	;# 
   306  0890                     	;# 
   307  0891                     	;# 
   308  0892                     	;# 
   309  0893                     	;# 
   310  0894                     	;# 
   311  090C                     	;# 
   312  090E                     	;# 
   313  090F                     	;# 
   314  091F                     	;# 
   315  098F                     	;# 
   316  098F                     	;# 
   317  0990                     	;# 
   318  0991                     	;# 
   319  0992                     	;# 
   320  0993                     	;# 
   321  0994                     	;# 
   322  0995                     	;# 
   323  0996                     	;# 
   324  0997                     	;# 
   325  0A19                     	;# 
   326  0A19                     	;# 
   327  0A1A                     	;# 
   328  0A1A                     	;# 
   329  0A1B                     	;# 
   330  0A1B                     	;# 
   331  0A1B                     	;# 
   332  0A1C                     	;# 
   333  0A1C                     	;# 
   334  0A1D                     	;# 
   335  0A1D                     	;# 
   336  0A1E                     	;# 
   337  0A1E                     	;# 
   338  0A1F                     	;# 
   339  0A1F                     	;# 
   340  0A1F                     	;# 
   341  0C0C                     	;# 
   342  0C0D                     	;# 
   343  0C0E                     	;# 
   344  0C0F                     	;# 
   345  0C10                     	;# 
   346  0C11                     	;# 
   347  0C12                     	;# 
   348  0C13                     	;# 
   349  0C14                     	;# 
   350  0C15                     	;# 
   351  0C16                     	;# 
   352  0C17                     	;# 
   353  0C18                     	;# 
   354  0C19                     	;# 
   355  0C1A                     	;# 
   356  0C1B                     	;# 
   357  0C1C                     	;# 
   358  0C8C                     	;# 
   359  0C8D                     	;# 
   360  0C8E                     	;# 
   361  0C8F                     	;# 
   362  0C90                     	;# 
   363  0C91                     	;# 
   364  0E8C                     	;# 
   365  0E8D                     	;# 
   366  0E8E                     	;# 
   367  0E8F                     	;# 
   368  1D0C                     	;# 
   369  1D0D                     	;# 
   370  1D0E                     	;# 
   371  1D0F                     	;# 
   372  1D10                     	;# 
   373  1D11                     	;# 
   374  1D12                     	;# 
   375  1D13                     	;# 
   376  1D14                     	;# 
   377  1D15                     	;# 
   378  1D16                     	;# 
   379  1D17                     	;# 
   380  1D18                     	;# 
   381  1D19                     	;# 
   382  1D1A                     	;# 
   383  1D1B                     	;# 
   384  1D1C                     	;# 
   385  1D1D                     	;# 
   386  1D1E                     	;# 
   387  1D1F                     	;# 
   388  1D20                     	;# 
   389  1D21                     	;# 
   390  1D22                     	;# 
   391  1D23                     	;# 
   392  1D24                     	;# 
   393  1D25                     	;# 
   394  1D26                     	;# 
   395  1D27                     	;# 
   396  1D28                     	;# 
   397  1D29                     	;# 
   398  1D2A                     	;# 
   399  1D2B                     	;# 
   400  1D2C                     	;# 
   401  1D2D                     	;# 
   402  1D2E                     	;# 
   403  1D2F                     	;# 
   404  1D30                     	;# 
   405  1D31                     	;# 
   406  1D32                     	;# 
   407  1D33                     	;# 
   408  1D34                     	;# 
   409  1D35                     	;# 
   410  1D36                     	;# 
   411  1D37                     	;# 
   412  1D38                     	;# 
   413  1D39                     	;# 
   414  1D3A                     	;# 
   415  1D3B                     	;# 
   416  1D3C                     	;# 
   417  1D3D                     	;# 
   418  1D3E                     	;# 
   419  1D3F                     	;# 
   420  1D40                     	;# 
   421  1D41                     	;# 
   422  1D42                     	;# 
   423  1D43                     	;# 
   424  1D44                     	;# 
   425  1D45                     	;# 
   426  1D46                     	;# 
   427  1D47                     	;# 
   428  1E0F                     	;# 
   429  1E10                     	;# 
   430  1E11                     	;# 
   431  1E12                     	;# 
   432  1E13                     	;# 
   433  1E14                     	;# 
   434  1E15                     	;# 
   435  1E16                     	;# 
   436  1E17                     	;# 
   437  1E18                     	;# 
   438  1E19                     	;# 
   439  1E1A                     	;# 
   440  1E1B                     	;# 
   441  1E1C                     	;# 
   442  1E1D                     	;# 
   443  1E1E                     	;# 
   444  1E1F                     	;# 
   445  1E20                     	;# 
   446  1E21                     	;# 
   447  1E22                     	;# 
   448  1E23                     	;# 
   449  1E24                     	;# 
   450  1E25                     	;# 
   451  1E26                     	;# 
   452  1E27                     	;# 
   453  1E28                     	;# 
   454  1E29                     	;# 
   455  1E2A                     	;# 
   456  1E2B                     	;# 
   457  1E2C                     	;# 
   458  1E2D                     	;# 
   459  1E2E                     	;# 
   460  1E2F                     	;# 
   461  1E30                     	;# 
   462  1E31                     	;# 
   463  1E32                     	;# 
   464  1E33                     	;# 
   465  1E34                     	;# 
   466  1E35                     	;# 
   467  1E36                     	;# 
   468  1E37                     	;# 
   469  1E38                     	;# 
   470  1E39                     	;# 
   471  1E3A                     	;# 
   472  1E3B                     	;# 
   473  1E3C                     	;# 
   474  1E3D                     	;# 
   475  1E3E                     	;# 
   476  1E3F                     	;# 
   477  1E40                     	;# 
   478  1E41                     	;# 
   479  1E42                     	;# 
   480  1E43                     	;# 
   481  1E44                     	;# 
   482  1E46                     	;# 
   483  1E47                     	;# 
   484  1E48                     	;# 
   485  1E49                     	;# 
   486  1E4A                     	;# 
   487  1E4B                     	;# 
   488  1E50                     	;# 
   489  1E51                     	;# 
   490  1E52                     	;# 
   491  1E53                     	;# 
   492  1E54                     	;# 
   493  1E55                     	;# 
   494  1E5B                     	;# 
   495  1E5C                     	;# 
   496  1E5D                     	;# 
   497  1E5E                     	;# 
   498  1E5F                     	;# 
   499  1E60                     	;# 
   500  1E61                     	;# 
   501  1E62                     	;# 
   502  1E67                     	;# 
   503  1E68                     	;# 
   504  1E69                     	;# 
   505  1E6A                     	;# 
   506  1E8F                     	;# 
   507  1E90                     	;# 
   508  1E91                     	;# 
   509  1E92                     	;# 
   510  1E93                     	;# 
   511  1E9C                     	;# 
   512  1E9D                     	;# 
   513  1EA1                     	;# 
   514  1EA2                     	;# 
   515  1EA9                     	;# 
   516  1EAA                     	;# 
   517  1EB1                     	;# 
   518  1EBB                     	;# 
   519  1EBC                     	;# 
   520  1EBD                     	;# 
   521  1EBE                     	;# 
   522  1EC3                     	;# 
   523  1EC5                     	;# 
   524  1EC6                     	;# 
   525  1EC7                     	;# 
   526  1ECB                     	;# 
   527  1ECC                     	;# 
   528  1ECD                     	;# 
   529  1ECE                     	;# 
   530  1F10                     	;# 
   531  1F11                     	;# 
   532  1F12                     	;# 
   533  1F13                     	;# 
   534  1F14                     	;# 
   535  1F15                     	;# 
   536  1F16                     	;# 
   537  1F17                     	;# 
   538  1F18                     	;# 
   539  1F19                     	;# 
   540  1F1A                     	;# 
   541  1F1B                     	;# 
   542  1F1C                     	;# 
   543  1F1D                     	;# 
   544  1F1E                     	;# 
   545  1F1F                     	;# 
   546  1F20                     	;# 
   547  1F21                     	;# 
   548  1F22                     	;# 
   549  1F23                     	;# 
   550  1F24                     	;# 
   551  1F25                     	;# 
   552  1F26                     	;# 
   553  1F27                     	;# 
   554  1F28                     	;# 
   555  1F29                     	;# 
   556  1F2A                     	;# 
   557  1F2B                     	;# 
   558  1F2C                     	;# 
   559  1F2D                     	;# 
   560  1F2E                     	;# 
   561  1F2F                     	;# 
   562  1F30                     	;# 
   563  1F31                     	;# 
   564  1F33                     	;# 
   565  1F34                     	;# 
   566  1F35                     	;# 
   567  1F36                     	;# 
   568  1F37                     	;# 
   569  1F38                     	;# 
   570  1F39                     	;# 
   571  1F3A                     	;# 
   572  1F3B                     	;# 
   573  1F3C                     	;# 
   574  1F43                     	;# 
   575  1F44                     	;# 
   576  1F45                     	;# 
   577  1F46                     	;# 
   578  1F47                     	;# 
   579  1F48                     	;# 
   580  1F49                     	;# 
   581  1F4A                     	;# 
   582  1F4E                     	;# 
   583  1F4F                     	;# 
   584  1F50                     	;# 
   585  1F51                     	;# 
   586  1F52                     	;# 
   587  1F53                     	;# 
   588  1F54                     	;# 
   589  1F55                     	;# 
   590  1F59                     	;# 
   591  1F5A                     	;# 
   592  1F5B                     	;# 
   593  1F5C                     	;# 
   594  1F5D                     	;# 
   595  1F64                     	;# 
   596  1F65                     	;# 
   597  1F66                     	;# 
   598  1F67                     	;# 
   599  1F68                     	;# 
   600  1F69                     	;# 
   601  1F6A                     	;# 
   602  1F6B                     	;# 
   603  1FE4                     	;# 
   604  1FE5                     	;# 
   605  1FE6                     	;# 
   606  1FE7                     	;# 
   607  1FE8                     	;# 
   608  1FE9                     	;# 
   609  1FEA                     	;# 
   610  1FEB                     	;# 
   611  1FED                     	;# 
   612  1FEE                     	;# 
   613  1FEF                     	;# 
   614  0000                     	;# 
   615  0001                     	;# 
   616  0002                     	;# 
   617  0003                     	;# 
   618  0004                     	;# 
   619  0005                     	;# 
   620  0006                     	;# 
   621  0007                     	;# 
   622  0008                     	;# 
   623  0009                     	;# 
   624  000A                     	;# 
   625  000B                     	;# 
   626  000C                     	;# 
   627  000D                     	;# 
   628  000E                     	;# 
   629  000F                     	;# 
   630  0010                     	;# 
   631  0011                     	;# 
   632  0012                     	;# 
   633  0013                     	;# 
   634  0014                     	;# 
   635  0015                     	;# 
   636  0016                     	;# 
   637  0017                     	;# 
   638  0018                     	;# 
   639  0019                     	;# 
   640  001A                     	;# 
   641  001B                     	;# 
   642  001C                     	;# 
   643  001D                     	;# 
   644  001F                     	;# 
   645  008C                     	;# 
   646  008C                     	;# 
   647  008D                     	;# 
   648  008E                     	;# 
   649  008E                     	;# 
   650  008F                     	;# 
   651  0090                     	;# 
   652  0090                     	;# 
   653  0091                     	;# 
   654  0092                     	;# 
   655  0092                     	;# 
   656  0093                     	;# 
   657  0094                     	;# 
   658  0094                     	;# 
   659  0095                     	;# 
   660  0096                     	;# 
   661  0096                     	;# 
   662  0097                     	;# 
   663  0098                     	;# 
   664  0099                     	;# 
   665  009A                     	;# 
   666  009B                     	;# 
   667  009B                     	;# 
   668  009C                     	;# 
   669  009D                     	;# 
   670  009D                     	;# 
   671  009E                     	;# 
   672  009F                     	;# 
   673  010C                     	;# 
   674  010C                     	;# 
   675  010D                     	;# 
   676  010E                     	;# 
   677  010F                     	;# 
   678  010F                     	;# 
   679  0110                     	;# 
   680  0111                     	;# 
   681  0112                     	;# 
   682  0113                     	;# 
   683  0114                     	;# 
   684  0115                     	;# 
   685  0116                     	;# 
   686  0117                     	;# 
   687  0118                     	;# 
   688  0119                     	;# 
   689  0119                     	;# 
   690  0119                     	;# 
   691  011A                     	;# 
   692  011A                     	;# 
   693  011A                     	;# 
   694  011B                     	;# 
   695  011B                     	;# 
   696  011B                     	;# 
   697  011B                     	;# 
   698  011B                     	;# 
   699  011C                     	;# 
   700  011C                     	;# 
   701  011C                     	;# 
   702  011D                     	;# 
   703  011D                     	;# 
   704  011D                     	;# 
   705  011E                     	;# 
   706  011E                     	;# 
   707  011E                     	;# 
   708  011F                     	;# 
   709  011F                     	;# 
   710  011F                     	;# 
   711  011F                     	;# 
   712  011F                     	;# 
   713  018C                     	;# 
   714  018D                     	;# 
   715  018E                     	;# 
   716  018F                     	;# 
   717  0190                     	;# 
   718  0191                     	;# 
   719  0192                     	;# 
   720  020C                     	;# 
   721  020C                     	;# 
   722  020D                     	;# 
   723  020E                     	;# 
   724  020F                     	;# 
   725  020F                     	;# 
   726  0210                     	;# 
   727  0210                     	;# 
   728  0211                     	;# 
   729  0211                     	;# 
   730  021E                     	;# 
   731  028C                     	;# 
   732  028C                     	;# 
   733  028D                     	;# 
   734  028D                     	;# 
   735  028E                     	;# 
   736  028F                     	;# 
   737  0290                     	;# 
   738  0290                     	;# 
   739  0291                     	;# 
   740  0292                     	;# 
   741  0292                     	;# 
   742  0293                     	;# 
   743  0293                     	;# 
   744  0294                     	;# 
   745  0295                     	;# 
   746  0296                     	;# 
   747  0296                     	;# 
   748  0297                     	;# 
   749  030C                     	;# 
   750  030C                     	;# 
   751  030D                     	;# 
   752  030E                     	;# 
   753  030F                     	;# 
   754  0310                     	;# 
   755  0310                     	;# 
   756  0311                     	;# 
   757  0312                     	;# 
   758  0313                     	;# 
   759  0314                     	;# 
   760  0314                     	;# 
   761  0315                     	;# 
   762  0316                     	;# 
   763  0318                     	;# 
   764  0318                     	;# 
   765  0319                     	;# 
   766  031A                     	;# 
   767  048C                     	;# 
   768  048C                     	;# 
   769  048D                     	;# 
   770  048E                     	;# 
   771  048F                     	;# 
   772  048F                     	;# 
   773  0490                     	;# 
   774  0491                     	;# 
   775  0492                     	;# 
   776  0492                     	;# 
   777  0493                     	;# 
   778  0494                     	;# 
   779  0495                     	;# 
   780  0495                     	;# 
   781  0496                     	;# 
   782  0497                     	;# 
   783  0498                     	;# 
   784  0499                     	;# 
   785  049A                     	;# 
   786  049B                     	;# 
   787  049C                     	;# 
   788  049D                     	;# 
   789  059C                     	;# 
   790  059C                     	;# 
   791  059D                     	;# 
   792  059D                     	;# 
   793  059E                     	;# 
   794  059F                     	;# 
   795  060C                     	;# 
   796  060D                     	;# 
   797  060E                     	;# 
   798  060F                     	;# 
   799  0610                     	;# 
   800  0611                     	;# 
   801  0612                     	;# 
   802  0613                     	;# 
   803  0614                     	;# 
   804  070C                     	;# 
   805  070D                     	;# 
   806  070E                     	;# 
   807  070F                     	;# 
   808  0710                     	;# 
   809  0711                     	;# 
   810  0712                     	;# 
   811  0713                     	;# 
   812  0714                     	;# 
   813  0716                     	;# 
   814  0717                     	;# 
   815  0718                     	;# 
   816  0719                     	;# 
   817  071A                     	;# 
   818  071B                     	;# 
   819  071C                     	;# 
   820  071D                     	;# 
   821  071E                     	;# 
   822  0796                     	;# 
   823  0797                     	;# 
   824  0798                     	;# 
   825  0799                     	;# 
   826  079A                     	;# 
   827  079B                     	;# 
   828  080C                     	;# 
   829  080D                     	;# 
   830  080E                     	;# 
   831  080F                     	;# 
   832  0810                     	;# 
   833  0811                     	;# 
   834  0812                     	;# 
   835  0813                     	;# 
   836  0814                     	;# 
   837  081A                     	;# 
   838  081B                     	;# 
   839  081C                     	;# 
   840  081D                     	;# 
   841  081E                     	;# 
   842  081F                     	;# 
   843  088C                     	;# 
   844  088D                     	;# 
   845  088E                     	;# 
   846  088F                     	;# 
   847  0890                     	;# 
   848  0891                     	;# 
   849  0892                     	;# 
   850  0893                     	;# 
   851  0894                     	;# 
   852  090C                     	;# 
   853  090E                     	;# 
   854  090F                     	;# 
   855  091F                     	;# 
   856  098F                     	;# 
   857  098F                     	;# 
   858  0990                     	;# 
   859  0991                     	;# 
   860  0992                     	;# 
   861  0993                     	;# 
   862  0994                     	;# 
   863  0995                     	;# 
   864  0996                     	;# 
   865  0997                     	;# 
   866  0A19                     	;# 
   867  0A19                     	;# 
   868  0A1A                     	;# 
   869  0A1A                     	;# 
   870  0A1B                     	;# 
   871  0A1B                     	;# 
   872  0A1B                     	;# 
   873  0A1C                     	;# 
   874  0A1C                     	;# 
   875  0A1D                     	;# 
   876  0A1D                     	;# 
   877  0A1E                     	;# 
   878  0A1E                     	;# 
   879  0A1F                     	;# 
   880  0A1F                     	;# 
   881  0A1F                     	;# 
   882  0C0C                     	;# 
   883  0C0D                     	;# 
   884  0C0E                     	;# 
   885  0C0F                     	;# 
   886  0C10                     	;# 
   887  0C11                     	;# 
   888  0C12                     	;# 
   889  0C13                     	;# 
   890  0C14                     	;# 
   891  0C15                     	;# 
   892  0C16                     	;# 
   893  0C17                     	;# 
   894  0C18                     	;# 
   895  0C19                     	;# 
   896  0C1A                     	;# 
   897  0C1B                     	;# 
   898  0C1C                     	;# 
   899  0C8C                     	;# 
   900  0C8D                     	;# 
   901  0C8E                     	;# 
   902  0C8F                     	;# 
   903  0C90                     	;# 
   904  0C91                     	;# 
   905  0E8C                     	;# 
   906  0E8D                     	;# 
   907  0E8E                     	;# 
   908  0E8F                     	;# 
   909  1D0C                     	;# 
   910  1D0D                     	;# 
   911  1D0E                     	;# 
   912  1D0F                     	;# 
   913  1D10                     	;# 
   914  1D11                     	;# 
   915  1D12                     	;# 
   916  1D13                     	;# 
   917  1D14                     	;# 
   918  1D15                     	;# 
   919  1D16                     	;# 
   920  1D17                     	;# 
   921  1D18                     	;# 
   922  1D19                     	;# 
   923  1D1A                     	;# 
   924  1D1B                     	;# 
   925  1D1C                     	;# 
   926  1D1D                     	;# 
   927  1D1E                     	;# 
   928  1D1F                     	;# 
   929  1D20                     	;# 
   930  1D21                     	;# 
   931  1D22                     	;# 
   932  1D23                     	;# 
   933  1D24                     	;# 
   934  1D25                     	;# 
   935  1D26                     	;# 
   936  1D27                     	;# 
   937  1D28                     	;# 
   938  1D29                     	;# 
   939  1D2A                     	;# 
   940  1D2B                     	;# 
   941  1D2C                     	;# 
   942  1D2D                     	;# 
   943  1D2E                     	;# 
   944  1D2F                     	;# 
   945  1D30                     	;# 
   946  1D31                     	;# 
   947  1D32                     	;# 
   948  1D33                     	;# 
   949  1D34                     	;# 
   950  1D35                     	;# 
   951  1D36                     	;# 
   952  1D37                     	;# 
   953  1D38                     	;# 
   954  1D39                     	;# 
   955  1D3A                     	;# 
   956  1D3B                     	;# 
   957  1D3C                     	;# 
   958  1D3D                     	;# 
   959  1D3E                     	;# 
   960  1D3F                     	;# 
   961  1D40                     	;# 
   962  1D41                     	;# 
   963  1D42                     	;# 
   964  1D43                     	;# 
   965  1D44                     	;# 
   966  1D45                     	;# 
   967  1D46                     	;# 
   968  1D47                     	;# 
   969  1E0F                     	;# 
   970  1E10                     	;# 
   971  1E11                     	;# 
   972  1E12                     	;# 
   973  1E13                     	;# 
   974  1E14                     	;# 
   975  1E15                     	;# 
   976  1E16                     	;# 
   977  1E17                     	;# 
   978  1E18                     	;# 
   979  1E19                     	;# 
   980  1E1A                     	;# 
   981  1E1B                     	;# 
   982  1E1C                     	;# 
   983  1E1D                     	;# 
   984  1E1E                     	;# 
   985  1E1F                     	;# 
   986  1E20                     	;# 
   987  1E21                     	;# 
   988  1E22                     	;# 
   989  1E23                     	;# 
   990  1E24                     	;# 
   991  1E25                     	;# 
   992  1E26                     	;# 
   993  1E27                     	;# 
   994  1E28                     	;# 
   995  1E29                     	;# 
   996  1E2A                     	;# 
   997  1E2B                     	;# 
   998  1E2C                     	;# 
   999  1E2D                     	;# 
  1000  1E2E                     	;# 
  1001  1E2F                     	;# 
  1002  1E30                     	;# 
  1003  1E31                     	;# 
  1004  1E32                     	;# 
  1005  1E33                     	;# 
  1006  1E34                     	;# 
  1007  1E35                     	;# 
  1008  1E36                     	;# 
  1009  1E37                     	;# 
  1010  1E38                     	;# 
  1011  1E39                     	;# 
  1012  1E3A                     	;# 
  1013  1E3B                     	;# 
  1014  1E3C                     	;# 
  1015  1E3D                     	;# 
  1016  1E3E                     	;# 
  1017  1E3F                     	;# 
  1018  1E40                     	;# 
  1019  1E41                     	;# 
  1020  1E42                     	;# 
  1021  1E43                     	;# 
  1022  1E44                     	;# 
  1023  1E46                     	;# 
  1024  1E47                     	;# 
  1025  1E48                     	;# 
  1026  1E49                     	;# 
  1027  1E4A                     	;# 
  1028  1E4B                     	;# 
  1029  1E50                     	;# 
  1030  1E51                     	;# 
  1031  1E52                     	;# 
  1032  1E53                     	;# 
  1033  1E54                     	;# 
  1034  1E55                     	;# 
  1035  1E5B                     	;# 
  1036  1E5C                     	;# 
  1037  1E5D                     	;# 
  1038  1E5E                     	;# 
  1039  1E5F                     	;# 
  1040  1E60                     	;# 
  1041  1E61                     	;# 
  1042  1E62                     	;# 
  1043  1E67                     	;# 
  1044  1E68                     	;# 
  1045  1E69                     	;# 
  1046  1E6A                     	;# 
  1047  1E8F                     	;# 
  1048  1E90                     	;# 
  1049  1E91                     	;# 
  1050  1E92                     	;# 
  1051  1E93                     	;# 
  1052  1E9C                     	;# 
  1053  1E9D                     	;# 
  1054  1EA1                     	;# 
  1055  1EA2                     	;# 
  1056  1EA9                     	;# 
  1057  1EAA                     	;# 
  1058  1EB1                     	;# 
  1059  1EBB                     	;# 
  1060  1EBC                     	;# 
  1061  1EBD                     	;# 
  1062  1EBE                     	;# 
  1063  1EC3                     	;# 
  1064  1EC5                     	;# 
  1065  1EC6                     	;# 
  1066  1EC7                     	;# 
  1067  1ECB                     	;# 
  1068  1ECC                     	;# 
  1069  1ECD                     	;# 
  1070  1ECE                     	;# 
  1071  1F10                     	;# 
  1072  1F11                     	;# 
  1073  1F12                     	;# 
  1074  1F13                     	;# 
  1075  1F14                     	;# 
  1076  1F15                     	;# 
  1077  1F16                     	;# 
  1078  1F17                     	;# 
  1079  1F18                     	;# 
  1080  1F19                     	;# 
  1081  1F1A                     	;# 
  1082  1F1B                     	;# 
  1083  1F1C                     	;# 
  1084  1F1D                     	;# 
  1085  1F1E                     	;# 
  1086  1F1F                     	;# 
  1087  1F20                     	;# 
  1088  1F21                     	;# 
  1089  1F22                     	;# 
  1090  1F23                     	;# 
  1091  1F24                     	;# 
  1092  1F25                     	;# 
  1093  1F26                     	;# 
  1094  1F27                     	;# 
  1095  1F28                     	;# 
  1096  1F29                     	;# 
  1097  1F2A                     	;# 
  1098  1F2B                     	;# 
  1099  1F2C                     	;# 
  1100  1F2D                     	;# 
  1101  1F2E                     	;# 
  1102  1F2F                     	;# 
  1103  1F30                     	;# 
  1104  1F31                     	;# 
  1105  1F33                     	;# 
  1106  1F34                     	;# 
  1107  1F35                     	;# 
  1108  1F36                     	;# 
  1109  1F37                     	;# 
  1110  1F38                     	;# 
  1111  1F39                     	;# 
  1112  1F3A                     	;# 
  1113  1F3B                     	;# 
  1114  1F3C                     	;# 
  1115  1F43                     	;# 
  1116  1F44                     	;# 
  1117  1F45                     	;# 
  1118  1F46                     	;# 
  1119  1F47                     	;# 
  1120  1F48                     	;# 
  1121  1F49                     	;# 
  1122  1F4A                     	;# 
  1123  1F4E                     	;# 
  1124  1F4F                     	;# 
  1125  1F50                     	;# 
  1126  1F51                     	;# 
  1127  1F52                     	;# 
  1128  1F53                     	;# 
  1129  1F54                     	;# 
  1130  1F55                     	;# 
  1131  1F59                     	;# 
  1132  1F5A                     	;# 
  1133  1F5B                     	;# 
  1134  1F5C                     	;# 
  1135  1F5D                     	;# 
  1136  1F64                     	;# 
  1137  1F65                     	;# 
  1138  1F66                     	;# 
  1139  1F67                     	;# 
  1140  1F68                     	;# 
  1141  1F69                     	;# 
  1142  1F6A                     	;# 
  1143  1F6B                     	;# 
  1144  1FE4                     	;# 
  1145  1FE5                     	;# 
  1146  1FE6                     	;# 
  1147  1FE7                     	;# 
  1148  1FE8                     	;# 
  1149  1FE9                     	;# 
  1150  1FEA                     	;# 
  1151  1FEB                     	;# 
  1152  1FED                     	;# 
  1153  1FEE                     	;# 
  1154  1FEF                     	;# 
  1155                           
  1156                           	psect	idataBANK0
  1157  0364                     __pidataBANK0:
  1158                           
  1159                           ;initializer for stoa@F1131
  1160  0364  3428               	retlw	40
  1161  0365  346E               	retlw	110
  1162  0366  3475               	retlw	117
  1163  0367  346C               	retlw	108
  1164  0368  346C               	retlw	108
  1165  0369  3429               	retlw	41
  1166  036A  3400               	retlw	0
  1167                           
  1168                           	psect	stringtext1
  1169  02E6                     __pstringtext1:
  1170  02E6                     _Project:
  1171  02E6  346D               	retlw	109
  1172  02E7  3463               	retlw	99
  1173  02E8  3475               	retlw	117
  1174  02E9  342D               	retlw	45
  1175  02EA  3469               	retlw	105
  1176  02EB  3472               	retlw	114
  1177  02EC  3471               	retlw	113
  1178  02ED  342D               	retlw	45
  1179  02EE  3462               	retlw	98
  1180  02EF  3465               	retlw	101
  1181  02F0  346E               	retlw	110
  1182  02F1  3463               	retlw	99
  1183  02F2  3468               	retlw	104
  1184  02F3  346D               	retlw	109
  1185  02F4  3461               	retlw	97
  1186  02F5  3472               	retlw	114
  1187  02F6  346B               	retlw	107
  1188  02F7  3400               	retlw	0
  1189  02F8                     __end_of_Project:
  1190                           
  1191                           	psect	stringtext2
  1192  0346                     __pstringtext2:
  1193  0346                     _CompileDate:
  1194  0346  3453               	retlw	83
  1195  0347  3465               	retlw	101
  1196  0348  3470               	retlw	112
  1197  0349  3420               	retlw	32
  1198  034A  3432               	retlw	50
  1199  034B  3433               	retlw	51
  1200  034C  3420               	retlw	32
  1201  034D  3432               	retlw	50
  1202  034E  3430               	retlw	48
  1203  034F  3432               	retlw	50
  1204  0350  3430               	retlw	48
  1205  0351  3400               	retlw	0
  1206  0352                     __end_of_CompileDate:
  1207                           
  1208                           	psect	stringtext3
  1209  0352                     __pstringtext3:
  1210  0352                     _CompileTime:
  1211  0352  3431               	retlw	49
  1212  0353  3433               	retlw	51
  1213  0354  343A               	retlw	58
  1214  0355  3431               	retlw	49
  1215  0356  3431               	retlw	49
  1216  0357  343A               	retlw	58
  1217  0358  3434               	retlw	52
  1218  0359  3436               	retlw	54
  1219  035A  3400               	retlw	0
  1220  035B                     __end_of_CompileTime:
  1221                           
  1222                           	psect	stringtext4
  1223  02A1                     __pstringtext4:
  1224  02A1                     _Version:
  1225  02A1  3430               	retlw	48
  1226  02A2  3430               	retlw	48
  1227  02A3  342E               	retlw	46
  1228  02A4  3430               	retlw	48
  1229  02A5  3431               	retlw	49
  1230  02A6  3400               	retlw	0
  1231  02A7                     __end_of_Version:
  1232  0014                     _TRISCbits	set	20
  1233  000B                     _INTCONbits	set	11
  1234  001C                     _LATEbits	set	28
  1235  0016                     _TRISEbits	set	22
  1236  011A                     _TX1REG	set	282
  1237  011B                     _SP1BRGL	set	283
  1238  011C                     _SP1BRGH	set	284
  1239  011F                     _BAUD1CONbits	set	287
  1240  011E                     _TX1STAbits	set	286
  1241  011D                     _RC1STAbits	set	285
  1242  028D                     _T2PR	set	653
  1243  0290                     _T2CLKCONbits	set	656
  1244  028C                     _T2TMR	set	652
  1245  028E                     _T2CONbits	set	654
  1246  030C                     _CCPR1L	set	780
  1247  030D                     _CCPR1H	set	781
  1248  030E                     _CCP1CONbits	set	782
  1249  071A                     _PIE4bits	set	1818
  1250  0710                     _PIR4bits	set	1808
  1251  0719                     _PIE3bits	set	1817
  1252  070F                     _PIR3bits	set	1807
  1253  1ECB                     _RX1PPS	set	7883
  1254  1E8F                     _PPSLOCKbits	set	7823
  1255  1E8F                     _PPSLOCK	set	7823
  1256  1F36                     _RE6PPS	set	7990
  1257  1F27                     _RC7PPS	set	7975
  1258  1F64                     _ANSELEbits	set	8036
  1259  02A7                     STR_5:
  1260  02A7  3442               	retlw	66	;'B'
  1261  02A8  3475               	retlw	117	;'u'
  1262  02A9  3469               	retlw	105	;'i'
  1263  02AA  346C               	retlw	108	;'l'
  1264  02AB  3464               	retlw	100	;'d'
  1265  02AC  3420               	retlw	32	;' '
  1266  02AD  3474               	retlw	116	;'t'
  1267  02AE  3469               	retlw	105	;'i'
  1268  02AF  346D               	retlw	109	;'m'
  1269  02B0  3465               	retlw	101	;'e'
  1270  02B1  343A               	retlw	58	;':'
  1271  02B2  3420               	retlw	32	;' '
  1272  02B3  3425               	retlw	37	;'%'
  1273  02B4  3473               	retlw	115	;'s'
  1274  02B5  340D               	retlw	13
  1275  02B6  340A               	retlw	10
  1276  02B7  340D               	retlw	13
  1277  02B8  340A               	retlw	10
  1278  02B9  3400               	retlw	0
  1279                           
  1280                           	psect	stringtext5
  1281  030A                     __pstringtext5:
  1282  030A                     STR_4:
  1283  030A  3442               	retlw	66	;'B'
  1284  030B  3475               	retlw	117	;'u'
  1285  030C  3469               	retlw	105	;'i'
  1286  030D  346C               	retlw	108	;'l'
  1287  030E  3464               	retlw	100	;'d'
  1288  030F  3420               	retlw	32	;' '
  1289  0310  3464               	retlw	100	;'d'
  1290  0311  3461               	retlw	97	;'a'
  1291  0312  3474               	retlw	116	;'t'
  1292  0313  3465               	retlw	101	;'e'
  1293  0314  343A               	retlw	58	;':'
  1294  0315  3420               	retlw	32	;' '
  1295  0316  3425               	retlw	37	;'%'
  1296  0317  3473               	retlw	115	;'s'
  1297  0318  340D               	retlw	13
  1298  0319  340A               	retlw	10
  1299  031A  3400               	retlw	0
  1300                           
  1301                           	psect	stringtext6
  1302  031B                     __pstringtext6:
  1303  031B                     STR_1:
  1304  031B  3443               	retlw	67	;'C'
  1305  031C  346F               	retlw	111	;'o'
  1306  031D  346F               	retlw	111	;'o'
  1307  031E  346C               	retlw	108	;'l'
  1308  031F  342D               	retlw	45	;'-'
  1309  0320  344D               	retlw	77	;'M'
  1310  0321  3443               	retlw	67	;'C'
  1311  0322  3455               	retlw	85	;'U'
  1312  0323  342E               	retlw	46	;'.'
  1313  0324  3463               	retlw	99	;'c'
  1314  0325  346F               	retlw	111	;'o'
  1315  0326  346D               	retlw	109	;'m'
  1316  0327  340D               	retlw	13
  1317  0328  340A               	retlw	10
  1318  0329  3400               	retlw	0
  1319                           
  1320                           	psect	stringtext7
  1321  032A                     __pstringtext7:
  1322  032A                     STR_3:
  1323  032A  3456               	retlw	86	;'V'
  1324  032B  3465               	retlw	101	;'e'
  1325  032C  3472               	retlw	114	;'r'
  1326  032D  3473               	retlw	115	;'s'
  1327  032E  3469               	retlw	105	;'i'
  1328  032F  346F               	retlw	111	;'o'
  1329  0330  346E               	retlw	110	;'n'
  1330  0331  343A               	retlw	58	;':'
  1331  0332  3420               	retlw	32	;' '
  1332  0333  3425               	retlw	37	;'%'
  1333  0334  3473               	retlw	115	;'s'
  1334  0335  340D               	retlw	13
  1335  0336  340A               	retlw	10
  1336  0337  3400               	retlw	0
  1337                           
  1338                           	psect	stringtext8
  1339  0338                     __pstringtext8:
  1340  0338                     STR_2:
  1341  0338  3450               	retlw	80	;'P'
  1342  0339  3472               	retlw	114	;'r'
  1343  033A  346F               	retlw	111	;'o'
  1344  033B  346A               	retlw	106	;'j'
  1345  033C  3465               	retlw	101	;'e'
  1346  033D  3463               	retlw	99	;'c'
  1347  033E  3474               	retlw	116	;'t'
  1348  033F  343A               	retlw	58	;':'
  1349  0340  3420               	retlw	32	;' '
  1350  0341  3425               	retlw	37	;'%'
  1351  0342  3473               	retlw	115	;'s'
  1352  0343  340D               	retlw	13
  1353  0344  340A               	retlw	10
  1354  0345  3400               	retlw	0
  1355                           
  1356                           	psect	stringtext9
  1357  0000                     __pstringtext9:
  1358                           
  1359                           	psect	cinit
  1360  001B                     start_initialization:	
  1361                           ; #config settings
  1362                           
  1363  001B                     __initialization:
  1364                           
  1365                           ; Initialize objects allocated to BANK0
  1366  001B  3064               	movlw	low __pidataBANK0
  1367  001C  0084               	movwf	4
  1368  001D  3083               	movlw	(high __pidataBANK0)| (0+128)
  1369  001E  0085               	movwf	5
  1370  001F  3056               	movlw	low __pdataBANK0
  1371  0020  0086               	movwf	6
  1372  0021  3000               	movlw	high __pdataBANK0
  1373  0022  0087               	movwf	7
  1374  0023  3007               	movlw	7
  1375  0024  3183  236B  3180   	fcall	init_ram
  1376                           
  1377                           ; Clear objects allocated to BANK0
  1378  0027  304E               	movlw	low __pbssBANK0
  1379  0028  0084               	movwf	4
  1380  0029  3000               	movlw	high __pbssBANK0
  1381  002A  0085               	movwf	5
  1382  002B  3008               	movlw	8
  1383  002C  3183  2371  3180   	fcall	clear_ram0
  1384                           
  1385                           ; Clear objects allocated to BANK1
  1386  002F  30A0               	movlw	low __pbssBANK1
  1387  0030  0084               	movwf	4
  1388  0031  3000               	movlw	high __pbssBANK1
  1389  0032  0085               	movwf	5
  1390  0033  3020               	movlw	32
  1391  0034  3183  2371  3180   	fcall	clear_ram0
  1392  0037                     end_of_initialization:	
  1393                           ;End of C runtime variable initialization code
  1394                           
  1395  0037                     __end_of__initialization:
  1396  0037  107E               	bcf	int$flags,0	;clear compiler interrupt flag (level 1)
  1397  0038  0140               	movlb	0
  1398  0039  3183  2B77         	ljmp	_main	;jump to C main() function
  1399                           
  1400                           	psect	bssBANK0
  1401  004E                     __pbssBANK0:
  1402  004E                     _nout:
  1403  004E                     	ds	2
  1404  0050                     _width:
  1405  0050                     	ds	2
  1406  0052                     _prec:
  1407  0052                     	ds	2
  1408  0054                     _flags:
  1409  0054                     	ds	2
  1410                           
  1411                           	psect	dataBANK0
  1412  0056                     __pdataBANK0:
  1413  0056                     stoa@F1131:
  1414  0056                     	ds	7
  1415                           
  1416                           	psect	bssBANK1
  1417  00A0                     __pbssBANK1:
  1418  00A0                     _dbuf:
  1419  00A0                     	ds	32
  1420                           
  1421                           	psect	inittext
  1422  036B                     init_ram:
  1423  036B  00FE               	movwf	btemp
  1424  036C                     initloop:
  1425  036C  0012               	moviw fsr0++
  1426  036D  001E               	movwi fsr1++
  1427  036E  0BFE               	decfsz	btemp,f
  1428  036F  2B6C               	goto	initloop
  1429  0370  3400               	retlw	0
  1430                           
  1431                           	psect	clrtext
  1432  0371                     clear_ram0:	
  1433                           ;	Called with FSR0 containing the base address, and
  1434                           ;	WREG with the size to clear
  1435                           
  1436  0371  0064               	clrwdt	;clear the watchdog before getting into this loop
  1437  0372                     clrloop0:
  1438  0372  0180               	clrf	0	;clear RAM location pointed to by FSR
  1439  0373  3101               	addfsr 0,1
  1440  0374  0B89               	decfsz	9,f	;Have we reached the end of clearing yet?
  1441  0375  2B72               	goto	clrloop0	;have we reached the end yet?
  1442  0376  3400               	retlw	0	;all done for this memory range, return
  1443                           
  1444                           	psect	cstackCOMMON
  1445  0070                     __pcstackCOMMON:
  1446  0070                     ?_Initiallize:
  1447  0070                     ?_SetPerformanceMode:	
  1448                           ; 1 bytes @ 0x0
  1449                           
  1450  0070                     ?_PinConfig:	
  1451                           ; 1 bytes @ 0x0
  1452                           
  1453  0070                     ?_UartConfig:	
  1454                           ; 1 bytes @ 0x0
  1455                           
  1456  0070                     ?_PWMConfig:	
  1457                           ; 1 bytes @ 0x0
  1458                           
  1459  0070                     ?_putch:	
  1460                           ; 1 bytes @ 0x0
  1461                           
  1462  0070                     ?_interruptHandler:	
  1463                           ; 1 bytes @ 0x0
  1464                           
  1465  0070                     ??_interruptHandler:	
  1466                           ; 1 bytes @ 0x0
  1467                           
  1468  0070                     ?_main:	
  1469                           ; 1 bytes @ 0x0
  1470                           
  1471                           
  1472                           ; 2 bytes @ 0x0
  1473  0070                     	ds	1
  1474  0071                     ??_SetPerformanceMode:
  1475  0071                     ??_PinConfig:	
  1476                           ; 1 bytes @ 0x1
  1477                           
  1478  0071                     ??_UartConfig:	
  1479                           ; 1 bytes @ 0x1
  1480                           
  1481  0071                     ??_PWMConfig:	
  1482                           ; 1 bytes @ 0x1
  1483                           
  1484  0071                     ??_putch:	
  1485                           ; 1 bytes @ 0x1
  1486                           
  1487  0071                     ?_strlen:	
  1488                           ; 1 bytes @ 0x1
  1489                           
  1490  0071                     putch@c:	
  1491                           ; 2 bytes @ 0x1
  1492                           
  1493  0071                     strlen@s:	
  1494                           ; 1 bytes @ 0x1
  1495                           
  1496                           
  1497                           ; 2 bytes @ 0x1
  1498  0071                     	ds	1
  1499  0072                     ?_fputc:
  1500  0072                     fputc@c:	
  1501                           ; 2 bytes @ 0x2
  1502                           
  1503                           
  1504                           ; 2 bytes @ 0x2
  1505  0072                     	ds	1
  1506  0073                     ??_strlen:
  1507                           
  1508                           ; 1 bytes @ 0x3
  1509  0073                     	ds	1
  1510  0074                     fputc@fp:
  1511  0074                     strlen@a:	
  1512                           ; 1 bytes @ 0x4
  1513                           
  1514                           
  1515                           ; 2 bytes @ 0x4
  1516  0074                     	ds	1
  1517  0075                     ??_fputc:
  1518                           
  1519                           ; 1 bytes @ 0x5
  1520  0075                     	ds	5
  1521  007A                     ?_stoa:
  1522  007A                     stoa@s:	
  1523                           ; 2 bytes @ 0xA
  1524                           
  1525                           
  1526                           ; 2 bytes @ 0xA
  1527  007A                     	ds	2
  1528  007C                     ??_printf:
  1529                           
  1530                           ; 1 bytes @ 0xC
  1531  007C                     	ds	1
  1532  007D                     ??_Initiallize:
  1533  007D                     ??_main:	
  1534                           ; 1 bytes @ 0xD
  1535                           
  1536                           
  1537                           	psect	cstackBANK0
  1538  0020                     __pcstackBANK0:	
  1539                           ; 1 bytes @ 0xD
  1540                           
  1541  0020                     ??_stoa:
  1542                           
  1543                           ; 1 bytes @ 0x0
  1544  0020                     	ds	3
  1545  0023                     stoa@nuls:
  1546                           
  1547                           ; 7 bytes @ 0x3
  1548  0023                     	ds	7
  1549  002A                     stoa@i:
  1550                           
  1551                           ; 2 bytes @ 0xA
  1552  002A                     	ds	2
  1553  002C                     stoa@w:
  1554                           
  1555                           ; 2 bytes @ 0xC
  1556  002C                     	ds	2
  1557  002E                     stoa@cp:
  1558                           
  1559                           ; 2 bytes @ 0xE
  1560  002E                     	ds	2
  1561  0030                     stoa@fp:
  1562                           
  1563                           ; 1 bytes @ 0x10
  1564  0030                     	ds	1
  1565  0031                     stoa@p:
  1566                           
  1567                           ; 2 bytes @ 0x11
  1568  0031                     	ds	2
  1569  0033                     stoa@l:
  1570                           
  1571                           ; 2 bytes @ 0x13
  1572  0033                     	ds	2
  1573  0035                     ?_vfpfcnvrt:
  1574  0035                     vfpfcnvrt@fmt:	
  1575                           ; 2 bytes @ 0x15
  1576                           
  1577                           
  1578                           ; 1 bytes @ 0x15
  1579  0035                     	ds	1
  1580  0036                     vfpfcnvrt@ap:
  1581                           
  1582                           ; 1 bytes @ 0x16
  1583  0036                     	ds	1
  1584  0037                     ??_vfpfcnvrt:
  1585                           
  1586                           ; 1 bytes @ 0x17
  1587  0037                     	ds	5
  1588  003C                     vfpfcnvrt@cp:
  1589                           
  1590                           ; 2 bytes @ 0x1C
  1591  003C                     	ds	2
  1592  003E                     vfpfcnvrt@fp:
  1593                           
  1594                           ; 1 bytes @ 0x1E
  1595  003E                     	ds	1
  1596  003F                     ?_vfprintf:
  1597  003F                     vfprintf@fmt:	
  1598                           ; 2 bytes @ 0x1F
  1599                           
  1600                           
  1601                           ; 2 bytes @ 0x1F
  1602  003F                     	ds	2
  1603  0041                     vfprintf@ap:
  1604                           
  1605                           ; 1 bytes @ 0x21
  1606  0041                     	ds	1
  1607  0042                     ??_vfprintf:
  1608                           
  1609                           ; 1 bytes @ 0x22
  1610  0042                     	ds	2
  1611  0044                     vfprintf@fp:
  1612                           
  1613                           ; 1 bytes @ 0x24
  1614  0044                     	ds	1
  1615  0045                     vfprintf@cfmt:
  1616                           
  1617                           ; 2 bytes @ 0x25
  1618  0045                     	ds	2
  1619  0047                     ?_printf:
  1620  0047                     printf@fmt:	
  1621                           ; 2 bytes @ 0x27
  1622                           
  1623                           
  1624                           ; 2 bytes @ 0x27
  1625  0047                     	ds	6
  1626  004D                     printf@ap:
  1627                           
  1628                           ; 1 bytes @ 0x2D
  1629  004D                     	ds	1
  1630                           
  1631                           	psect	maintext
  1632  0377                     __pmaintext:	
  1633 ;;
  1634 ;;Main: autosize = 0, tempsize = 0, incstack = 0, save=0
  1635 ;;
  1636 ;; *************** function _main *****************
  1637 ;; Defined at:
  1638 ;;		line 64 in file "main.c"
  1639 ;; Parameters:    Size  Location     Type
  1640 ;;		None
  1641 ;; Auto vars:     Size  Location     Type
  1642 ;;		None
  1643 ;; Return value:  Size  Location     Type
  1644 ;;                  2   78[None  ] int 
  1645 ;; Registers used:
  1646 ;;		wreg, fsr0l, fsr0h, fsr1l, fsr1h, status,2, status,0, pclath, cstack
  1647 ;; Tracked objects:
  1648 ;;		On entry : B3F/0
  1649 ;;		On exit  : 0/0
  1650 ;;		Unchanged: 0/0
  1651 ;; Data sizes:     COMMON   BANK0   BANK1   BANK2   BANK3   BANK4   BANK5   BANK6   BANK7   BANK8   BANK9  BANK10  BANK1
      +1  BANK12  BANK13  BANK14  BANK15  BANK16  BANK17  BANK18  BANK19  BANK20  BANK21  BANK22  BANK23  BANK24  BANK25  BANK2
      +6  BANK27  BANK28  BANK29  BANK30  BANK31  BANK32  BANK33  BANK34  BANK35  BANK36  BANK37  BANK38  BANK39  BANK40  BANK4
      +1  BANK42  BANK43  BANK44  BANK45  BANK46  BANK47  BANK48  BANK49  BANK50
  1652 ;;      Params:         0       0       0       0       0       0       0       0       0       0       0       0       
      +0       0       0       0       0       0       0       0       0       0       0       0       0       0       0       
      +0       0       0       0       0       0       0       0       0       0       0       0       0       0       0       
      +0       0       0       0       0       0       0       0       0       0
  1653 ;;      Locals:         0       0       0       0       0       0       0       0       0       0       0       0       
      +0       0       0       0       0       0       0       0       0       0       0       0       0       0       0       
      +0       0       0       0       0       0       0       0       0       0       0       0       0       0       0       
      +0       0       0       0       0       0       0       0       0       0
  1654 ;;      Temps:          0       0       0       0       0       0       0       0       0       0       0       0       
      +0       0       0       0       0       0       0       0       0       0       0       0       0       0       0       
      +0       0       0       0       0       0       0       0       0       0       0       0       0       0       0       
      +0       0       0       0       0       0       0       0       0       0
  1655 ;;      Totals:         0       0       0       0       0       0       0       0       0       0       0       0       
      +0       0       0       0       0       0       0       0       0       0       0       0       0       0       0       
      +0       0       0       0       0       0       0       0       0       0       0       0       0       0       0       
      +0       0       0       0       0       0       0       0       0       0
  1656 ;;Total ram usage:        0 bytes
  1657 ;; Hardware stack levels required when called:    8
  1658 ;; This function calls:
  1659 ;;		_Initiallize
  1660 ;; This function is called by:
  1661 ;;		Startup code after reset
  1662 ;; This function uses a non-reentrant model
  1663 ;;
  1664                           
  1665                           
  1666                           ;psect for function _main
  1667  0377                     _main:
  1668  0377                     l1198:	
  1669                           ;incstack = 0
  1670                           ; Regs used in _main: [wreg-fsr1h+status,2+status,0+pclath+cstack]
  1671                           
  1672                           
  1673                           ;main.c: 66:     Initiallize();
  1674  0377  3181  21B6  3183   	fcall	_Initiallize
  1675  037A                     l79:	
  1676                           ;main.c: 68:     while(1);
  1677                           
  1678  037A                     l80:
  1679  037A  2B7A               	goto	l79
  1680  037B  3180  2819         	ljmp	start
  1681  037D                     __end_of_main:
  1682                           
  1683                           	psect	text1
  1684  01B6                     __ptext1:	
  1685 ;; *************** function _Initiallize *****************
  1686 ;; Defined at:
  1687 ;;		line 72 in file "main.c"
  1688 ;; Parameters:    Size  Location     Type
  1689 ;;		None
  1690 ;; Auto vars:     Size  Location     Type
  1691 ;;		None
  1692 ;; Return value:  Size  Location     Type
  1693 ;;                  1    wreg      void 
  1694 ;; Registers used:
  1695 ;;		wreg, fsr0l, fsr0h, fsr1l, fsr1h, status,2, status,0, pclath, cstack
  1696 ;; Tracked objects:
  1697 ;;		On entry : 0/0
  1698 ;;		On exit  : 0/0
  1699 ;;		Unchanged: 0/0
  1700 ;; Data sizes:     COMMON   BANK0   BANK1   BANK2   BANK3   BANK4   BANK5   BANK6   BANK7   BANK8   BANK9  BANK10  BANK1
      +1  BANK12  BANK13  BANK14  BANK15  BANK16  BANK17  BANK18  BANK19  BANK20  BANK21  BANK22  BANK23  BANK24  BANK25  BANK2
      +6  BANK27  BANK28  BANK29  BANK30  BANK31  BANK32  BANK33  BANK34  BANK35  BANK36  BANK37  BANK38  BANK39  BANK40  BANK4
      +1  BANK42  BANK43  BANK44  BANK45  BANK46  BANK47  BANK48  BANK49  BANK50
  1701 ;;      Params:         0       0       0       0       0       0       0       0       0       0       0       0       
      +0       0       0       0       0       0       0       0       0       0       0       0       0       0       0       
      +0       0       0       0       0       0       0       0       0       0       0       0       0       0       0       
      +0       0       0       0       0       0       0       0       0       0
  1702 ;;      Locals:         0       0       0       0       0       0       0       0       0       0       0       0       
      +0       0       0       0       0       0       0       0       0       0       0       0       0       0       0       
      +0       0       0       0       0       0       0       0       0       0       0       0       0       0       0       
      +0       0       0       0       0       0       0       0       0       0
  1703 ;;      Temps:          0       0       0       0       0       0       0       0       0       0       0       0       
      +0       0       0       0       0       0       0       0       0       0       0       0       0       0       0       
      +0       0       0       0       0       0       0       0       0       0       0       0       0       0       0       
      +0       0       0       0       0       0       0       0       0       0
  1704 ;;      Totals:         0       0       0       0       0       0       0       0       0       0       0       0       
      +0       0       0       0       0       0       0       0       0       0       0       0       0       0       0       
      +0       0       0       0       0       0       0       0       0       0       0       0       0       0       0       
      +0       0       0       0       0       0       0       0       0       0
  1705 ;;Total ram usage:        0 bytes
  1706 ;; Hardware stack levels used:    1
  1707 ;; Hardware stack levels required when called:    7
  1708 ;; This function calls:
  1709 ;;		_PWMConfig
  1710 ;;		_PinConfig
  1711 ;;		_SetPerformanceMode
  1712 ;;		_UartConfig
  1713 ;;		_printf
  1714 ;; This function is called by:
  1715 ;;		_main
  1716 ;; This function uses a non-reentrant model
  1717 ;;
  1718                           
  1719                           
  1720                           ;psect for function _Initiallize
  1721  01B6                     _Initiallize:
  1722  01B6                     l1170:	
  1723                           ;incstack = 0
  1724                           ; Regs used in _Initiallize: [wreg-fsr1h+status,2+status,0+pclath+cstack]
  1725                           
  1726                           
  1727                           ;main.c: 75:     SetPerformanceMode();
  1728  01B6  3183  237D  3181   	fcall	_SetPerformanceMode
  1729  01B9                     l1172:
  1730                           
  1731                           ;main.c: 78:     PinConfig();
  1732  01B9  3182  2269  3181   	fcall	_PinConfig
  1733  01BC                     l1174:
  1734                           
  1735                           ;main.c: 81:     UartConfig();
  1736  01BC  3182  22D3  3181   	fcall	_UartConfig
  1737  01BF                     l1176:
  1738                           
  1739                           ;main.c: 83:     printf("Cool-MCU.com\r\n");
  1740  01BF  301B               	movlw	low (STR_1| (0+32768))
  1741  01C0  0140               	movlb	0	; select bank0
  1742  01C1  00C7               	movwf	printf@fmt
  1743  01C2  3083               	movlw	high (STR_1| (0+32768))
  1744  01C3  00C8               	movwf	printf@fmt+1
  1745  01C4  3182  22F8  3181   	fcall	_printf
  1746  01C7                     l1178:
  1747                           
  1748                           ;main.c: 84:     printf("Project: %s\r\n", Project);
  1749  01C7  3038               	movlw	low (STR_2| (0+32768))
  1750  01C8  0140               	movlb	0	; select bank0
  1751  01C9  00C7               	movwf	printf@fmt
  1752  01CA  3083               	movlw	high (STR_2| (0+32768))
  1753  01CB  00C8               	movwf	printf@fmt+1
  1754  01CC  30E6               	movlw	low (_Project| (0+32768))
  1755  01CD  00C9               	movwf	low ((?_printf| 0+2))
  1756  01CE  3082               	movlw	high (_Project| (0+32768))
  1757  01CF  00CA               	movwf	(low ((?_printf| 0+2))+1)
  1758  01D0  3182  22F8  3181   	fcall	_printf
  1759  01D3                     l1180:
  1760                           
  1761                           ;main.c: 85:     printf("Version: %s\r\n", Version);
  1762  01D3  302A               	movlw	low (STR_3| (0+32768))
  1763  01D4  0140               	movlb	0	; select bank0
  1764  01D5  00C7               	movwf	printf@fmt
  1765  01D6  3083               	movlw	high (STR_3| (0+32768))
  1766  01D7  00C8               	movwf	printf@fmt+1
  1767  01D8  30A1               	movlw	low (_Version| (0+32768))
  1768  01D9  00C9               	movwf	low ((?_printf| 0+2))
  1769  01DA  3082               	movlw	high (_Version| (0+32768))
  1770  01DB  00CA               	movwf	(low ((?_printf| 0+2))+1)
  1771  01DC  3182  22F8  3181   	fcall	_printf
  1772  01DF                     l1182:
  1773                           
  1774                           ;main.c: 86:     printf("Build date: %s\r\n", CompileDate);
  1775  01DF  300A               	movlw	low (STR_4| (0+32768))
  1776  01E0  0140               	movlb	0	; select bank0
  1777  01E1  00C7               	movwf	printf@fmt
  1778  01E2  3083               	movlw	high (STR_4| (0+32768))
  1779  01E3  00C8               	movwf	printf@fmt+1
  1780  01E4  3046               	movlw	low (_CompileDate| (0+32768))
  1781  01E5  00C9               	movwf	low ((?_printf| 0+2))
  1782  01E6  3083               	movlw	high (_CompileDate| (0+32768))
  1783  01E7  00CA               	movwf	(low ((?_printf| 0+2))+1)
  1784  01E8  3182  22F8  3181   	fcall	_printf
  1785  01EB                     l1184:
  1786                           
  1787                           ;main.c: 87:     printf("Build time: %s\r\n\r\n", CompileTime);
  1788  01EB  30A7               	movlw	low (STR_5| (0+32768))
  1789  01EC  0140               	movlb	0	; select bank0
  1790  01ED  00C7               	movwf	printf@fmt
  1791  01EE  3082               	movlw	high (STR_5| (0+32768))
  1792  01EF  00C8               	movwf	printf@fmt+1
  1793  01F0  3052               	movlw	low (_CompileTime| (0+32768))
  1794  01F1  00C9               	movwf	low ((?_printf| 0+2))
  1795  01F2  3083               	movlw	high (_CompileTime| (0+32768))
  1796  01F3  00CA               	movwf	(low ((?_printf| 0+2))+1)
  1797  01F4  3182  22F8  3181   	fcall	_printf
  1798  01F7                     l1186:
  1799                           
  1800                           ;main.c: 90:     PWMConfig();
  1801  01F7  3182  2285  3181   	fcall	_PWMConfig
  1802  01FA                     l1188:
  1803                           
  1804                           ;main.c: 96:     ANSELEbits.ANSE5 = 0;
  1805  01FA  017E               	movlb	62	; select bank62
  1806  01FB  12E4               	bcf	100,5	;volatile
  1807  01FC                     l1190:
  1808                           
  1809                           ;main.c: 97:     TRISEbits.TRISE5 = 0;
  1810  01FC  0140               	movlb	0	; select bank0
  1811  01FD  1296               	bcf	22,5	;volatile
  1812  01FE                     l1192:
  1813                           
  1814                           ;main.c: 98:     LATEbits.LATE5 = 0;
  1815  01FE  129C               	bcf	28,5	;volatile
  1816  01FF                     l1194:
  1817                           
  1818                           ;main.c: 116:     INTCONbits.PEIE = 1;
  1819  01FF  170B               	bsf	11,6	;volatile
  1820  0200                     l1196:
  1821                           
  1822                           ;main.c: 117:     INTCONbits.GIE = 1;
  1823  0200  178B               	bsf	11,7	;volatile
  1824  0201                     l85:
  1825  0201  0008               	return
  1826  0202                     __end_of_Initiallize:
  1827                           
  1828                           	psect	text2
  1829  02F8                     __ptext2:	
  1830 ;; *************** function _printf *****************
  1831 ;; Defined at:
  1832 ;;		line 5 in file "/Applications/microchip/xc8/v2.20/pic/sources/c99/common/printf.c"
  1833 ;; Parameters:    Size  Location     Type
  1834 ;;  fmt             2   39[BANK0 ] PTR const unsigned char 
  1835 ;;		 -> STR_5(19), STR_4(17), STR_3(14), STR_2(14), 
  1836 ;;		 -> STR_1(15), 
  1837 ;; Auto vars:     Size  Location     Type
  1838 ;;  ret             2    0        int 
  1839 ;;  ap              1   45[BANK0 ] PTR void [1]
  1840 ;;		 -> ?_printf(2), 
  1841 ;; Return value:  Size  Location     Type
  1842 ;;                  2   39[BANK0 ] int 
  1843 ;; Registers used:
  1844 ;;		wreg, fsr0l, fsr0h, fsr1l, fsr1h, status,2, status,0, pclath, cstack
  1845 ;; Tracked objects:
  1846 ;;		On entry : 0/0
  1847 ;;		On exit  : 0/0
  1848 ;;		Unchanged: 0/0
  1849 ;; Data sizes:     COMMON   BANK0   BANK1   BANK2   BANK3   BANK4   BANK5   BANK6   BANK7   BANK8   BANK9  BANK10  BANK1
      +1  BANK12  BANK13  BANK14  BANK15  BANK16  BANK17  BANK18  BANK19  BANK20  BANK21  BANK22  BANK23  BANK24  BANK25  BANK2
      +6  BANK27  BANK28  BANK29  BANK30  BANK31  BANK32  BANK33  BANK34  BANK35  BANK36  BANK37  BANK38  BANK39  BANK40  BANK4
      +1  BANK42  BANK43  BANK44  BANK45  BANK46  BANK47  BANK48  BANK49  BANK50
  1850 ;;      Params:         0       4       0       0       0       0       0       0       0       0       0       0       
      +0       0       0       0       0       0       0       0       0       0       0       0       0       0       0       
      +0       0       0       0       0       0       0       0       0       0       0       0       0       0       0       
      +0       0       0       0       0       0       0       0       0       0
  1851 ;;      Locals:         0       3       0       0       0       0       0       0       0       0       0       0       
      +0       0       0       0       0       0       0       0       0       0       0       0       0       0       0       
      +0       0       0       0       0       0       0       0       0       0       0       0       0       0       0       
      +0       0       0       0       0       0       0       0       0       0
  1852 ;;      Temps:          1       0       0       0       0       0       0       0       0       0       0       0       
      +0       0       0       0       0       0       0       0       0       0       0       0       0       0       0       
      +0       0       0       0       0       0       0       0       0       0       0       0       0       0       0       
      +0       0       0       0       0       0       0       0       0       0
  1853 ;;      Totals:         1       7       0       0       0       0       0       0       0       0       0       0       
      +0       0       0       0       0       0       0       0       0       0       0       0       0       0       0       
      +0       0       0       0       0       0       0       0       0       0       0       0       0       0       0       
      +0       0       0       0       0       0       0       0       0       0
  1854 ;;Total ram usage:        8 bytes
  1855 ;; Hardware stack levels used:    1
  1856 ;; Hardware stack levels required when called:    6
  1857 ;; This function calls:
  1858 ;;		_vfprintf
  1859 ;; This function is called by:
  1860 ;;		_Initiallize
  1861 ;; This function uses a non-reentrant model
  1862 ;;
  1863                           
  1864                           
  1865                           ;psect for function _printf
  1866  02F8                     _printf:
  1867  02F8                     l1164:	
  1868                           ;incstack = 0
  1869                           ; Regs used in _printf: [wreg-fsr1h+status,2+status,0+pclath+cstack]
  1870                           
  1871  02F8  3049               	movlw	(low ((?_printf| 0+2)))& (0+255)
  1872  02F9  00FC               	movwf	??_printf
  1873  02FA  087C               	movf	??_printf,w
  1874  02FB  0140               	movlb	0	; select bank0
  1875  02FC  00CD               	movwf	printf@ap
  1876  02FD                     l1166:
  1877  02FD  0848               	movf	printf@fmt+1,w
  1878  02FE  00C0               	movwf	vfprintf@fmt+1
  1879  02FF  0847               	movf	printf@fmt,w
  1880  0300  00BF               	movwf	vfprintf@fmt
  1881  0301  304D               	movlw	(low (printf@ap| 0))& (0+255)
  1882  0302  00FC               	movwf	??_printf
  1883  0303  087C               	movf	??_printf,w
  1884  0304  00C1               	movwf	vfprintf@ap
  1885  0305  3000               	movlw	0
  1886  0306  3182  2241  3182   	fcall	_vfprintf
  1887  0309                     l723:
  1888  0309  0008               	return
  1889  030A                     __end_of_printf:
  1890                           
  1891                           	psect	text3
  1892  0241                     __ptext3:	
  1893 ;; *************** function _vfprintf *****************
  1894 ;; Defined at:
  1895 ;;		line 1368 in file "/Applications/microchip/xc8/v2.20/pic/sources/c99/common/doprnt.c"
  1896 ;; Parameters:    Size  Location     Type
  1897 ;;  fp              1    wreg     PTR struct _IO_FILE
  1898 ;;		 -> NULL(0), 
  1899 ;;  fmt             2   31[BANK0 ] PTR const unsigned char 
  1900 ;;		 -> STR_5(19), STR_4(17), STR_3(14), STR_2(14), 
  1901 ;;		 -> STR_1(15), 
  1902 ;;  ap              1   33[BANK0 ] PTR PTR void 
  1903 ;;		 -> printf@ap(1), 
  1904 ;; Auto vars:     Size  Location     Type
  1905 ;;  fp              1   36[BANK0 ] PTR struct _IO_FILE
  1906 ;;		 -> NULL(0), 
  1907 ;;  cfmt            2   37[BANK0 ] PTR unsigned char 
  1908 ;;		 -> STR_5(19), STR_4(17), STR_3(14), STR_2(14), 
  1909 ;;		 -> STR_1(15), 
  1910 ;; Return value:  Size  Location     Type
  1911 ;;                  2   31[BANK0 ] int 
  1912 ;; Registers used:
  1913 ;;		wreg, fsr0l, fsr0h, fsr1l, fsr1h, status,2, status,0, pclath, cstack
  1914 ;; Tracked objects:
  1915 ;;		On entry : 0/0
  1916 ;;		On exit  : 0/0
  1917 ;;		Unchanged: 0/0
  1918 ;; Data sizes:     COMMON   BANK0   BANK1   BANK2   BANK3   BANK4   BANK5   BANK6   BANK7   BANK8   BANK9  BANK10  BANK1
      +1  BANK12  BANK13  BANK14  BANK15  BANK16  BANK17  BANK18  BANK19  BANK20  BANK21  BANK22  BANK23  BANK24  BANK25  BANK2
      +6  BANK27  BANK28  BANK29  BANK30  BANK31  BANK32  BANK33  BANK34  BANK35  BANK36  BANK37  BANK38  BANK39  BANK40  BANK4
      +1  BANK42  BANK43  BANK44  BANK45  BANK46  BANK47  BANK48  BANK49  BANK50
  1919 ;;      Params:         0       3       0       0       0       0       0       0       0       0       0       0       
      +0       0       0       0       0       0       0       0       0       0       0       0       0       0       0       
      +0       0       0       0       0       0       0       0       0       0       0       0       0       0       0       
      +0       0       0       0       0       0       0       0       0       0
  1920 ;;      Locals:         0       3       0       0       0       0       0       0       0       0       0       0       
      +0       0       0       0       0       0       0       0       0       0       0       0       0       0       0       
      +0       0       0       0       0       0       0       0       0       0       0       0       0       0       0       
      +0       0       0       0       0       0       0       0       0       0
  1921 ;;      Temps:          0       2       0       0       0       0       0       0       0       0       0       0       
      +0       0       0       0       0       0       0       0       0       0       0       0       0       0       0       
      +0       0       0       0       0       0       0       0       0       0       0       0       0       0       0       
      +0       0       0       0       0       0       0       0       0       0
  1922 ;;      Totals:         0       8       0       0       0       0       0       0       0       0       0       0       
      +0       0       0       0       0       0       0       0       0       0       0       0       0       0       0       
      +0       0       0       0       0       0       0       0       0       0       0       0       0       0       0       
      +0       0       0       0       0       0       0       0       0       0
  1923 ;;Total ram usage:        8 bytes
  1924 ;; Hardware stack levels used:    1
  1925 ;; Hardware stack levels required when called:    5
  1926 ;; This function calls:
  1927 ;;		_vfpfcnvrt
  1928 ;; This function is called by:
  1929 ;;		_printf
  1930 ;; This function uses a non-reentrant model
  1931 ;;
  1932                           
  1933                           
  1934                           ;psect for function _vfprintf
  1935  0241                     _vfprintf:
  1936                           
  1937                           ;incstack = 0
  1938                           ; Regs used in _vfprintf: [wreg-fsr1h+status,2+status,0+pclath+cstack]
  1939                           ;vfprintf@fp stored from wreg
  1940  0241  0140               	movlb	0	; select bank0
  1941  0242  00C4               	movwf	vfprintf@fp
  1942  0243                     l1152:
  1943                           
  1944                           ;/Applications/microchip/xc8/v2.20/pic/sources/c99/common/doprnt.c: 1368: int vfprintf(F
      +                          ILE *fp, const char *fmt, va_list ap);/Applications/microchip/xc8/v2.20/pic/sources/c99/
      +                          common/doprnt.c: 1369: {;/Applications/microchip/xc8/v2.20/pic/sources/c99/common/doprnt
      +                          .c: 1371:     char *cfmt;;/Applications/microchip/xc8/v2.20/pic/sources/c99/common/doprn
      +                          t.c: 1373:     cfmt = (char *)fmt;
  1945  0243  0840               	movf	vfprintf@fmt+1,w
  1946  0244  00C6               	movwf	vfprintf@cfmt+1
  1947  0245  083F               	movf	vfprintf@fmt,w
  1948  0246  00C5               	movwf	vfprintf@cfmt
  1949  0247                     l1154:
  1950                           
  1951                           ;/Applications/microchip/xc8/v2.20/pic/sources/c99/common/doprnt.c: 1374:     nout = 0;
  1952  0247  01CE               	clrf	_nout
  1953  0248  01CF               	clrf	_nout+1
  1954                           
  1955                           ;/Applications/microchip/xc8/v2.20/pic/sources/c99/common/doprnt.c: 1375:     while (*cf
      +                          mt) {
  1956  0249  2A5B               	goto	l1158
  1957  024A                     l1156:
  1958                           
  1959                           ;/Applications/microchip/xc8/v2.20/pic/sources/c99/common/doprnt.c: 1376:         nout +
      +                          = vfpfcnvrt(fp, &cfmt, ap);
  1960  024A  3045               	movlw	(low (vfprintf@cfmt| 0))& (0+255)
  1961  024B  00C2               	movwf	??_vfprintf
  1962  024C  0842               	movf	??_vfprintf,w
  1963  024D  00B5               	movwf	vfpfcnvrt@fmt
  1964  024E  0841               	movf	vfprintf@ap,w
  1965  024F  00C3               	movwf	??_vfprintf+1
  1966  0250  0843               	movf	??_vfprintf+1,w
  1967  0251  00B6               	movwf	vfpfcnvrt@ap
  1968  0252  0844               	movf	vfprintf@fp,w
  1969  0253  3181  2107  3182   	fcall	_vfpfcnvrt
  1970  0256  0140               	movlb	0	; select bank0
  1971  0257  0835               	movf	?_vfpfcnvrt,w
  1972  0258  07CE               	addwf	_nout,f
  1973  0259  0836               	movf	?_vfpfcnvrt+1,w
  1974  025A  3DCF               	addwfc	_nout+1,f
  1975  025B                     l1158:
  1976                           
  1977                           ;/Applications/microchip/xc8/v2.20/pic/sources/c99/common/doprnt.c: 1375:     while (*cf
      +                          mt) {
  1978  025B  0845               	movf	vfprintf@cfmt,w
  1979  025C  0084               	movwf	4
  1980  025D  0846               	movf	vfprintf@cfmt+1,w
  1981  025E  0085               	movwf	5
  1982  025F  0012               	moviw fsr0++
  1983  0260  1D03               	btfss	3,2
  1984  0261  2A63               	goto	u381
  1985  0262  2A64               	goto	u380
  1986  0263                     u381:
  1987  0263  2A4A               	goto	l1156
  1988  0264                     u380:
  1989  0264                     l1160:
  1990                           
  1991                           ;/Applications/microchip/xc8/v2.20/pic/sources/c99/common/doprnt.c: 1378:     return nou
      +                          t;
  1992  0264  084F               	movf	_nout+1,w
  1993  0265  00C0               	movwf	?_vfprintf+1
  1994  0266  084E               	movf	_nout,w
  1995  0267  00BF               	movwf	?_vfprintf
  1996  0268                     l788:
  1997  0268  0008               	return
  1998  0269                     __end_of_vfprintf:
  1999                           
  2000                           	psect	text4
  2001  0107                     __ptext4:	
  2002 ;; *************** function _vfpfcnvrt *****************
  2003 ;; Defined at:
  2004 ;;		line 670 in file "/Applications/microchip/xc8/v2.20/pic/sources/c99/common/doprnt.c"
  2005 ;; Parameters:    Size  Location     Type
  2006 ;;  fp              1    wreg     PTR struct _IO_FILE
  2007 ;;		 -> NULL(0), 
  2008 ;;  fmt             1   21[BANK0 ] PTR PTR unsigned char 
  2009 ;;		 -> vfprintf@cfmt(2), 
  2010 ;;  ap              1   22[BANK0 ] PTR PTR void 
  2011 ;;		 -> printf@ap(1), 
  2012 ;; Auto vars:     Size  Location     Type
  2013 ;;  fp              1   30[BANK0 ] PTR struct _IO_FILE
  2014 ;;		 -> NULL(0), 
  2015 ;;  llu             8    0        unsigned long long 
  2016 ;;  ll              8    0        long long 
  2017 ;;  f               4    0        long long 
  2018 ;;  ct              3    0        unsigned char [3]
  2019 ;;  cp              2   28[BANK0 ] PTR unsigned char 
  2020 ;;		 -> ?_printf(2), CompileTime(9), CompileDate(12), Version(6), 
  2021 ;;		 -> Project(18), 
  2022 ;;  vp              2    0        PTR void 
  2023 ;;  i               2    0        int 
  2024 ;;  done            2    0        int 
  2025 ;;  c               1    0        unsigned char 
  2026 ;; Return value:  Size  Location     Type
  2027 ;;                  2   21[BANK0 ] int 
  2028 ;; Registers used:
  2029 ;;		wreg, fsr0l, fsr0h, fsr1l, fsr1h, status,2, status,0, pclath, cstack
  2030 ;; Tracked objects:
  2031 ;;		On entry : 0/0
  2032 ;;		On exit  : 0/0
  2033 ;;		Unchanged: 0/0
  2034 ;; Data sizes:     COMMON   BANK0   BANK1   BANK2   BANK3   BANK4   BANK5   BANK6   BANK7   BANK8   BANK9  BANK10  BANK1
      +1  BANK12  BANK13  BANK14  BANK15  BANK16  BANK17  BANK18  BANK19  BANK20  BANK21  BANK22  BANK23  BANK24  BANK25  BANK2
      +6  BANK27  BANK28  BANK29  BANK30  BANK31  BANK32  BANK33  BANK34  BANK35  BANK36  BANK37  BANK38  BANK39  BANK40  BANK4
      +1  BANK42  BANK43  BANK44  BANK45  BANK46  BANK47  BANK48  BANK49  BANK50
  2035 ;;      Params:         0       2       0       0       0       0       0       0       0       0       0       0       
      +0       0       0       0       0       0       0       0       0       0       0       0       0       0       0       
      +0       0       0       0       0       0       0       0       0       0       0       0       0       0       0       
      +0       0       0       0       0       0       0       0       0       0
  2036 ;;      Locals:         0       3       0       0       0       0       0       0       0       0       0       0       
      +0       0       0       0       0       0       0       0       0       0       0       0       0       0       0       
      +0       0       0       0       0       0       0       0       0       0       0       0       0       0       0       
      +0       0       0       0       0       0       0       0       0       0
  2037 ;;      Temps:          0       5       0       0       0       0       0       0       0       0       0       0       
      +0       0       0       0       0       0       0       0       0       0       0       0       0       0       0       
      +0       0       0       0       0       0       0       0       0       0       0       0       0       0       0       
      +0       0       0       0       0       0       0       0       0       0
  2038 ;;      Totals:         0      10       0       0       0       0       0       0       0       0       0       0       
      +0       0       0       0       0       0       0       0       0       0       0       0       0       0       0       
      +0       0       0       0       0       0       0       0       0       0       0       0       0       0       0       
      +0       0       0       0       0       0       0       0       0       0
  2039 ;;Total ram usage:       10 bytes
  2040 ;; Hardware stack levels used:    1
  2041 ;; Hardware stack levels required when called:    4
  2042 ;; This function calls:
  2043 ;;		_fputc
  2044 ;;		_stoa
  2045 ;; This function is called by:
  2046 ;;		_vfprintf
  2047 ;; This function uses a non-reentrant model
  2048 ;;
  2049                           
  2050                           
  2051                           ;psect for function _vfpfcnvrt
  2052  0107                     _vfpfcnvrt:
  2053                           
  2054                           ;incstack = 0
  2055                           ; Regs used in _vfpfcnvrt: [wreg-fsr1h+status,2+status,0+pclath+cstack]
  2056                           ;vfpfcnvrt@fp stored from wreg
  2057  0107  0140               	movlb	0	; select bank0
  2058  0108  00BE               	movwf	vfpfcnvrt@fp
  2059  0109                     l1110:
  2060                           
  2061                           ;/Applications/microchip/xc8/v2.20/pic/sources/c99/common/doprnt.c: 670: static int vfpf
      +                          cnvrt(FILE *fp, char *fmt[], va_list ap);/Applications/microchip/xc8/v2.20/pic/sources/c
      +                          99/common/doprnt.c: 671: {;/Applications/microchip/xc8/v2.20/pic/sources/c99/common/dopr
      +                          nt.c: 672:     char c, *cp, ct[3];;/Applications/microchip/xc8/v2.20/pic/sources/c99/com
      +                          mon/doprnt.c: 673:     int done, i;;/Applications/microchip/xc8/v2.20/pic/sources/c99/co
      +                          mmon/doprnt.c: 674:     long long ll;;/Applications/microchip/xc8/v2.20/pic/sources/c99/
      +                          common/doprnt.c: 675:     unsigned long long llu;
  2062  0109  0835               	movf	vfpfcnvrt@fmt,w
  2063  010A  0086               	movwf	6
  2064  010B  0187               	clrf	7
  2065  010C  3F40               	moviw [0]fsr1
  2066  010D  00B7               	movwf	??_vfpfcnvrt
  2067  010E  3F41               	moviw [1]fsr1
  2068  010F  00B8               	movwf	??_vfpfcnvrt+1
  2069  0110  0837               	movf	??_vfpfcnvrt,w
  2070  0111  0084               	movwf	4
  2071  0112  0838               	movf	??_vfpfcnvrt+1,w
  2072  0113  0085               	movwf	5
  2073  0114  0012               	moviw fsr0++
  2074  0115  3A25               	xorlw	37
  2075  0116  1D03               	btfss	3,2
  2076  0117  2919               	goto	u351
  2077  0118  291A               	goto	u350
  2078  0119                     u351:
  2079  0119  2992               	goto	l1144
  2080  011A                     u350:
  2081  011A                     l1112:
  2082                           
  2083                           ;/Applications/microchip/xc8/v2.20/pic/sources/c99/common/doprnt.c: 681:         ++*fmt;
  2084  011A  0835               	movf	vfpfcnvrt@fmt,w
  2085  011B  0086               	movwf	6
  2086  011C  0187               	clrf	7
  2087  011D  3001               	movlw	1
  2088  011E  0781               	addwf	1,f
  2089  011F  3141               	addfsr 1,1
  2090  0120  1803               	skipnc
  2091  0121  0A81               	incf	1,f
  2092  0122                     l1114:
  2093                           
  2094                           ;/Applications/microchip/xc8/v2.20/pic/sources/c99/common/doprnt.c: 683:         flags =
      +                           width = 0;
  2095  0122  01D0               	clrf	_width
  2096  0123  01D1               	clrf	_width+1
  2097  0124  01D4               	clrf	_flags
  2098  0125  01D5               	clrf	_flags+1
  2099  0126                     l1116:
  2100                           
  2101                           ;/Applications/microchip/xc8/v2.20/pic/sources/c99/common/doprnt.c: 684:         prec = 
      +                          -1;
  2102  0126  30FF               	movlw	255
  2103  0127  00D2               	movwf	_prec
  2104  0128  30FF               	movlw	255
  2105  0129  00D3               	movwf	_prec+1
  2106  012A                     l1118:
  2107                           
  2108                           ;/Applications/microchip/xc8/v2.20/pic/sources/c99/common/doprnt.c: 1149:         if (*f
      +                          mt[0] == 's') {
  2109  012A  0835               	movf	vfpfcnvrt@fmt,w
  2110  012B  0086               	movwf	6
  2111  012C  0187               	clrf	7
  2112  012D  3F40               	moviw [0]fsr1
  2113  012E  00B7               	movwf	??_vfpfcnvrt
  2114  012F  3F41               	moviw [1]fsr1
  2115  0130  00B8               	movwf	??_vfpfcnvrt+1
  2116  0131  0837               	movf	??_vfpfcnvrt,w
  2117  0132  0084               	movwf	4
  2118  0133  0838               	movf	??_vfpfcnvrt+1,w
  2119  0134  0085               	movwf	5
  2120  0135  0012               	moviw fsr0++
  2121  0136  3A73               	xorlw	115
  2122  0137  1D03               	btfss	3,2
  2123  0138  293A               	goto	u361
  2124  0139  293B               	goto	u360
  2125  013A                     u361:
  2126  013A  295D               	goto	l1128
  2127  013B                     u360:
  2128  013B                     l1120:
  2129                           
  2130                           ;/Applications/microchip/xc8/v2.20/pic/sources/c99/common/doprnt.c: 1151:             ++
      +                          *fmt;
  2131  013B  0835               	movf	vfpfcnvrt@fmt,w
  2132  013C  0086               	movwf	6
  2133  013D  0187               	clrf	7
  2134  013E  3001               	movlw	1
  2135  013F  0781               	addwf	1,f
  2136  0140  3141               	addfsr 1,1
  2137  0141  1803               	skipnc
  2138  0142  0A81               	incf	1,f
  2139  0143                     l1122:
  2140                           
  2141                           ;/Applications/microchip/xc8/v2.20/pic/sources/c99/common/doprnt.c: 1152:             cp
      +                           = (*(char * *)__va_arg(*(char * **)ap, (char *)0));
  2142  0143  0836               	movf	vfpfcnvrt@ap,w
  2143  0144  0086               	movwf	6
  2144  0145  0187               	clrf	7
  2145  0146  0801               	movf	1,w
  2146  0147  0084               	movwf	4
  2147  0148  0185               	clrf	5
  2148  0149  3002               	movlw	2
  2149  014A  0781               	addwf	1,f
  2150  014B  3F00               	moviw [0]fsr0
  2151  014C  00BC               	movwf	vfpfcnvrt@cp
  2152  014D  3F01               	moviw [1]fsr0
  2153  014E  00BD               	movwf	vfpfcnvrt@cp+1
  2154  014F                     l1124:
  2155                           
  2156                           ;/Applications/microchip/xc8/v2.20/pic/sources/c99/common/doprnt.c: 1154:             re
      +                          turn stoa(fp, cp);
  2157  014F  083D               	movf	vfpfcnvrt@cp+1,w
  2158  0150  00FB               	movwf	stoa@s+1
  2159  0151  083C               	movf	vfpfcnvrt@cp,w
  2160  0152  00FA               	movwf	stoa@s
  2161  0153  083E               	movf	vfpfcnvrt@fp,w
  2162  0154  3180  203B  3181   	fcall	_stoa
  2163  0157  087B               	movf	?_stoa+1,w
  2164  0158  0140               	movlb	0	; select bank0
  2165  0159  00B6               	movwf	?_vfpfcnvrt+1
  2166  015A  087A               	movf	?_stoa,w
  2167  015B  00B5               	movwf	?_vfpfcnvrt
  2168  015C  29B5               	goto	l781
  2169  015D                     l1128:
  2170                           
  2171                           ;/Applications/microchip/xc8/v2.20/pic/sources/c99/common/doprnt.c: 1350:         if ((*
      +                          fmt)[0] == '%') {
  2172  015D  0835               	movf	vfpfcnvrt@fmt,w
  2173  015E  0086               	movwf	6
  2174  015F  0187               	clrf	7
  2175  0160  3F40               	moviw [0]fsr1
  2176  0161  00B7               	movwf	??_vfpfcnvrt
  2177  0162  3F41               	moviw [1]fsr1
  2178  0163  00B8               	movwf	??_vfpfcnvrt+1
  2179  0164  0837               	movf	??_vfpfcnvrt,w
  2180  0165  0084               	movwf	4
  2181  0166  0838               	movf	??_vfpfcnvrt+1,w
  2182  0167  0085               	movwf	5
  2183  0168  0012               	moviw fsr0++
  2184  0169  3A25               	xorlw	37
  2185  016A  1D03               	btfss	3,2
  2186  016B  296D               	goto	u371
  2187  016C  296E               	goto	u370
  2188  016D                     u371:
  2189  016D  2987               	goto	l1138
  2190  016E                     u370:
  2191  016E                     l1130:
  2192                           
  2193                           ;/Applications/microchip/xc8/v2.20/pic/sources/c99/common/doprnt.c: 1351:             ++
      +                          *fmt;
  2194  016E  0835               	movf	vfpfcnvrt@fmt,w
  2195  016F  0086               	movwf	6
  2196  0170  0187               	clrf	7
  2197  0171  3001               	movlw	1
  2198  0172  0781               	addwf	1,f
  2199  0173  3141               	addfsr 1,1
  2200  0174  1803               	skipnc
  2201  0175  0A81               	incf	1,f
  2202  0176                     l1132:
  2203                           
  2204                           ;/Applications/microchip/xc8/v2.20/pic/sources/c99/common/doprnt.c: 1352:             fp
      +                          utc((int)'%', fp);
  2205  0176  3025               	movlw	37
  2206  0177  00F2               	movwf	fputc@c
  2207  0178  3000               	movlw	0
  2208  0179  00F3               	movwf	fputc@c+1
  2209  017A  083E               	movf	vfpfcnvrt@fp,w
  2210  017B  00B7               	movwf	??_vfpfcnvrt
  2211  017C  0837               	movf	??_vfpfcnvrt,w
  2212  017D  00F4               	movwf	fputc@fp
  2213  017E  3182  2202  3181   	fcall	_fputc
  2214  0181                     l1134:
  2215                           
  2216                           ;/Applications/microchip/xc8/v2.20/pic/sources/c99/common/doprnt.c: 1353:             re
      +                          turn 1;
  2217  0181  3001               	movlw	1
  2218  0182  0140               	movlb	0	; select bank0
  2219  0183  00B5               	movwf	?_vfpfcnvrt
  2220  0184  3000               	movlw	0
  2221  0185  00B6               	movwf	?_vfpfcnvrt+1
  2222  0186  29B5               	goto	l781
  2223  0187                     l1138:
  2224                           
  2225                           ;/Applications/microchip/xc8/v2.20/pic/sources/c99/common/doprnt.c: 1357:         ++*fmt
      +                          ;
  2226  0187  0835               	movf	vfpfcnvrt@fmt,w
  2227  0188  0086               	movwf	6
  2228  0189  0187               	clrf	7
  2229  018A  3001               	movlw	1
  2230  018B  0781               	addwf	1,f
  2231  018C  3141               	addfsr 1,1
  2232  018D  1803               	skipnc
  2233  018E  0A81               	incf	1,f
  2234  018F                     l1140:
  2235                           
  2236                           ;/Applications/microchip/xc8/v2.20/pic/sources/c99/common/doprnt.c: 1358:         return
      +                           0;
  2237  018F  01B5               	clrf	?_vfpfcnvrt
  2238  0190  01B6               	clrf	?_vfpfcnvrt+1
  2239  0191  29B5               	goto	l781
  2240  0192                     l1144:
  2241                           
  2242                           ;/Applications/microchip/xc8/v2.20/pic/sources/c99/common/doprnt.c: 1362:     fputc((int
      +                          )(*fmt)[0], fp);
  2243  0192  0835               	movf	vfpfcnvrt@fmt,w
  2244  0193  0086               	movwf	6
  2245  0194  0187               	clrf	7
  2246  0195  3F40               	moviw [0]fsr1
  2247  0196  00B7               	movwf	??_vfpfcnvrt
  2248  0197  3F41               	moviw [1]fsr1
  2249  0198  00B8               	movwf	??_vfpfcnvrt+1
  2250  0199  0837               	movf	??_vfpfcnvrt,w
  2251  019A  0084               	movwf	4
  2252  019B  0838               	movf	??_vfpfcnvrt+1,w
  2253  019C  0085               	movwf	5
  2254  019D  0800               	movf	0,w	;code access
  2255  019E  00B9               	movwf	??_vfpfcnvrt+2
  2256  019F  01BA               	clrf	??_vfpfcnvrt+3
  2257  01A0  0839               	movf	??_vfpfcnvrt+2,w
  2258  01A1  00F2               	movwf	fputc@c
  2259  01A2  083A               	movf	??_vfpfcnvrt+3,w
  2260  01A3  00F3               	movwf	fputc@c+1
  2261  01A4  083E               	movf	vfpfcnvrt@fp,w
  2262  01A5  00BB               	movwf	??_vfpfcnvrt+4
  2263  01A6  083B               	movf	??_vfpfcnvrt+4,w
  2264  01A7  00F4               	movwf	fputc@fp
  2265  01A8  3182  2202  3181   	fcall	_fputc
  2266  01AB                     l1146:
  2267                           
  2268                           ;/Applications/microchip/xc8/v2.20/pic/sources/c99/common/doprnt.c: 1363:     ++*fmt;
  2269  01AB  0140               	movlb	0	; select bank0
  2270  01AC  0835               	movf	vfpfcnvrt@fmt,w
  2271  01AD  0086               	movwf	6
  2272  01AE  0187               	clrf	7
  2273  01AF  3001               	movlw	1
  2274  01B0  0781               	addwf	1,f
  2275  01B1  3141               	addfsr 1,1
  2276  01B2  1803               	skipnc
  2277  01B3  0A81               	incf	1,f
  2278  01B4  2981               	goto	l1134
  2279  01B5                     l781:
  2280  01B5  0008               	return
  2281  01B6                     __end_of_vfpfcnvrt:
  2282                           
  2283                           	psect	text5
  2284  003B                     __ptext5:	
  2285 ;; *************** function _stoa *****************
  2286 ;; Defined at:
  2287 ;;		line 546 in file "/Applications/microchip/xc8/v2.20/pic/sources/c99/common/doprnt.c"
  2288 ;; Parameters:    Size  Location     Type
  2289 ;;  fp              1    wreg     PTR struct _IO_FILE
  2290 ;;		 -> NULL(0), 
  2291 ;;  s               2   10[COMMON] PTR unsigned char 
  2292 ;;		 -> ?_printf(2), CompileTime(9), CompileDate(12), Version(6), 
  2293 ;;		 -> Project(18), 
  2294 ;; Auto vars:     Size  Location     Type
  2295 ;;  fp              1   16[BANK0 ] PTR struct _IO_FILE
  2296 ;;		 -> NULL(0), 
  2297 ;;  nuls            7    3[BANK0 ] unsigned char [7]
  2298 ;;  l               2   19[BANK0 ] int 
  2299 ;;  p               2   17[BANK0 ] int 
  2300 ;;  cp              2   14[BANK0 ] PTR unsigned char 
  2301 ;;		 -> stoa@nuls(7), ?_printf(2), CompileTime(9), CompileDate(12), 
  2302 ;;		 -> Version(6), Project(18), 
  2303 ;;  w               2   12[BANK0 ] int 
  2304 ;;  i               2   10[BANK0 ] int 
  2305 ;; Return value:  Size  Location     Type
  2306 ;;                  2   10[COMMON] int 
  2307 ;; Registers used:
  2308 ;;		wreg, fsr0l, fsr0h, fsr1l, fsr1h, status,2, status,0, pclath, cstack
  2309 ;; Tracked objects:
  2310 ;;		On entry : 0/0
  2311 ;;		On exit  : 0/0
  2312 ;;		Unchanged: 0/0
  2313 ;; Data sizes:     COMMON   BANK0   BANK1   BANK2   BANK3   BANK4   BANK5   BANK6   BANK7   BANK8   BANK9  BANK10  BANK1
      +1  BANK12  BANK13  BANK14  BANK15  BANK16  BANK17  BANK18  BANK19  BANK20  BANK21  BANK22  BANK23  BANK24  BANK25  BANK2
      +6  BANK27  BANK28  BANK29  BANK30  BANK31  BANK32  BANK33  BANK34  BANK35  BANK36  BANK37  BANK38  BANK39  BANK40  BANK4
      +1  BANK42  BANK43  BANK44  BANK45  BANK46  BANK47  BANK48  BANK49  BANK50
  2314 ;;      Params:         2       0       0       0       0       0       0       0       0       0       0       0       
      +0       0       0       0       0       0       0       0       0       0       0       0       0       0       0       
      +0       0       0       0       0       0       0       0       0       0       0       0       0       0       0       
      +0       0       0       0       0       0       0       0       0       0
  2315 ;;      Locals:         0      18       0       0       0       0       0       0       0       0       0       0       
      +0       0       0       0       0       0       0       0       0       0       0       0       0       0       0       
      +0       0       0       0       0       0       0       0       0       0       0       0       0       0       0       
      +0       0       0       0       0       0       0       0       0       0
  2316 ;;      Temps:          0       3       0       0       0       0       0       0       0       0       0       0       
      +0       0       0       0       0       0       0       0       0       0       0       0       0       0       0       
      +0       0       0       0       0       0       0       0       0       0       0       0       0       0       0       
      +0       0       0       0       0       0       0       0       0       0
  2317 ;;      Totals:         2      21       0       0       0       0       0       0       0       0       0       0       
      +0       0       0       0       0       0       0       0       0       0       0       0       0       0       0       
      +0       0       0       0       0       0       0       0       0       0       0       0       0       0       0       
      +0       0       0       0       0       0       0       0       0       0
  2318 ;;Total ram usage:       23 bytes
  2319 ;; Hardware stack levels used:    1
  2320 ;; Hardware stack levels required when called:    3
  2321 ;; This function calls:
  2322 ;;		_fputc
  2323 ;;		_strlen
  2324 ;; This function is called by:
  2325 ;;		_vfpfcnvrt
  2326 ;; This function uses a non-reentrant model
  2327 ;;
  2328                           
  2329                           
  2330                           ;psect for function _stoa
  2331  003B                     _stoa:
  2332                           
  2333                           ;incstack = 0
  2334                           ; Regs used in _stoa: [wreg-fsr1h+status,2+status,0+pclath+cstack]
  2335                           ;stoa@fp stored from wreg
  2336  003B  0140               	movlb	0	; select bank0
  2337  003C  00B0               	movwf	stoa@fp
  2338  003D                     l1060:
  2339                           
  2340                           ;/Applications/microchip/xc8/v2.20/pic/sources/c99/common/doprnt.c: 546: static int stoa
      +                          (FILE *fp, char *s);/Applications/microchip/xc8/v2.20/pic/sources/c99/common/doprnt.c: 5
      +                          47: {;/Applications/microchip/xc8/v2.20/pic/sources/c99/common/doprnt.c: 548:     char *
      +                          cp, nuls[] = "(null)";
  2341  003D  3056               	movlw	low stoa@F1131
  2342  003E  0086               	movwf	6
  2343  003F  3000               	movlw	high stoa@F1131
  2344  0040  0087               	movwf	7
  2345  0041  3023               	movlw	low stoa@nuls
  2346  0042  0084               	movwf	4
  2347  0043  3000               	movlw	high stoa@nuls
  2348  0044  0085               	movwf	5
  2349  0045  3007               	movlw	7
  2350  0046  00A0               	movwf	??_stoa
  2351  0047                     u260:
  2352  0047  0016               	moviw fsr1++
  2353  0048  001A               	movwi fsr0++
  2354  0049  0BA0               	decfsz	??_stoa,f
  2355  004A  2847               	goto	u260
  2356  004B                     l1062:
  2357                           
  2358                           ;/Applications/microchip/xc8/v2.20/pic/sources/c99/common/doprnt.c: 549:     int i, l, p
      +                          , w;;/Applications/microchip/xc8/v2.20/pic/sources/c99/common/doprnt.c: 552:     cp = s;
  2359  004B  087B               	movf	stoa@s+1,w
  2360  004C  00AF               	movwf	stoa@cp+1
  2361  004D  087A               	movf	stoa@s,w
  2362  004E  00AE               	movwf	stoa@cp
  2363  004F                     l1064:
  2364                           
  2365                           ;/Applications/microchip/xc8/v2.20/pic/sources/c99/common/doprnt.c: 553:     if (!cp) {
  2366  004F  082E               	movf	stoa@cp,w
  2367  0050  042F               	iorwf	stoa@cp+1,w
  2368  0051  1D03               	btfss	3,2
  2369  0052  2854               	goto	u271
  2370  0053  2855               	goto	u270
  2371  0054                     u271:
  2372  0054  2859               	goto	l1068
  2373  0055                     u270:
  2374  0055                     l1066:
  2375                           
  2376                           ;/Applications/microchip/xc8/v2.20/pic/sources/c99/common/doprnt.c: 554:         cp = nu
      +                          ls;
  2377  0055  3023               	movlw	low stoa@nuls
  2378  0056  00AE               	movwf	stoa@cp
  2379  0057  3000               	movlw	high stoa@nuls
  2380  0058  00AF               	movwf	stoa@cp+1
  2381  0059                     l1068:
  2382                           
  2383                           ;/Applications/microchip/xc8/v2.20/pic/sources/c99/common/doprnt.c: 558:     l = strlen(
      +                          cp);
  2384  0059  082F               	movf	stoa@cp+1,w
  2385  005A  00F2               	movwf	strlen@s+1
  2386  005B  082E               	movf	stoa@cp,w
  2387  005C  00F1               	movwf	strlen@s
  2388  005D  3182  22BA  3180   	fcall	_strlen
  2389  0060  0872               	movf	?_strlen+1,w
  2390  0061  0140               	movlb	0	; select bank0
  2391  0062  00B4               	movwf	stoa@l+1
  2392  0063  0871               	movf	?_strlen,w
  2393  0064  00B3               	movwf	stoa@l
  2394  0065                     l1070:
  2395                           
  2396                           ;/Applications/microchip/xc8/v2.20/pic/sources/c99/common/doprnt.c: 559:     p = prec;
  2397  0065  0853               	movf	_prec+1,w
  2398  0066  00B2               	movwf	stoa@p+1
  2399  0067  0852               	movf	_prec,w
  2400  0068  00B1               	movwf	stoa@p
  2401  0069                     l1072:
  2402                           
  2403                           ;/Applications/microchip/xc8/v2.20/pic/sources/c99/common/doprnt.c: 560:     l = (!(p < 
      +                          0) && (p < l)) ? p : l;
  2404  0069  1BB2               	btfsc	stoa@p+1,7
  2405  006A  286C               	goto	u281
  2406  006B  286D               	goto	u280
  2407  006C                     u281:
  2408  006C  2881               	goto	l762
  2409  006D                     u280:
  2410  006D                     l1074:
  2411  006D  0832               	movf	stoa@p+1,w
  2412  006E  3A80               	xorlw	128
  2413  006F  00A0               	movwf	??_stoa
  2414  0070  0834               	movf	stoa@l+1,w
  2415  0071  3A80               	xorlw	128
  2416  0072  0220               	subwf	??_stoa,w
  2417  0073  1D03               	skipz
  2418  0074  2877               	goto	u295
  2419  0075  0833               	movf	stoa@l,w
  2420  0076  0231               	subwf	stoa@p,w
  2421  0077                     u295:
  2422  0077  1C03               	skipc
  2423  0078  287A               	goto	u291
  2424  0079  287B               	goto	u290
  2425  007A                     u291:
  2426  007A  287C               	goto	l1076
  2427  007B                     u290:
  2428  007B  2881               	goto	l762
  2429  007C                     l1076:
  2430  007C  0140               	movlb	0	; select bank0
  2431  007D  0832               	movf	stoa@p+1,w
  2432  007E  00B4               	movwf	stoa@l+1
  2433  007F  0831               	movf	stoa@p,w
  2434  0080  00B3               	movwf	stoa@l
  2435  0081                     l762:
  2436                           
  2437                           ;/Applications/microchip/xc8/v2.20/pic/sources/c99/common/doprnt.c: 561:     p = l;
  2438  0081  0140               	movlb	0	; select bank0
  2439  0082  0834               	movf	stoa@l+1,w
  2440  0083  00B2               	movwf	stoa@p+1
  2441  0084  0833               	movf	stoa@l,w
  2442  0085  00B1               	movwf	stoa@p
  2443                           
  2444                           ;/Applications/microchip/xc8/v2.20/pic/sources/c99/common/doprnt.c: 562:     w = width;
  2445  0086  0851               	movf	_width+1,w
  2446  0087  00AD               	movwf	stoa@w+1
  2447  0088  0850               	movf	_width,w
  2448  0089  00AC               	movwf	stoa@w
  2449  008A                     l1078:
  2450                           
  2451                           ;/Applications/microchip/xc8/v2.20/pic/sources/c99/common/doprnt.c: 565:     if (!(flags
      +                           & (1 << 0))) {
  2452  008A  1854               	btfsc	_flags,0
  2453  008B  288D               	goto	u301
  2454  008C  288E               	goto	u300
  2455  008D                     u301:
  2456  008D  28AE               	goto	l1088
  2457  008E                     u300:
  2458  008E  28A0               	goto	l1086
  2459  008F                     l1082:
  2460                           
  2461                           ;/Applications/microchip/xc8/v2.20/pic/sources/c99/common/doprnt.c: 567:             fpu
      +                          tc(' ', fp);
  2462  008F  3020               	movlw	32
  2463  0090  00F2               	movwf	fputc@c
  2464  0091  3000               	movlw	0
  2465  0092  00F3               	movwf	fputc@c+1
  2466  0093  0140               	movlb	0	; select bank0
  2467  0094  0830               	movf	stoa@fp,w
  2468  0095  00A0               	movwf	??_stoa
  2469  0096  0820               	movf	??_stoa,w
  2470  0097  00F4               	movwf	fputc@fp
  2471  0098  3182  2202  3180   	fcall	_fputc
  2472  009B                     l1084:
  2473                           
  2474                           ;/Applications/microchip/xc8/v2.20/pic/sources/c99/common/doprnt.c: 568:             ++l
      +                          ;
  2475  009B  3001               	movlw	1
  2476  009C  0140               	movlb	0	; select bank0
  2477  009D  07B3               	addwf	stoa@l,f
  2478  009E  3000               	movlw	0
  2479  009F  3DB4               	addwfc	stoa@l+1,f
  2480  00A0                     l1086:
  2481                           
  2482                           ;/Applications/microchip/xc8/v2.20/pic/sources/c99/common/doprnt.c: 566:         while (
      +                          l < w) {
  2483  00A0  0834               	movf	stoa@l+1,w
  2484  00A1  3A80               	xorlw	128
  2485  00A2  00A0               	movwf	??_stoa
  2486  00A3  082D               	movf	stoa@w+1,w
  2487  00A4  3A80               	xorlw	128
  2488  00A5  0220               	subwf	??_stoa,w
  2489  00A6  1D03               	skipz
  2490  00A7  28AA               	goto	u315
  2491  00A8  082C               	movf	stoa@w,w
  2492  00A9  0233               	subwf	stoa@l,w
  2493  00AA                     u315:
  2494  00AA  1C03               	skipc
  2495  00AB  28AD               	goto	u311
  2496  00AC  28AE               	goto	u310
  2497  00AD                     u311:
  2498  00AD  288F               	goto	l1082
  2499  00AE                     u310:
  2500  00AE                     l1088:
  2501                           
  2502                           ;/Applications/microchip/xc8/v2.20/pic/sources/c99/common/doprnt.c: 573:     i = 0;
  2503  00AE  0140               	movlb	0	; select bank0
  2504  00AF  01AA               	clrf	stoa@i
  2505  00B0  01AB               	clrf	stoa@i+1
  2506                           
  2507                           ;/Applications/microchip/xc8/v2.20/pic/sources/c99/common/doprnt.c: 574:     while (i < 
      +                          p) {
  2508  00B1  28CE               	goto	l1096
  2509  00B2                     l1090:
  2510                           
  2511                           ;/Applications/microchip/xc8/v2.20/pic/sources/c99/common/doprnt.c: 575:         fputc(*
      +                          cp, fp);
  2512  00B2  0140               	movlb	0	; select bank0
  2513  00B3  082E               	movf	stoa@cp,w
  2514  00B4  0084               	movwf	4
  2515  00B5  082F               	movf	stoa@cp+1,w
  2516  00B6  0085               	movwf	5
  2517  00B7  0800               	movf	0,w	;code access
  2518  00B8  00A0               	movwf	??_stoa
  2519  00B9  01A1               	clrf	??_stoa+1
  2520  00BA  0820               	movf	??_stoa,w
  2521  00BB  00F2               	movwf	fputc@c
  2522  00BC  0821               	movf	??_stoa+1,w
  2523  00BD  00F3               	movwf	fputc@c+1
  2524  00BE  0830               	movf	stoa@fp,w
  2525  00BF  00A2               	movwf	??_stoa+2
  2526  00C0  0822               	movf	??_stoa+2,w
  2527  00C1  00F4               	movwf	fputc@fp
  2528  00C2  3182  2202  3180   	fcall	_fputc
  2529  00C5                     l1092:
  2530                           
  2531                           ;/Applications/microchip/xc8/v2.20/pic/sources/c99/common/doprnt.c: 576:         ++cp;
  2532  00C5  3001               	movlw	1
  2533  00C6  0140               	movlb	0	; select bank0
  2534  00C7  07AE               	addwf	stoa@cp,f
  2535  00C8  3000               	movlw	0
  2536  00C9  3DAF               	addwfc	stoa@cp+1,f
  2537  00CA                     l1094:
  2538                           
  2539                           ;/Applications/microchip/xc8/v2.20/pic/sources/c99/common/doprnt.c: 577:         ++i;
  2540  00CA  3001               	movlw	1
  2541  00CB  07AA               	addwf	stoa@i,f
  2542  00CC  3000               	movlw	0
  2543  00CD  3DAB               	addwfc	stoa@i+1,f
  2544  00CE                     l1096:
  2545                           
  2546                           ;/Applications/microchip/xc8/v2.20/pic/sources/c99/common/doprnt.c: 574:     while (i < 
      +                          p) {
  2547  00CE  082B               	movf	stoa@i+1,w
  2548  00CF  3A80               	xorlw	128
  2549  00D0  00A0               	movwf	??_stoa
  2550  00D1  0832               	movf	stoa@p+1,w
  2551  00D2  3A80               	xorlw	128
  2552  00D3  0220               	subwf	??_stoa,w
  2553  00D4  1D03               	skipz
  2554  00D5  28D8               	goto	u325
  2555  00D6  0831               	movf	stoa@p,w
  2556  00D7  022A               	subwf	stoa@i,w
  2557  00D8                     u325:
  2558  00D8  1C03               	skipc
  2559  00D9  28DB               	goto	u321
  2560  00DA  28DC               	goto	u320
  2561  00DB                     u321:
  2562  00DB  28B2               	goto	l1090
  2563  00DC                     u320:
  2564  00DC                     l771:
  2565                           
  2566                           ;/Applications/microchip/xc8/v2.20/pic/sources/c99/common/doprnt.c: 581:     if (flags &
      +                           (1 << 0)) {
  2567  00DC  0140               	movlb	0	; select bank0
  2568  00DD  1C54               	btfss	_flags,0
  2569  00DE  28E0               	goto	u331
  2570  00DF  28E1               	goto	u330
  2571  00E0                     u331:
  2572  00E0  2901               	goto	l1106
  2573  00E1                     u330:
  2574  00E1  28F3               	goto	l1104
  2575  00E2                     l1100:
  2576                           
  2577                           ;/Applications/microchip/xc8/v2.20/pic/sources/c99/common/doprnt.c: 583:             fpu
      +                          tc(' ', fp);
  2578  00E2  3020               	movlw	32
  2579  00E3  00F2               	movwf	fputc@c
  2580  00E4  3000               	movlw	0
  2581  00E5  00F3               	movwf	fputc@c+1
  2582  00E6  0140               	movlb	0	; select bank0
  2583  00E7  0830               	movf	stoa@fp,w
  2584  00E8  00A0               	movwf	??_stoa
  2585  00E9  0820               	movf	??_stoa,w
  2586  00EA  00F4               	movwf	fputc@fp
  2587  00EB  3182  2202  3180   	fcall	_fputc
  2588  00EE                     l1102:
  2589                           
  2590                           ;/Applications/microchip/xc8/v2.20/pic/sources/c99/common/doprnt.c: 584:             ++l
      +                          ;
  2591  00EE  3001               	movlw	1
  2592  00EF  0140               	movlb	0	; select bank0
  2593  00F0  07B3               	addwf	stoa@l,f
  2594  00F1  3000               	movlw	0
  2595  00F2  3DB4               	addwfc	stoa@l+1,f
  2596  00F3                     l1104:
  2597                           
  2598                           ;/Applications/microchip/xc8/v2.20/pic/sources/c99/common/doprnt.c: 582:         while (
      +                          l < w) {
  2599  00F3  0834               	movf	stoa@l+1,w
  2600  00F4  3A80               	xorlw	128
  2601  00F5  00A0               	movwf	??_stoa
  2602  00F6  082D               	movf	stoa@w+1,w
  2603  00F7  3A80               	xorlw	128
  2604  00F8  0220               	subwf	??_stoa,w
  2605  00F9  1D03               	skipz
  2606  00FA  28FD               	goto	u345
  2607  00FB  082C               	movf	stoa@w,w
  2608  00FC  0233               	subwf	stoa@l,w
  2609  00FD                     u345:
  2610  00FD  1C03               	skipc
  2611  00FE  2900               	goto	u341
  2612  00FF  2901               	goto	u340
  2613  0100                     u341:
  2614  0100  28E2               	goto	l1100
  2615  0101                     u340:
  2616  0101                     l1106:
  2617                           
  2618                           ;/Applications/microchip/xc8/v2.20/pic/sources/c99/common/doprnt.c: 588:     return l;
  2619  0101  0140               	movlb	0	; select bank0
  2620  0102  0834               	movf	stoa@l+1,w
  2621  0103  00FB               	movwf	?_stoa+1
  2622  0104  0833               	movf	stoa@l,w
  2623  0105  00FA               	movwf	?_stoa
  2624  0106                     l776:
  2625  0106  0008               	return
  2626  0107                     __end_of_stoa:
  2627                           
  2628                           	psect	text6
  2629  02BA                     __ptext6:	
  2630 ;; *************** function _strlen *****************
  2631 ;; Defined at:
  2632 ;;		line 5 in file "/Applications/microchip/xc8/v2.20/pic/sources/c99/common/strlen.c"
  2633 ;; Parameters:    Size  Location     Type
  2634 ;;  s               2    1[COMMON] PTR const unsigned char 
  2635 ;;		 -> stoa@nuls(7), ?_printf(2), CompileTime(9), CompileDate(12), 
  2636 ;;		 -> Version(6), Project(18), 
  2637 ;; Auto vars:     Size  Location     Type
  2638 ;;  a               2    4[COMMON] PTR const unsigned char 
  2639 ;;		 -> stoa@nuls(7), ?_printf(2), CompileTime(9), CompileDate(12), 
  2640 ;;		 -> Version(6), Project(18), 
  2641 ;; Return value:  Size  Location     Type
  2642 ;;                  2    1[COMMON] unsigned int 
  2643 ;; Registers used:
  2644 ;;		wreg, fsr0l, fsr0h, status,2, status,0
  2645 ;; Tracked objects:
  2646 ;;		On entry : 0/0
  2647 ;;		On exit  : 0/0
  2648 ;;		Unchanged: 0/0
  2649 ;; Data sizes:     COMMON   BANK0   BANK1   BANK2   BANK3   BANK4   BANK5   BANK6   BANK7   BANK8   BANK9  BANK10  BANK1
      +1  BANK12  BANK13  BANK14  BANK15  BANK16  BANK17  BANK18  BANK19  BANK20  BANK21  BANK22  BANK23  BANK24  BANK25  BANK2
      +6  BANK27  BANK28  BANK29  BANK30  BANK31  BANK32  BANK33  BANK34  BANK35  BANK36  BANK37  BANK38  BANK39  BANK40  BANK4
      +1  BANK42  BANK43  BANK44  BANK45  BANK46  BANK47  BANK48  BANK49  BANK50
  2650 ;;      Params:         2       0       0       0       0       0       0       0       0       0       0       0       
      +0       0       0       0       0       0       0       0       0       0       0       0       0       0       0       
      +0       0       0       0       0       0       0       0       0       0       0       0       0       0       0       
      +0       0       0       0       0       0       0       0       0       0
  2651 ;;      Locals:         2       0       0       0       0       0       0       0       0       0       0       0       
      +0       0       0       0       0       0       0       0       0       0       0       0       0       0       0       
      +0       0       0       0       0       0       0       0       0       0       0       0       0       0       0       
      +0       0       0       0       0       0       0       0       0       0
  2652 ;;      Temps:          1       0       0       0       0       0       0       0       0       0       0       0       
      +0       0       0       0       0       0       0       0       0       0       0       0       0       0       0       
      +0       0       0       0       0       0       0       0       0       0       0       0       0       0       0       
      +0       0       0       0       0       0       0       0       0       0
  2653 ;;      Totals:         5       0       0       0       0       0       0       0       0       0       0       0       
      +0       0       0       0       0       0       0       0       0       0       0       0       0       0       0       
      +0       0       0       0       0       0       0       0       0       0       0       0       0       0       0       
      +0       0       0       0       0       0       0       0       0       0
  2654 ;;Total ram usage:        5 bytes
  2655 ;; Hardware stack levels used:    1
  2656 ;; Hardware stack levels required when called:    1
  2657 ;; This function calls:
  2658 ;;		Nothing
  2659 ;; This function is called by:
  2660 ;;		_stoa
  2661 ;; This function uses a non-reentrant model
  2662 ;;
  2663                           
  2664                           
  2665                           ;psect for function _strlen
  2666  02BA                     _strlen:
  2667  02BA                     l1050:	
  2668                           ;incstack = 0
  2669                           ; Regs used in _strlen: [wreg-fsr0h+status,2+status,0]
  2670                           
  2671  02BA  0872               	movf	strlen@s+1,w
  2672  02BB  00F5               	movwf	strlen@a+1
  2673  02BC  0871               	movf	strlen@s,w
  2674  02BD  00F4               	movwf	strlen@a
  2675  02BE  2AC3               	goto	l1054
  2676  02BF                     l1052:
  2677  02BF  3001               	movlw	1
  2678  02C0  07F1               	addwf	strlen@s,f
  2679  02C1  3000               	movlw	0
  2680  02C2  3DF2               	addwfc	strlen@s+1,f
  2681  02C3                     l1054:
  2682  02C3  0871               	movf	strlen@s,w
  2683  02C4  0084               	movwf	4
  2684  02C5  0872               	movf	strlen@s+1,w
  2685  02C6  0085               	movwf	5
  2686  02C7  0012               	moviw fsr0++
  2687  02C8  1D03               	btfss	3,2
  2688  02C9  2ACB               	goto	u251
  2689  02CA  2ACC               	goto	u250
  2690  02CB                     u251:
  2691  02CB  2ABF               	goto	l1052
  2692  02CC                     u250:
  2693  02CC                     l1056:
  2694  02CC  0874               	movf	strlen@a,w
  2695  02CD  0271               	subwf	strlen@s,w
  2696  02CE  00F1               	movwf	?_strlen
  2697  02CF  0875               	movf	strlen@a+1,w
  2698  02D0  3B72               	subwfb	strlen@s+1,w
  2699  02D1  00F2               	movwf	?_strlen+1
  2700  02D2                     l814:
  2701  02D2  0008               	return
  2702  02D3                     __end_of_strlen:
  2703                           
  2704                           	psect	text7
  2705  0202                     __ptext7:	
  2706 ;; *************** function _fputc *****************
  2707 ;; Defined at:
  2708 ;;		line 8 in file "/Applications/microchip/xc8/v2.20/pic/sources/c99/common/nf_fputc.c"
  2709 ;; Parameters:    Size  Location     Type
  2710 ;;  c               2    2[COMMON] int 
  2711 ;;  fp              1    4[COMMON] PTR struct _IO_FILE
  2712 ;;		 -> NULL(0), 
  2713 ;; Auto vars:     Size  Location     Type
  2714 ;;		None
  2715 ;; Return value:  Size  Location     Type
  2716 ;;                  2    2[COMMON] int 
  2717 ;; Registers used:
  2718 ;;		wreg, fsr1l, fsr1h, status,2, status,0, pclath, cstack
  2719 ;; Tracked objects:
  2720 ;;		On entry : 0/0
  2721 ;;		On exit  : 0/0
  2722 ;;		Unchanged: 0/0
  2723 ;; Data sizes:     COMMON   BANK0   BANK1   BANK2   BANK3   BANK4   BANK5   BANK6   BANK7   BANK8   BANK9  BANK10  BANK1
      +1  BANK12  BANK13  BANK14  BANK15  BANK16  BANK17  BANK18  BANK19  BANK20  BANK21  BANK22  BANK23  BANK24  BANK25  BANK2
      +6  BANK27  BANK28  BANK29  BANK30  BANK31  BANK32  BANK33  BANK34  BANK35  BANK36  BANK37  BANK38  BANK39  BANK40  BANK4
      +1  BANK42  BANK43  BANK44  BANK45  BANK46  BANK47  BANK48  BANK49  BANK50
  2724 ;;      Params:         3       0       0       0       0       0       0       0       0       0       0       0       
      +0       0       0       0       0       0       0       0       0       0       0       0       0       0       0       
      +0       0       0       0       0       0       0       0       0       0       0       0       0       0       0       
      +0       0       0       0       0       0       0       0       0       0
  2725 ;;      Locals:         0       0       0       0       0       0       0       0       0       0       0       0       
      +0       0       0       0       0       0       0       0       0       0       0       0       0       0       0       
      +0       0       0       0       0       0       0       0       0       0       0       0       0       0       0       
      +0       0       0       0       0       0       0       0       0       0
  2726 ;;      Temps:          5       0       0       0       0       0       0       0       0       0       0       0       
      +0       0       0       0       0       0       0       0       0       0       0       0       0       0       0       
      +0       0       0       0       0       0       0       0       0       0       0       0       0       0       0       
      +0       0       0       0       0       0       0       0       0       0
  2727 ;;      Totals:         8       0       0       0       0       0       0       0       0       0       0       0       
      +0       0       0       0       0       0       0       0       0       0       0       0       0       0       0       
      +0       0       0       0       0       0       0       0       0       0       0       0       0       0       0       
      +0       0       0       0       0       0       0       0       0       0
  2728 ;;Total ram usage:        8 bytes
  2729 ;; Hardware stack levels used:    1
  2730 ;; Hardware stack levels required when called:    2
  2731 ;; This function calls:
  2732 ;;		_putch
  2733 ;; This function is called by:
  2734 ;;		_stoa
  2735 ;;		_vfpfcnvrt
  2736 ;; This function uses a non-reentrant model
  2737 ;;
  2738                           
  2739                           
  2740                           ;psect for function _fputc
  2741  0202                     _fputc:
  2742  0202                     l1036:	
  2743                           ;incstack = 0
  2744                           ; Regs used in _fputc: [wreg+fsr1l+fsr1h+status,2+status,0+pclath+cstack]
  2745                           
  2746  0202  0874               	movf	fputc@fp,w
  2747  0203  1903               	btfsc	3,2
  2748  0204  2A06               	goto	u211
  2749  0205  2A07               	goto	u210
  2750  0206                     u211:
  2751  0206  2A0C               	goto	l1040
  2752  0207                     u210:
  2753  0207                     l1038:
  2754  0207  0874               	movf	fputc@fp,w
  2755  0208  1D03               	btfss	3,2
  2756  0209  2A0B               	goto	u221
  2757  020A  2A0C               	goto	u220
  2758  020B                     u221:
  2759  020B  2A11               	goto	l1042
  2760  020C                     u220:
  2761  020C                     l1040:
  2762  020C  0872               	movf	fputc@c,w
  2763  020D  3183  235B  3182   	fcall	_putch
  2764  0210  2A40               	goto	l800
  2765  0211                     l1042:
  2766  0211  0874               	movf	fputc@fp,w
  2767  0212  3E03               	addlw	3
  2768  0213  0086               	movwf	6
  2769  0214  0187               	clrf	7
  2770  0215  0016               	moviw fsr1++
  2771  0216  0401               	iorwf	1,w
  2772  0217  1903               	btfsc	3,2
  2773  0218  2A1A               	goto	u231
  2774  0219  2A1B               	goto	u230
  2775  021A                     u231:
  2776  021A  2A38               	goto	l1046
  2777  021B                     u230:
  2778  021B                     l1044:
  2779  021B  0874               	movf	fputc@fp,w
  2780  021C  3E03               	addlw	3
  2781  021D  0086               	movwf	6
  2782  021E  0187               	clrf	7
  2783  021F  3F40               	moviw [0]fsr1
  2784  0220  00F5               	movwf	??_fputc
  2785  0221  3F41               	moviw [1]fsr1
  2786  0222  00F6               	movwf	??_fputc+1
  2787  0223  0A74               	incf	fputc@fp,w
  2788  0224  0086               	movwf	6
  2789  0225  0187               	clrf	7
  2790  0226  3F40               	moviw [0]fsr1
  2791  0227  00F7               	movwf	??_fputc+2
  2792  0228  3F41               	moviw [1]fsr1
  2793  0229  00F8               	movwf	??_fputc+3
  2794  022A  0878               	movf	??_fputc+3,w
  2795  022B  3A80               	xorlw	128
  2796  022C  00F9               	movwf	??_fputc+4
  2797  022D  0876               	movf	??_fputc+1,w
  2798  022E  3A80               	xorlw	128
  2799  022F  0279               	subwf	??_fputc+4,w
  2800  0230  1D03               	skipz
  2801  0231  2A34               	goto	u245
  2802  0232  0875               	movf	??_fputc,w
  2803  0233  0277               	subwf	??_fputc+2,w
  2804  0234                     u245:
  2805  0234  1803               	skipnc
  2806  0235  2A37               	goto	u241
  2807  0236  2A38               	goto	u240
  2808  0237                     u241:
  2809  0237  2A40               	goto	l800
  2810  0238                     u240:
  2811  0238                     l1046:
  2812  0238  0A74               	incf	fputc@fp,w
  2813  0239  0086               	movwf	6
  2814  023A  0187               	clrf	7
  2815  023B  3001               	movlw	1
  2816  023C  0781               	addwf	1,f
  2817  023D  3141               	addfsr 1,1
  2818  023E  1803               	skipnc
  2819  023F  0A81               	incf	1,f
  2820  0240                     l800:
  2821  0240  0008               	return
  2822  0241                     __end_of_fputc:
  2823                           
  2824                           	psect	text8
  2825  035B                     __ptext8:	
  2826 ;; *************** function _putch *****************
  2827 ;; Defined at:
  2828 ;;		line 391 in file "main.c"
  2829 ;; Parameters:    Size  Location     Type
  2830 ;;  c               1    wreg     unsigned char 
  2831 ;; Auto vars:     Size  Location     Type
  2832 ;;  c               1    1[COMMON] unsigned char 
  2833 ;; Return value:  Size  Location     Type
  2834 ;;                  1    wreg      void 
  2835 ;; Registers used:
  2836 ;;		wreg
  2837 ;; Tracked objects:
  2838 ;;		On entry : 0/0
  2839 ;;		On exit  : 0/0
  2840 ;;		Unchanged: 0/0
  2841 ;; Data sizes:     COMMON   BANK0   BANK1   BANK2   BANK3   BANK4   BANK5   BANK6   BANK7   BANK8   BANK9  BANK10  BANK1
      +1  BANK12  BANK13  BANK14  BANK15  BANK16  BANK17  BANK18  BANK19  BANK20  BANK21  BANK22  BANK23  BANK24  BANK25  BANK2
      +6  BANK27  BANK28  BANK29  BANK30  BANK31  BANK32  BANK33  BANK34  BANK35  BANK36  BANK37  BANK38  BANK39  BANK40  BANK4
      +1  BANK42  BANK43  BANK44  BANK45  BANK46  BANK47  BANK48  BANK49  BANK50
  2842 ;;      Params:         0       0       0       0       0       0       0       0       0       0       0       0       
      +0       0       0       0       0       0       0       0       0       0       0       0       0       0       0       
      +0       0       0       0       0       0       0       0       0       0       0       0       0       0       0       
      +0       0       0       0       0       0       0       0       0       0
  2843 ;;      Locals:         1       0       0       0       0       0       0       0       0       0       0       0       
      +0       0       0       0       0       0       0       0       0       0       0       0       0       0       0       
      +0       0       0       0       0       0       0       0       0       0       0       0       0       0       0       
      +0       0       0       0       0       0       0       0       0       0
  2844 ;;      Temps:          0       0       0       0       0       0       0       0       0       0       0       0       
      +0       0       0       0       0       0       0       0       0       0       0       0       0       0       0       
      +0       0       0       0       0       0       0       0       0       0       0       0       0       0       0       
      +0       0       0       0       0       0       0       0       0       0
  2845 ;;      Totals:         1       0       0       0       0       0       0       0       0       0       0       0       
      +0       0       0       0       0       0       0       0       0       0       0       0       0       0       0       
      +0       0       0       0       0       0       0       0       0       0       0       0       0       0       0       
      +0       0       0       0       0       0       0       0       0       0
  2846 ;;Total ram usage:        1 bytes
  2847 ;; Hardware stack levels used:    1
  2848 ;; Hardware stack levels required when called:    1
  2849 ;; This function calls:
  2850 ;;		Nothing
  2851 ;; This function is called by:
  2852 ;;		_fputc
  2853 ;; This function uses a non-reentrant model
  2854 ;;
  2855                           
  2856                           
  2857                           ;psect for function _putch
  2858  035B                     _putch:
  2859                           
  2860                           ;incstack = 0
  2861                           ; Regs used in _putch: [wreg]
  2862                           ;putch@c stored from wreg
  2863  035B  00F1               	movwf	putch@c
  2864  035C                     l1032:
  2865  035C                     l97:	
  2866                           ;main.c: 392:     while(!TX1STAbits.TRMT);
  2867                           
  2868  035C  0142               	movlb	2	; select bank2
  2869  035D  1C9E               	btfss	30,1	;volatile
  2870  035E  2B60               	goto	u201
  2871  035F  2B61               	goto	u200
  2872  0360                     u201:
  2873  0360  2B5C               	goto	l97
  2874  0361                     u200:
  2875  0361                     l1034:
  2876                           
  2877                           ;main.c: 393:     TX1REG = c;
  2878  0361  0871               	movf	putch@c,w
  2879  0362  009A               	movwf	26	;volatile
  2880  0363                     l100:
  2881  0363  0008               	return
  2882  0364                     __end_of_putch:
  2883                           
  2884                           	psect	text9
  2885  02D3                     __ptext9:	
  2886 ;; *************** function _UartConfig *****************
  2887 ;; Defined at:
  2888 ;;		line 324 in file "main.c"
  2889 ;; Parameters:    Size  Location     Type
  2890 ;;		None
  2891 ;; Auto vars:     Size  Location     Type
  2892 ;;		None
  2893 ;; Return value:  Size  Location     Type
  2894 ;;                  1    wreg      void 
  2895 ;; Registers used:
  2896 ;;		wreg, status,2
  2897 ;; Tracked objects:
  2898 ;;		On entry : 0/0
  2899 ;;		On exit  : 0/0
  2900 ;;		Unchanged: 0/0
  2901 ;; Data sizes:     COMMON   BANK0   BANK1   BANK2   BANK3   BANK4   BANK5   BANK6   BANK7   BANK8   BANK9  BANK10  BANK1
      +1  BANK12  BANK13  BANK14  BANK15  BANK16  BANK17  BANK18  BANK19  BANK20  BANK21  BANK22  BANK23  BANK24  BANK25  BANK2
      +6  BANK27  BANK28  BANK29  BANK30  BANK31  BANK32  BANK33  BANK34  BANK35  BANK36  BANK37  BANK38  BANK39  BANK40  BANK4
      +1  BANK42  BANK43  BANK44  BANK45  BANK46  BANK47  BANK48  BANK49  BANK50
  2902 ;;      Params:         0       0       0       0       0       0       0       0       0       0       0       0       
      +0       0       0       0       0       0       0       0       0       0       0       0       0       0       0       
      +0       0       0       0       0       0       0       0       0       0       0       0       0       0       0       
      +0       0       0       0       0       0       0       0       0       0
  2903 ;;      Locals:         0       0       0       0       0       0       0       0       0       0       0       0       
      +0       0       0       0       0       0       0       0       0       0       0       0       0       0       0       
      +0       0       0       0       0       0       0       0       0       0       0       0       0       0       0       
      +0       0       0       0       0       0       0       0       0       0
  2904 ;;      Temps:          0       0       0       0       0       0       0       0       0       0       0       0       
      +0       0       0       0       0       0       0       0       0       0       0       0       0       0       0       
      +0       0       0       0       0       0       0       0       0       0       0       0       0       0       0       
      +0       0       0       0       0       0       0       0       0       0
  2905 ;;      Totals:         0       0       0       0       0       0       0       0       0       0       0       0       
      +0       0       0       0       0       0       0       0       0       0       0       0       0       0       0       
      +0       0       0       0       0       0       0       0       0       0       0       0       0       0       0       
      +0       0       0       0       0       0       0       0       0       0
  2906 ;;Total ram usage:        0 bytes
  2907 ;; Hardware stack levels used:    1
  2908 ;; Hardware stack levels required when called:    1
  2909 ;; This function calls:
  2910 ;;		Nothing
  2911 ;; This function is called by:
  2912 ;;		_Initiallize
  2913 ;; This function uses a non-reentrant model
  2914 ;;
  2915                           
  2916                           
  2917                           ;psect for function _UartConfig
  2918  02D3                     _UartConfig:
  2919  02D3                     l956:	
  2920                           ;incstack = 0
  2921                           ; Regs used in _UartConfig: [wreg+status,2]
  2922                           
  2923                           
  2924                           ;main.c: 331:     RC1STAbits.SPEN = 0;
  2925  02D3  0142               	movlb	2	; select bank2
  2926  02D4  139D               	bcf	29,7	;volatile
  2927                           
  2928                           ;main.c: 332:     TX1STAbits.TXEN = 0;
  2929  02D5  129E               	bcf	30,5	;volatile
  2930                           
  2931                           ;main.c: 335:     PIR3bits.TX1IF = 0;
  2932  02D6  014E               	movlb	14	; select bank14
  2933  02D7  120F               	bcf	15,4	;volatile
  2934                           
  2935                           ;main.c: 336:     PIE3bits.TX1IE = 0;
  2936  02D8  1219               	bcf	25,4	;volatile
  2937                           
  2938                           ;main.c: 337:     PIR3bits.RC1IF = 0;
  2939  02D9  128F               	bcf	15,5	;volatile
  2940                           
  2941                           ;main.c: 338:     PIE3bits.RC1IE = 0;
  2942  02DA  1299               	bcf	25,5	;volatile
  2943                           
  2944                           ;main.c: 341:     TX1STAbits.SYNC = 0;
  2945  02DB  0142               	movlb	2	; select bank2
  2946  02DC  121E               	bcf	30,4	;volatile
  2947                           
  2948                           ;main.c: 342:     TX1STAbits.BRGH = 1;
  2949  02DD  151E               	bsf	30,2	;volatile
  2950                           
  2951                           ;main.c: 345:     RC1STAbits.CREN = 1;
  2952  02DE  161D               	bsf	29,4	;volatile
  2953                           
  2954                           ;main.c: 348:     BAUD1CONbits.BRG16 = 1;
  2955  02DF  159F               	bsf	31,3	;volatile
  2956  02E0                     l958:
  2957                           
  2958                           ;main.c: 349:     SP1BRGH = 0x00;
  2959  02E0  019C               	clrf	28	;volatile
  2960  02E1                     l960:
  2961                           
  2962                           ;main.c: 350:     SP1BRGL = 0x44;
  2963  02E1  3044               	movlw	68
  2964  02E2  009B               	movwf	27	;volatile
  2965  02E3                     l962:
  2966                           
  2967                           ;main.c: 353:     RC1STAbits.SPEN = 1;
  2968  02E3  179D               	bsf	29,7	;volatile
  2969  02E4                     l964:
  2970                           
  2971                           ;main.c: 354:     TX1STAbits.TXEN = 1;
  2972  02E4  169E               	bsf	30,5	;volatile
  2973  02E5                     l94:
  2974  02E5  0008               	return
  2975  02E6                     __end_of_UartConfig:
  2976                           
  2977                           	psect	text10
  2978  037D                     __ptext10:	
  2979 ;; *************** function _SetPerformanceMode *****************
  2980 ;; Defined at:
  2981 ;;		line 132 in file "main.c"
  2982 ;; Parameters:    Size  Location     Type
  2983 ;;		None
  2984 ;; Auto vars:     Size  Location     Type
  2985 ;;		None
  2986 ;; Return value:  Size  Location     Type
  2987 ;;                  1    wreg      void 
  2988 ;; Registers used:
  2989 ;;		None
  2990 ;; Tracked objects:
  2991 ;;		On entry : 0/0
  2992 ;;		On exit  : 0/0
  2993 ;;		Unchanged: 0/0
  2994 ;; Data sizes:     COMMON   BANK0   BANK1   BANK2   BANK3   BANK4   BANK5   BANK6   BANK7   BANK8   BANK9  BANK10  BANK1
      +1  BANK12  BANK13  BANK14  BANK15  BANK16  BANK17  BANK18  BANK19  BANK20  BANK21  BANK22  BANK23  BANK24  BANK25  BANK2
      +6  BANK27  BANK28  BANK29  BANK30  BANK31  BANK32  BANK33  BANK34  BANK35  BANK36  BANK37  BANK38  BANK39  BANK40  BANK4
      +1  BANK42  BANK43  BANK44  BANK45  BANK46  BANK47  BANK48  BANK49  BANK50
  2995 ;;      Params:         0       0       0       0       0       0       0       0       0       0       0       0       
      +0       0       0       0       0       0       0       0       0       0       0       0       0       0       0       
      +0       0       0       0       0       0       0       0       0       0       0       0       0       0       0       
      +0       0       0       0       0       0       0       0       0       0
  2996 ;;      Locals:         0       0       0       0       0       0       0       0       0       0       0       0       
      +0       0       0       0       0       0       0       0       0       0       0       0       0       0       0       
      +0       0       0       0       0       0       0       0       0       0       0       0       0       0       0       
      +0       0       0       0       0       0       0       0       0       0
  2997 ;;      Temps:          0       0       0       0       0       0       0       0       0       0       0       0       
      +0       0       0       0       0       0       0       0       0       0       0       0       0       0       0       
      +0       0       0       0       0       0       0       0       0       0       0       0       0       0       0       
      +0       0       0       0       0       0       0       0       0       0
  2998 ;;      Totals:         0       0       0       0       0       0       0       0       0       0       0       0       
      +0       0       0       0       0       0       0       0       0       0       0       0       0       0       0       
      +0       0       0       0       0       0       0       0       0       0       0       0       0       0       0       
      +0       0       0       0       0       0       0       0       0       0
  2999 ;;Total ram usage:        0 bytes
  3000 ;; Hardware stack levels used:    1
  3001 ;; Hardware stack levels required when called:    1
  3002 ;; This function calls:
  3003 ;;		Nothing
  3004 ;; This function is called by:
  3005 ;;		_Initiallize
  3006 ;; This function uses a non-reentrant model
  3007 ;;
  3008                           
  3009                           
  3010                           ;psect for function _SetPerformanceMode
  3011  037D                     _SetPerformanceMode:
  3012  037D                     l88:	
  3013                           ;incstack = 0
  3014                           ; Regs used in _SetPerformanceMode: []
  3015                           
  3016  037D  0008               	return
  3017  037E                     __end_of_SetPerformanceMode:
  3018                           
  3019                           	psect	text11
  3020  0269                     __ptext11:	
  3021 ;; *************** function _PinConfig *****************
  3022 ;; Defined at:
  3023 ;;		line 221 in file "main.c"
  3024 ;; Parameters:    Size  Location     Type
  3025 ;;		None
  3026 ;; Auto vars:     Size  Location     Type
  3027 ;;		None
  3028 ;; Return value:  Size  Location     Type
  3029 ;;                  1    wreg      void 
  3030 ;; Registers used:
  3031 ;;		wreg
  3032 ;; Tracked objects:
  3033 ;;		On entry : 0/0
  3034 ;;		On exit  : 0/0
  3035 ;;		Unchanged: 0/0
  3036 ;; Data sizes:     COMMON   BANK0   BANK1   BANK2   BANK3   BANK4   BANK5   BANK6   BANK7   BANK8   BANK9  BANK10  BANK1
      +1  BANK12  BANK13  BANK14  BANK15  BANK16  BANK17  BANK18  BANK19  BANK20  BANK21  BANK22  BANK23  BANK24  BANK25  BANK2
      +6  BANK27  BANK28  BANK29  BANK30  BANK31  BANK32  BANK33  BANK34  BANK35  BANK36  BANK37  BANK38  BANK39  BANK40  BANK4
      +1  BANK42  BANK43  BANK44  BANK45  BANK46  BANK47  BANK48  BANK49  BANK50
  3037 ;;      Params:         0       0       0       0       0       0       0       0       0       0       0       0       
      +0       0       0       0       0       0       0       0       0       0       0       0       0       0       0       
      +0       0       0       0       0       0       0       0       0       0       0       0       0       0       0       
      +0       0       0       0       0       0       0       0       0       0
  3038 ;;      Locals:         0       0       0       0       0       0       0       0       0       0       0       0       
      +0       0       0       0       0       0       0       0       0       0       0       0       0       0       0       
      +0       0       0       0       0       0       0       0       0       0       0       0       0       0       0       
      +0       0       0       0       0       0       0       0       0       0
  3039 ;;      Temps:          0       0       0       0       0       0       0       0       0       0       0       0       
      +0       0       0       0       0       0       0       0       0       0       0       0       0       0       0       
      +0       0       0       0       0       0       0       0       0       0       0       0       0       0       0       
      +0       0       0       0       0       0       0       0       0       0
  3040 ;;      Totals:         0       0       0       0       0       0       0       0       0       0       0       0       
      +0       0       0       0       0       0       0       0       0       0       0       0       0       0       0       
      +0       0       0       0       0       0       0       0       0       0       0       0       0       0       0       
      +0       0       0       0       0       0       0       0       0       0
  3041 ;;Total ram usage:        0 bytes
  3042 ;; Hardware stack levels used:    1
  3043 ;; Hardware stack levels required when called:    1
  3044 ;; This function calls:
  3045 ;;		Nothing
  3046 ;; This function is called by:
  3047 ;;		_Initiallize
  3048 ;; This function uses a non-reentrant model
  3049 ;;
  3050                           
  3051                           
  3052                           ;psect for function _PinConfig
  3053  0269                     _PinConfig:
  3054  0269                     l948:	
  3055                           ;incstack = 0
  3056                           ; Regs used in _PinConfig: [wreg]
  3057                           
  3058                           
  3059                           ;main.c: 226:     TRISCbits.TRISC7 = 0;
  3060  0269  0140               	movlb	0	; select bank0
  3061  026A  1394               	bcf	20,7	;volatile
  3062                           
  3063                           ;main.c: 227:     TRISCbits.TRISC6 = 1;
  3064  026B  1714               	bsf	20,6	;volatile
  3065                           
  3066                           ;main.c: 231:     ANSELEbits.ANSE6 = 0;
  3067  026C  017E               	movlb	62	; select bank62
  3068  026D  1364               	bcf	100,6	;volatile
  3069                           
  3070                           ;main.c: 233:     TRISEbits.TRISE6 = 0;
  3071  026E  0140               	movlb	0	; select bank0
  3072  026F  1316               	bcf	22,6	;volatile
  3073                           
  3074                           ;main.c: 234:     LATEbits.LATE6 = 0;
  3075  0270  131C               	bcf	28,6	;volatile
  3076  0271                     l950:
  3077                           
  3078                           ;main.c: 243:     PPSLOCK = 0x55;
  3079  0271  3055               	movlw	85
  3080  0272  017D               	movlb	61	; select bank61
  3081  0273  008F               	movwf	15	;volsfr
  3082                           
  3083                           ;main.c: 244:     PPSLOCK = 0xAA;
  3084  0274  30AA               	movlw	170
  3085  0275  008F               	movwf	15	;volsfr
  3086  0276                     l952:
  3087                           
  3088                           ;main.c: 245:     PPSLOCKbits.PPSLOCKED = 0;
  3089  0276  100F               	bcf	15,0	;volsfr
  3090                           
  3091                           ;main.c: 249:     RC7PPS = 0x0D;
  3092  0277  300D               	movlw	13
  3093  0278  017E               	movlb	62	; select bank62
  3094  0279  00A7               	movwf	39	;volatile
  3095                           
  3096                           ;main.c: 251:     RE6PPS = 0x09;
  3097  027A  3009               	movlw	9
  3098  027B  00B6               	movwf	54	;volatile
  3099                           
  3100                           ;main.c: 254:     RX1PPS = 0x16;
  3101  027C  3016               	movlw	22
  3102  027D  017D               	movlb	61	; select bank61
  3103  027E  00CB               	movwf	75	;volatile
  3104                           
  3105                           ;main.c: 258:     PPSLOCK = 0x55;
  3106  027F  3055               	movlw	85
  3107  0280  008F               	movwf	15	;volsfr
  3108                           
  3109                           ;main.c: 259:     PPSLOCK = 0xAA;
  3110  0281  30AA               	movlw	170
  3111  0282  008F               	movwf	15	;volsfr
  3112  0283                     l954:
  3113                           
  3114                           ;main.c: 260:     PPSLOCKbits.PPSLOCKED = 1;
  3115  0283  140F               	bsf	15,0	;volsfr
  3116  0284                     l91:
  3117  0284  0008               	return
  3118  0285                     __end_of_PinConfig:
  3119                           
  3120                           	psect	text12
  3121  0285                     __ptext12:	
  3122 ;; *************** function _PWMConfig *****************
  3123 ;; Defined at:
  3124 ;;		line 398 in file "main.c"
  3125 ;; Parameters:    Size  Location     Type
  3126 ;;		None
  3127 ;; Auto vars:     Size  Location     Type
  3128 ;;		None
  3129 ;; Return value:  Size  Location     Type
  3130 ;;                  1    wreg      void 
  3131 ;; Registers used:
  3132 ;;		wreg, status,2, status,0
  3133 ;; Tracked objects:
  3134 ;;		On entry : 0/0
  3135 ;;		On exit  : 0/0
  3136 ;;		Unchanged: 0/0
  3137 ;; Data sizes:     COMMON   BANK0   BANK1   BANK2   BANK3   BANK4   BANK5   BANK6   BANK7   BANK8   BANK9  BANK10  BANK1
      +1  BANK12  BANK13  BANK14  BANK15  BANK16  BANK17  BANK18  BANK19  BANK20  BANK21  BANK22  BANK23  BANK24  BANK25  BANK2
      +6  BANK27  BANK28  BANK29  BANK30  BANK31  BANK32  BANK33  BANK34  BANK35  BANK36  BANK37  BANK38  BANK39  BANK40  BANK4
      +1  BANK42  BANK43  BANK44  BANK45  BANK46  BANK47  BANK48  BANK49  BANK50
  3138 ;;      Params:         0       0       0       0       0       0       0       0       0       0       0       0       
      +0       0       0       0       0       0       0       0       0       0       0       0       0       0       0       
      +0       0       0       0       0       0       0       0       0       0       0       0       0       0       0       
      +0       0       0       0       0       0       0       0       0       0
  3139 ;;      Locals:         0       0       0       0       0       0       0       0       0       0       0       0       
      +0       0       0       0       0       0       0       0       0       0       0       0       0       0       0       
      +0       0       0       0       0       0       0       0       0       0       0       0       0       0       0       
      +0       0       0       0       0       0       0       0       0       0
  3140 ;;      Temps:          0       0       0       0       0       0       0       0       0       0       0       0       
      +0       0       0       0       0       0       0       0       0       0       0       0       0       0       0       
      +0       0       0       0       0       0       0       0       0       0       0       0       0       0       0       
      +0       0       0       0       0       0       0       0       0       0
  3141 ;;      Totals:         0       0       0       0       0       0       0       0       0       0       0       0       
      +0       0       0       0       0       0       0       0       0       0       0       0       0       0       0       
      +0       0       0       0       0       0       0       0       0       0       0       0       0       0       0       
      +0       0       0       0       0       0       0       0       0       0
  3142 ;;Total ram usage:        0 bytes
  3143 ;; Hardware stack levels used:    1
  3144 ;; Hardware stack levels required when called:    1
  3145 ;; This function calls:
  3146 ;;		Nothing
  3147 ;; This function is called by:
  3148 ;;		_Initiallize
  3149 ;; This function uses a non-reentrant model
  3150 ;;
  3151                           
  3152                           
  3153                           ;psect for function _PWMConfig
  3154  0285                     _PWMConfig:
  3155  0285                     l972:	
  3156                           ;incstack = 0
  3157                           ; Regs used in _PWMConfig: [wreg+status,2+status,0]
  3158                           
  3159                           
  3160                           ;main.c: 402:     T2CONbits.T2ON = 0;
  3161  0285  0145               	movlb	5	; select bank5
  3162  0286  138E               	bcf	14,7	;volatile
  3163  0287                     l974:
  3164                           
  3165                           ;main.c: 403:     T2TMR = 0;
  3166  0287  018C               	clrf	12	;volatile
  3167  0288                     l976:
  3168                           
  3169                           ;main.c: 404:     T2CLKCONbits.CS = 1;
  3170  0288  0810               	movf	16,w	;volatile
  3171  0289  39F0               	andlw	-16
  3172  028A  3801               	iorlw	1
  3173  028B  0090               	movwf	16	;volatile
  3174  028C                     l978:
  3175                           
  3176                           ;main.c: 405:     T2CONbits.T2CKPS = 5;
  3177  028C  080E               	movf	14,w	;volatile
  3178  028D  398F               	andlw	-113
  3179  028E  3850               	iorlw	80
  3180  028F  008E               	movwf	14	;volatile
  3181  0290                     l980:
  3182                           
  3183                           ;main.c: 406:     T2PR = 250;
  3184  0290  30FA               	movlw	250
  3185  0291  008D               	movwf	13	;volatile
  3186  0292                     l982:
  3187                           
  3188                           ;main.c: 408:     CCP1CONbits.EN = 0;
  3189  0292  0146               	movlb	6	; select bank6
  3190  0293  138E               	bcf	14,7	;volatile
  3191  0294                     l984:
  3192                           
  3193                           ;main.c: 409:     CCP1CONbits.MODE = 15;
  3194  0294  300F               	movlw	15
  3195  0295  048E               	iorwf	14,f	;volatile
  3196  0296                     l986:
  3197                           
  3198                           ;main.c: 410:     CCPR1H = 0x01;
  3199  0296  3001               	movlw	1
  3200  0297  008D               	movwf	13	;volatile
  3201  0298                     l988:
  3202                           
  3203                           ;main.c: 411:     CCPR1L = 0xF4;
  3204  0298  30F4               	movlw	244
  3205  0299  008C               	movwf	12	;volatile
  3206  029A                     l990:
  3207                           
  3208                           ;main.c: 412:     CCP1CONbits.EN = 1;
  3209  029A  178E               	bsf	14,7	;volatile
  3210  029B                     l992:
  3211                           
  3212                           ;main.c: 414:     PIR4bits.TMR2IF = 0;
  3213  029B  014E               	movlb	14	; select bank14
  3214  029C  1090               	bcf	16,1	;volatile
  3215  029D                     l994:
  3216                           
  3217                           ;main.c: 415:     PIE4bits.TMR2IE = 1;
  3218  029D  149A               	bsf	26,1	;volatile
  3219  029E                     l996:
  3220                           
  3221                           ;main.c: 416:     T2CONbits.T2ON = 1;
  3222  029E  0145               	movlb	5	; select bank5
  3223  029F  178E               	bsf	14,7	;volatile
  3224  02A0                     l103:
  3225  02A0  0008               	return
  3226  02A1                     __end_of_PWMConfig:
  3227                           
  3228                           	psect	intentry
  3229  0004                     __pintentry:	
  3230 ;; *************** function _interruptHandler *****************
  3231 ;; Defined at:
  3232 ;;		line 465 in file "main.c"
  3233 ;; Parameters:    Size  Location     Type
  3234 ;;		None
  3235 ;; Auto vars:     Size  Location     Type
  3236 ;;		None
  3237 ;; Return value:  Size  Location     Type
  3238 ;;                  1    wreg      void 
  3239 ;; Registers used:
  3240 ;;		wreg, status,2, status,0
  3241 ;; Tracked objects:
  3242 ;;		On entry : 0/0
  3243 ;;		On exit  : 0/0
  3244 ;;		Unchanged: 0/0
  3245 ;; Data sizes:     COMMON   BANK0   BANK1   BANK2   BANK3   BANK4   BANK5   BANK6   BANK7   BANK8   BANK9  BANK10  BANK1
      +1  BANK12  BANK13  BANK14  BANK15  BANK16  BANK17  BANK18  BANK19  BANK20  BANK21  BANK22  BANK23  BANK24  BANK25  BANK2
      +6  BANK27  BANK28  BANK29  BANK30  BANK31  BANK32  BANK33  BANK34  BANK35  BANK36  BANK37  BANK38  BANK39  BANK40  BANK4
      +1  BANK42  BANK43  BANK44  BANK45  BANK46  BANK47  BANK48  BANK49  BANK50
  3246 ;;      Params:         0       0       0       0       0       0       0       0       0       0       0       0       
      +0       0       0       0       0       0       0       0       0       0       0       0       0       0       0       
      +0       0       0       0       0       0       0       0       0       0       0       0       0       0       0       
      +0       0       0       0       0       0       0       0       0       0
  3247 ;;      Locals:         0       0       0       0       0       0       0       0       0       0       0       0       
      +0       0       0       0       0       0       0       0       0       0       0       0       0       0       0       
      +0       0       0       0       0       0       0       0       0       0       0       0       0       0       0       
      +0       0       0       0       0       0       0       0       0       0
  3248 ;;      Temps:          1       0       0       0       0       0       0       0       0       0       0       0       
      +0       0       0       0       0       0       0       0       0       0       0       0       0       0       0       
      +0       0       0       0       0       0       0       0       0       0       0       0       0       0       0       
      +0       0       0       0       0       0       0       0       0       0
  3249 ;;      Totals:         1       0       0       0       0       0       0       0       0       0       0       0       
      +0       0       0       0       0       0       0       0       0       0       0       0       0       0       0       
      +0       0       0       0       0       0       0       0       0       0       0       0       0       0       0       
      +0       0       0       0       0       0       0       0       0       0
  3250 ;;Total ram usage:        1 bytes
  3251 ;; Hardware stack levels used:    1
  3252 ;; This function calls:
  3253 ;;		Nothing
  3254 ;; This function is called by:
  3255 ;;		Interrupt level 1
  3256 ;; This function uses a non-reentrant model
  3257 ;;
  3258                           
  3259  0004                     _interruptHandler:
  3260                           
  3261                           ;incstack = 0
  3262  0004  147E               	bsf	int$flags,0	;set compiler interrupt flag (level 1)
  3263                           
  3264                           ; Regs used in _interruptHandler: [wreg+status,2+status,0]
  3265  0005  3180               	pagesel	$
  3266  0006                     i1l1028:
  3267                           
  3268                           ;main.c: 467:     LATEbits.LATE5 ^= 1;
  3269  0006  0140               	movlb	0	; select bank0
  3270  0007  0E1C               	swapf	28,w	;volatile
  3271  0008  00F0               	movwf	??_interruptHandler
  3272  0009  0C70               	rrf	??_interruptHandler,w
  3273  000A  3901               	andlw	1
  3274  000B  00F0               	movwf	??_interruptHandler
  3275  000C  3001               	movlw	1
  3276  000D  06F0               	xorwf	??_interruptHandler,f
  3277  000E  0EF0               	swapf	??_interruptHandler,f
  3278  000F  0DF0               	rlf	??_interruptHandler,f
  3279  0010  081C               	movf	28,w	;volatile
  3280  0011  0670               	xorwf	??_interruptHandler,w
  3281  0012  39DF               	andlw	-33
  3282  0013  0670               	xorwf	??_interruptHandler,w
  3283  0014  009C               	movwf	28	;volatile
  3284  0015                     i1l1030:
  3285                           
  3286                           ;main.c: 468:     PIR4bits.TMR2IF = 0;
  3287  0015  014E               	movlb	14	; select bank14
  3288  0016  1090               	bcf	16,1	;volatile
  3289  0017                     i1l108:
  3290  0017  107E               	bcf	int$flags,0	;clear compiler interrupt flag (level 1)
  3291  0018  0009               	retfie
  3292  0019                     __end_of_interruptHandler:
  3293  007E                     btemp	set	126	;btemp
  3294  007E                     int$flags	set	126
  3295  007E                     wtemp0	set	126
  3296                           
  3297                           	psect	config
  3298                           
  3299                           ;Config register CONFIG1 @ 0x8007
  3300                           ;	External Oscillator mode selection bits
  3301                           ;	FEXTOSC = OFF, Oscillator not enabled
  3302                           ;	Power-up default value for COSC bits
  3303                           ;	RSTOSC = HFINT32, HFINTOSC with OSCFRQ= 32 MHz and CDIV = 1:1
  3304                           ;	Clock Out Enable bit
  3305                           ;	CLKOUTEN = ON, CLKOUT function is enabled; FOSC/4 clock appears at OSC2
  3306                           ;	VBAT Pin Enable bit
  3307                           ;	VBATEN = OFF, VBAT functionality is disabled
  3308                           ;	LCD Charge Pump Mode bit
  3309                           ;	LCDPEN = OFF, LCD Charge Pump is disabled.
  3310                           ;	Clock Switch Enable bit
  3311                           ;	CSWEN = ON, Writing to NOSC and NDIV is allowed
  3312                           ;	Fail-Safe Clock Monitor Enable bit
  3313                           ;	FCMEN = ON, FSCM timer enabled
  3314  8007                     	org	32775
  3315  8007  3A88               	dw	14984
  3316                           
  3317                           ;Config register CONFIG2 @ 0x8008
  3318                           ;	Master Clear Enable bit
  3319                           ;	MCLRE = ON, MCLR pin is Master Clear function
  3320                           ;	Power-up Timer selection bits
  3321                           ;	PWRTE = OFF, PWRT disable
  3322                           ;	Low-Power BOR enable bit
  3323                           ;	LPBOREN = OFF, ULPBOR disabled
  3324                           ;	Brown-out reset enable bits
  3325                           ;	BOREN = ON, Brown-out Reset Enabled, SBOREN bit is ignored
  3326                           ;	Brown-out Reset Voltage Selection
  3327                           ;	BORV = LO, Brown-out Reset Voltage (VBOR) set to 1.9V on LF, and 2.45V on F Devices
  3328                           ;	Zero-cross detect disable
  3329                           ;	ZCD = OFF, Zero-cross detect circuit is disabled at POR.
  3330                           ;	Peripheral Pin Select one-way control
  3331                           ;	PPS1WAY = OFF, The PPSLOCK bit can be set and cleared repeatedly by software
  3332                           ;	Stack Overflow/Underflow Reset Enable bit
  3333                           ;	STVREN = ON, Stack Overflow or Underflow will cause a reset
  3334  8008                     	org	32776
  3335  8008  37FF               	dw	14335
  3336                           
  3337                           ;Config register CONFIG3 @ 0x8009
  3338                           ;	WDT Period Select bits
  3339                           ;	WDTCPS = WDTCPS_31, Divider ratio 1:65536; software control of WDTPS
  3340                           ;	WDT operating mode
  3341                           ;	WDTE = OFF, WDT Disabled, SWDTEN is ignored
  3342                           ;	WDT Window Select bits
  3343                           ;	WDTCWS = WDTCWS_7, window always open (100%); software control; keyed access not requi
      +                          red
  3344                           ;	WDT input clock selector
  3345                           ;	WDTCCS = SC, Software Control
  3346  8009                     	org	32777
  3347  8009  3F9F               	dw	16287
  3348                           
  3349                           ;Config register CONFIG4 @ 0x800A
  3350                           ;	Boot Block Size Selection bits
  3351                           ;	BBSIZE = 512, Boot Block Size (Words) 512
  3352                           ;	Boot Block Enable bit
  3353                           ;	BBEN = OFF, Boot Block disabled
  3354                           ;	SAF Enable bit
  3355                           ;	SAFEN = OFF, SAF disabled
  3356                           ;	Application Block Write Protection bit
  3357                           ;	WRTAPP = OFF, Application Block NOT write-protected
  3358                           ;	Boot Block Write Protection bit
  3359                           ;	WRTB = OFF, Boot Block NOT write-protected
  3360                           ;	Configuration Register Write Protection bit
  3361                           ;	WRTC = OFF, Configuration Words NOT write-protected
  3362                           ;	Data EEPROM Write Protection bit
  3363                           ;	WRTD = OFF, Data EEPROM NOT write-protected
  3364                           ;	Storage Area Flash Write Protection bit
  3365                           ;	WRTSAF = OFF, SAF NOT write-protected
  3366                           ;	Low Voltage Programming Enable bit
  3367                           ;	LVP = ON, Low Voltage programming enabled. MCLR/Vpp pin function is MCLR.
  3368  800A                     	org	32778
  3369  800A  3FFF               	dw	16383
  3370                           
  3371                           ;Config register CONFIG5 @ 0x800B
  3372                           ;	UserNVM Program memory code protection bit
  3373                           ;	CP = OFF, UserNVM code protection disabled
  3374  800B                     	org	32779
  3375  800B  3FFF               	dw	16383

Data Sizes:
    Strings     79
    Constant    45
    Data        7
    BSS         40
    Persistent  32
    Stack       0

Auto Spaces:
    Space          Size  Autos    Used
    COMMON           14     13      13
    BANK0            80     46      61
    BANK1            80      0      32
    BANK2            80      0       0
    BANK3            80      0       0
    BANK4            80      0       0
    BANK5            80      0       0
    BANK6            80      0       0
    BANK7            80      0       0
    BANK8            80      0       0
    BANK9            80      0       0
    BANK10           80      0       0
    BANK11           80      0       0
    BANK12           80      0       0
    BANK13           80      0       0
    BANK14           80      0       0
    BANK15           80      0       0
    BANK16           80      0       0
    BANK17           80      0       0
    BANK18           80      0       0
    BANK19           80      0       0
    BANK20           80      0       0
    BANK21           80      0       0
    BANK22           80      0       0
    BANK23           80      0       0
    BANK24           80      0       0
    BANK25           80      0       0
    BANK26           80      0       0
    BANK27           80      0       0
    BANK28           80      0       0
    BANK29           80      0       0
    BANK30           80      0       0
    BANK31           80      0       0
    BANK32           80      0       0
    BANK33           80      0       0
    BANK34           80      0       0
    BANK35           80      0       0
    BANK36           80      0       0
    BANK37           80      0       0
    BANK38           80      0       0
    BANK39           80      0       0
    BANK40           80      0       0
    BANK41           80      0       0
    BANK42           80      0       0
    BANK43           80      0       0
    BANK44           80      0       0
    BANK45           80      0       0
    BANK46           80      0       0
    BANK47           80      0       0
    BANK48           80      0       0
    BANK49           80      0       0
    BANK50           80      0       0

Pointer List with Targets:

    strlen@s	PTR const unsigned char  size(2) Largest target is 18
		 -> stoa@nuls(BANK0[7]), ?_printf(BANK0[2]), CompileTime(CODE[9]), CompileDate(CODE[12]), 
		 -> Version(CODE[6]), Project(CODE[18]), 

    strlen@a	PTR const unsigned char  size(2) Largest target is 18
		 -> stoa@nuls(BANK0[7]), ?_printf(BANK0[2]), CompileTime(CODE[9]), CompileDate(CODE[12]), 
		 -> Version(CODE[6]), Project(CODE[18]), 

    S992_IO_FILE$buffer	PTR unsigned char  size(1) Largest target is 0

    fputc@fp.buffer	PTR unsigned char  size(1) Largest target is 0

    fputc@fp	PTR struct _IO_FILE size(1) Largest target is 0
		 -> NULL(NULL[0]), 

    vfprintf@ap	PTR PTR void  size(1) Largest target is 1
		 -> printf@ap(BANK0[1]), 

    vfprintf@fp	PTR struct _IO_FILE size(1) Largest target is 0
		 -> NULL(NULL[0]), 

    vfprintf@fmt	PTR const unsigned char  size(2) Largest target is 19
		 -> STR_5(CODE[19]), STR_4(CODE[17]), STR_3(CODE[14]), STR_2(CODE[14]), 
		 -> STR_1(CODE[15]), 

    vfprintf@cfmt	PTR unsigned char  size(2) Largest target is 19
		 -> STR_5(CODE[19]), STR_4(CODE[17]), STR_3(CODE[14]), STR_2(CODE[14]), 
		 -> STR_1(CODE[15]), 

    vfpfcnvrt@fp	PTR struct _IO_FILE size(1) Largest target is 0
		 -> NULL(NULL[0]), 

    vfpfcnvrt@ap	PTR PTR void  size(1) Largest target is 1
		 -> printf@ap(BANK0[1]), 

    vfpfcnvrt@cp	PTR unsigned char  size(2) Largest target is 18
		 -> ?_printf(BANK0[2]), CompileTime(CODE[9]), CompileDate(CODE[12]), Version(CODE[6]), 
		 -> Project(CODE[18]), 

    vfpfcnvrt@fmt	PTR PTR unsigned char  size(1) Largest target is 2
		 -> vfprintf@cfmt(BANK0[2]), 

    stoa@fp	PTR struct _IO_FILE size(1) Largest target is 0
		 -> NULL(NULL[0]), 

    stoa@s	PTR unsigned char  size(2) Largest target is 18
		 -> ?_printf(BANK0[2]), CompileTime(CODE[9]), CompileDate(CODE[12]), Version(CODE[6]), 
		 -> Project(CODE[18]), 

    stoa@cp	PTR unsigned char  size(2) Largest target is 18
		 -> stoa@nuls(BANK0[7]), ?_printf(BANK0[2]), CompileTime(CODE[9]), CompileDate(CODE[12]), 
		 -> Version(CODE[6]), Project(CODE[18]), 

    printf@fmt	PTR const unsigned char  size(2) Largest target is 19
		 -> STR_5(CODE[19]), STR_4(CODE[17]), STR_3(CODE[14]), STR_2(CODE[14]), 
		 -> STR_1(CODE[15]), 

    printf@ap	PTR void [1] size(1) Largest target is 2
		 -> ?_printf(BANK0[2]), 


Critical Paths under _main in COMMON

    _Initiallize->_printf
    _vfpfcnvrt->_stoa
    _stoa->_fputc
    _fputc->_putch

Critical Paths under _interruptHandler in COMMON

    None.

Critical Paths under _main in BANK0

    _Initiallize->_printf
    _printf->_vfprintf
    _vfprintf->_vfpfcnvrt
    _vfpfcnvrt->_stoa

Critical Paths under _interruptHandler in BANK0

    None.

Critical Paths under _main in BANK1

    None.

Critical Paths under _interruptHandler in BANK1

    None.

Critical Paths under _main in BANK2

    None.

Critical Paths under _interruptHandler in BANK2

    None.

Critical Paths under _main in BANK3

    None.

Critical Paths under _interruptHandler in BANK3

    None.

Critical Paths under _main in BANK4

    None.

Critical Paths under _interruptHandler in BANK4

    None.

Critical Paths under _main in BANK5

    None.

Critical Paths under _interruptHandler in BANK5

    None.

Critical Paths under _main in BANK6

    None.

Critical Paths under _interruptHandler in BANK6

    None.

Critical Paths under _main in BANK7

    None.

Critical Paths under _interruptHandler in BANK7

    None.

Critical Paths under _main in BANK8

    None.

Critical Paths under _interruptHandler in BANK8

    None.

Critical Paths under _main in BANK9

    None.

Critical Paths under _interruptHandler in BANK9

    None.

Critical Paths under _main in BANK10

    None.

Critical Paths under _interruptHandler in BANK10

    None.

Critical Paths under _main in BANK11

    None.

Critical Paths under _interruptHandler in BANK11

    None.

Critical Paths under _main in BANK12

    None.

Critical Paths under _interruptHandler in BANK12

    None.

Critical Paths under _main in BANK13

    None.

Critical Paths under _interruptHandler in BANK13

    None.

Critical Paths under _main in BANK14

    None.

Critical Paths under _interruptHandler in BANK14

    None.

Critical Paths under _main in BANK15

    None.

Critical Paths under _interruptHandler in BANK15

    None.

Critical Paths under _main in BANK16

    None.

Critical Paths under _interruptHandler in BANK16

    None.

Critical Paths under _main in BANK17

    None.

Critical Paths under _interruptHandler in BANK17

    None.

Critical Paths under _main in BANK18

    None.

Critical Paths under _interruptHandler in BANK18

    None.

Critical Paths under _main in BANK19

    None.

Critical Paths under _interruptHandler in BANK19

    None.

Critical Paths under _main in BANK20

    None.

Critical Paths under _interruptHandler in BANK20

    None.

Critical Paths under _main in BANK21

    None.

Critical Paths under _interruptHandler in BANK21

    None.

Critical Paths under _main in BANK22

    None.

Critical Paths under _interruptHandler in BANK22

    None.

Critical Paths under _main in BANK23

    None.

Critical Paths under _interruptHandler in BANK23

    None.

Critical Paths under _main in BANK24

    None.

Critical Paths under _interruptHandler in BANK24

    None.

Critical Paths under _main in BANK25

    None.

Critical Paths under _interruptHandler in BANK25

    None.

Critical Paths under _main in BANK26

    None.

Critical Paths under _interruptHandler in BANK26

    None.

Critical Paths under _main in BANK27

    None.

Critical Paths under _interruptHandler in BANK27

    None.

Critical Paths under _main in BANK28

    None.

Critical Paths under _interruptHandler in BANK28

    None.

Critical Paths under _main in BANK29

    None.

Critical Paths under _interruptHandler in BANK29

    None.

Critical Paths under _main in BANK30

    None.

Critical Paths under _interruptHandler in BANK30

    None.

Critical Paths under _main in BANK31

    None.

Critical Paths under _interruptHandler in BANK31

    None.

Critical Paths under _main in BANK32

    None.

Critical Paths under _interruptHandler in BANK32

    None.

Critical Paths under _main in BANK33

    None.

Critical Paths under _interruptHandler in BANK33

    None.

Critical Paths under _main in BANK34

    None.

Critical Paths under _interruptHandler in BANK34

    None.

Critical Paths under _main in BANK35

    None.

Critical Paths under _interruptHandler in BANK35

    None.

Critical Paths under _main in BANK36

    None.

Critical Paths under _interruptHandler in BANK36

    None.

Critical Paths under _main in BANK37

    None.

Critical Paths under _interruptHandler in BANK37

    None.

Critical Paths under _main in BANK38

    None.

Critical Paths under _interruptHandler in BANK38

    None.

Critical Paths under _main in BANK39

    None.

Critical Paths under _interruptHandler in BANK39

    None.

Critical Paths under _main in BANK40

    None.

Critical Paths under _interruptHandler in BANK40

    None.

Critical Paths under _main in BANK41

    None.

Critical Paths under _interruptHandler in BANK41

    None.

Critical Paths under _main in BANK42

    None.

Critical Paths under _interruptHandler in BANK42

    None.

Critical Paths under _main in BANK43

    None.

Critical Paths under _interruptHandler in BANK43

    None.

Critical Paths under _main in BANK44

    None.

Critical Paths under _interruptHandler in BANK44

    None.

Critical Paths under _main in BANK45

    None.

Critical Paths under _interruptHandler in BANK45

    None.

Critical Paths under _main in BANK46

    None.

Critical Paths under _interruptHandler in BANK46

    None.

Critical Paths under _main in BANK47

    None.

Critical Paths under _interruptHandler in BANK47

    None.

Critical Paths under _main in BANK48

    None.

Critical Paths under _interruptHandler in BANK48

    None.

Critical Paths under _main in BANK49

    None.

Critical Paths under _interruptHandler in BANK49

    None.

Critical Paths under _main in BANK50

    None.

Critical Paths under _interruptHandler in BANK50

    None.

Call Graph Tables:

 ---------------------------------------------------------------------------------
 (Depth) Function   	        Calls       Base Space   Used Autos Params    Refs
 ---------------------------------------------------------------------------------
 (0) _main                                                 0     0      0    4416
                        _Initiallize
 ---------------------------------------------------------------------------------
 (1) _Initiallize                                          0     0      0    4416
                          _PWMConfig
                          _PinConfig
                 _SetPerformanceMode
                         _UartConfig
                             _printf
 ---------------------------------------------------------------------------------
 (2) _printf                                               8     4      4    4416
                                             12 COMMON     1     1      0
                                             39 BANK0      7     3      4
                           _vfprintf
 ---------------------------------------------------------------------------------
 (3) _vfprintf                                             8     5      3    3982
                                             31 BANK0      8     5      3
                          _vfpfcnvrt
 ---------------------------------------------------------------------------------
 (4) _vfpfcnvrt                                           40    38      2    3655
                                             21 BANK0     10     8      2
                              _fputc
                               _stoa
 ---------------------------------------------------------------------------------
 (5) _stoa                                                23    21      2    1950
                                             10 COMMON     2     0      2
                                              0 BANK0     21    21      0
                              _fputc
                             _strlen
 ---------------------------------------------------------------------------------
 (6) _strlen                                               5     3      2     169
                                              1 COMMON     5     3      2
 ---------------------------------------------------------------------------------
 (6) _fputc                                                8     5      3    1194
                                              2 COMMON     8     5      3
                              _putch
 ---------------------------------------------------------------------------------
 (7) _putch                                                1     1      0      22
                                              1 COMMON     1     1      0
 ---------------------------------------------------------------------------------
 (2) _UartConfig                                           0     0      0       0
 ---------------------------------------------------------------------------------
 (2) _SetPerformanceMode                                   0     0      0       0
 ---------------------------------------------------------------------------------
 (2) _PinConfig                                            0     0      0       0
 ---------------------------------------------------------------------------------
 (2) _PWMConfig                                            0     0      0       0
 ---------------------------------------------------------------------------------
 Estimated maximum stack depth 7
 ---------------------------------------------------------------------------------
 (Depth) Function   	        Calls       Base Space   Used Autos Params    Refs
 ---------------------------------------------------------------------------------
 (8) _interruptHandler                                     1     1      0       0
                                              0 COMMON     1     1      0
 ---------------------------------------------------------------------------------
 Estimated maximum stack depth 8
 ---------------------------------------------------------------------------------

 Call Graph Graphs:

 _main (ROOT)
   _Initiallize
     _PWMConfig
     _PinConfig
     _SetPerformanceMode
     _UartConfig
     _printf
       _vfprintf
         _vfpfcnvrt
           _fputc
             _putch
           _stoa
             _fputc
               _putch
             _strlen

 _interruptHandler (ROOT)

 Address spaces:
Name               Size   Autos  Total    Cost      Usage
BIGRAM             FF0      0       0       0        0.0%
EEDATA             100      0       0       0        0.0%
NULL                 0      0       0       0        0.0%
CODE                 0      0       0       0        0.0%
BITCOMMON            E      0       0       1        0.0%
BITSFR0              0      0       0       1        0.0%
SFR0                 0      0       0       1        0.0%
COMMON               E      D       D       2       92.9%
BITSFR1              0      0       0       2        0.0%
SFR1                 0      0       0       2        0.0%
BITSFR2              0      0       0       3        0.0%
SFR2                 0      0       0       3        0.0%
STACK                0      0       0       3        0.0%
BITBANK0            50      0       0       4        0.0%
BITSFR3              0      0       0       4        0.0%
SFR3                 0      0       0       4        0.0%
BANK0               50     2E      3D       5       76.2%
BITSFR4              0      0       0       5        0.0%
SFR4                 0      0       0       5        0.0%
BITBANK1            50      0       0       6        0.0%
BITSFR5              0      0       0       6        0.0%
SFR5                 0      0       0       6        0.0%
BANK1               50      0      20       7       40.0%
BITSFR6              0      0       0       7        0.0%
SFR6                 0      0       0       7        0.0%
BITBANK2            50      0       0       8        0.0%
BITSFR7              0      0       0       8        0.0%
SFR7                 0      0       0       8        0.0%
BANK2               50      0       0       9        0.0%
BITSFR8              0      0       0       9        0.0%
SFR8                 0      0       0       9        0.0%
BITBANK3            50      0       0      10        0.0%
BITSFR9              0      0       0      10        0.0%
SFR9                 0      0       0      10        0.0%
BANK3               50      0       0      11        0.0%
BITSFR10             0      0       0      11        0.0%
SFR10                0      0       0      11        0.0%
BITBANK4            50      0       0      12        0.0%
BITSFR11             0      0       0      12        0.0%
SFR11                0      0       0      12        0.0%
BANK4               50      0       0      13        0.0%
BITSFR12             0      0       0      13        0.0%
SFR12                0      0       0      13        0.0%
BITBANK5            50      0       0      14        0.0%
BITSFR13             0      0       0      14        0.0%
SFR13                0      0       0      14        0.0%
BANK5               50      0       0      15        0.0%
BITSFR14             0      0       0      15        0.0%
SFR14                0      0       0      15        0.0%
BITBANK6            50      0       0      16        0.0%
BITSFR15             0      0       0      16        0.0%
SFR15                0      0       0      16        0.0%
BANK6               50      0       0      17        0.0%
BITSFR16             0      0       0      17        0.0%
SFR16                0      0       0      17        0.0%
BITBANK7            50      0       0      18        0.0%
BITSFR17             0      0       0      18        0.0%
SFR17                0      0       0      18        0.0%
BANK7               50      0       0      19        0.0%
BITSFR18             0      0       0      19        0.0%
SFR18                0      0       0      19        0.0%
BITBANK8            50      0       0      20        0.0%
BITSFR19             0      0       0      20        0.0%
SFR19                0      0       0      20        0.0%
BANK8               50      0       0      21        0.0%
BITSFR20             0      0       0      21        0.0%
SFR20                0      0       0      21        0.0%
BITBANK9            50      0       0      22        0.0%
BITSFR21             0      0       0      22        0.0%
SFR21                0      0       0      22        0.0%
BANK9               50      0       0      23        0.0%
BITSFR22             0      0       0      23        0.0%
SFR22                0      0       0      23        0.0%
BITBANK10           50      0       0      24        0.0%
BITSFR23             0      0       0      24        0.0%
SFR23                0      0       0      24        0.0%
BANK10              50      0       0      25        0.0%
BITSFR24             0      0       0      25        0.0%
SFR24                0      0       0      25        0.0%
BITBANK11           50      0       0      26        0.0%
BITSFR25             0      0       0      26        0.0%
SFR25                0      0       0      26        0.0%
BANK11              50      0       0      27        0.0%
BITSFR26             0      0       0      27        0.0%
SFR26                0      0       0      27        0.0%
BITSFR27             0      0       0      28        0.0%
SFR27                0      0       0      28        0.0%
ABS                  0      0      6A      28        0.0%
BITBANK12           50      0       0      29        0.0%
BITSFR28             0      0       0      29        0.0%
SFR28                0      0       0      29        0.0%
BANK12              50      0       0      30        0.0%
BITSFR29             0      0       0      30        0.0%
SFR29                0      0       0      30        0.0%
BITBANK13           50      0       0      31        0.0%
BITSFR30             0      0       0      31        0.0%
SFR30                0      0       0      31        0.0%
BANK13              50      0       0      32        0.0%
BITSFR31             0      0       0      32        0.0%
SFR31                0      0       0      32        0.0%
BITBANK14           50      0       0      33        0.0%
BITSFR32             0      0       0      33        0.0%
SFR32                0      0       0      33        0.0%
BANK14              50      0       0      34        0.0%
BITSFR33             0      0       0      34        0.0%
SFR33                0      0       0      34        0.0%
BITBANK15           50      0       0      35        0.0%
BITSFR34             0      0       0      35        0.0%
SFR34                0      0       0      35        0.0%
BANK15              50      0       0      36        0.0%
BITSFR35             0      0       0      36        0.0%
SFR35                0      0       0      36        0.0%
BITBANK16           50      0       0      37        0.0%
BITSFR36             0      0       0      37        0.0%
SFR36                0      0       0      37        0.0%
BANK16              50      0       0      38        0.0%
BITSFR37             0      0       0      38        0.0%
SFR37                0      0       0      38        0.0%
BITBANK17           50      0       0      39        0.0%
BITSFR38             0      0       0      39        0.0%
SFR38                0      0       0      39        0.0%
BANK17              50      0       0      40        0.0%
BITSFR39             0      0       0      40        0.0%
SFR39                0      0       0      40        0.0%
BITBANK18           50      0       0      41        0.0%
BITSFR40             0      0       0      41        0.0%
SFR40                0      0       0      41        0.0%
BANK18              50      0       0      42        0.0%
BITSFR41             0      0       0      42        0.0%
SFR41                0      0       0      42        0.0%
BITBANK19           50      0       0      43        0.0%
BITSFR42             0      0       0      43        0.0%
SFR42                0      0       0      43        0.0%
BANK19              50      0       0      44        0.0%
BITSFR43             0      0       0      44        0.0%
SFR43                0      0       0      44        0.0%
BITBANK20           50      0       0      45        0.0%
BITSFR44             0      0       0      45        0.0%
SFR44                0      0       0      45        0.0%
BANK20              50      0       0      46        0.0%
BITSFR45             0      0       0      46        0.0%
SFR45                0      0       0      46        0.0%
BITBANK21           50      0       0      47        0.0%
BITSFR46             0      0       0      47        0.0%
SFR46                0      0       0      47        0.0%
BANK21              50      0       0      48        0.0%
BITSFR47             0      0       0      48        0.0%
SFR47                0      0       0      48        0.0%
BITBANK22           50      0       0      49        0.0%
BITSFR48             0      0       0      49        0.0%
SFR48                0      0       0      49        0.0%
BANK22              50      0       0      50        0.0%
BITSFR49             0      0       0      50        0.0%
SFR49                0      0       0      50        0.0%
BITBANK23           50      0       0      51        0.0%
BITSFR50             0      0       0      51        0.0%
SFR50                0      0       0      51        0.0%
BANK23              50      0       0      52        0.0%
BITSFR51             0      0       0      52        0.0%
SFR51                0      0       0      52        0.0%
BITBANK24           50      0       0      53        0.0%
BITSFR52             0      0       0      53        0.0%
SFR52                0      0       0      53        0.0%
BANK24              50      0       0      54        0.0%
BITSFR53             0      0       0      54        0.0%
SFR53                0      0       0      54        0.0%
BITBANK25           50      0       0      55        0.0%
BITSFR54             0      0       0      55        0.0%
SFR54                0      0       0      55        0.0%
BANK25              50      0       0      56        0.0%
BITSFR55             0      0       0      56        0.0%
SFR55                0      0       0      56        0.0%
BITBANK26           50      0       0      57        0.0%
BITSFR56             0      0       0      57        0.0%
SFR56                0      0       0      57        0.0%
BANK26              50      0       0      58        0.0%
BITSFR57             0      0       0      58        0.0%
SFR57                0      0       0      58        0.0%
BITSFR58             0      0       0      59        0.0%
SFR58                0      0       0      59        0.0%
DATA                 0      0      6A      59        0.0%
BITBANK27           50      0       0      60        0.0%
BITSFR59             0      0       0      60        0.0%
SFR59                0      0       0      60        0.0%
BANK27              50      0       0      61        0.0%
BITSFR60             0      0       0      61        0.0%
SFR60                0      0       0      61        0.0%
BITBANK28           50      0       0      62        0.0%
BITSFR61             0      0       0      62        0.0%
SFR61                0      0       0      62        0.0%
BANK28              50      0       0      63        0.0%
BITSFR62             0      0       0      63        0.0%
SFR62                0      0       0      63        0.0%
BITBANK29           50      0       0      64        0.0%
BITSFR63             0      0       0      64        0.0%
SFR63                0      0       0      64        0.0%
BANK29              50      0       0      65        0.0%
BITBANK30           50      0       0      66        0.0%
BANK30              50      0       0      67        0.0%
BITBANK31           50      0       0      68        0.0%
BANK31              50      0       0      69        0.0%
BITBANK32           50      0       0      70        0.0%
BANK32              50      0       0      71        0.0%
BITBANK33           50      0       0      72        0.0%
BANK33              50      0       0      73        0.0%
BITBANK34           50      0       0      74        0.0%
BANK34              50      0       0      75        0.0%
BITBANK35           50      0       0      76        0.0%
BANK35              50      0       0      77        0.0%
BITBANK36           50      0       0      78        0.0%
BANK36              50      0       0      79        0.0%
BITBANK37           50      0       0      80        0.0%
BANK37              50      0       0      81        0.0%
BITBANK38           50      0       0      82        0.0%
BANK38              50      0       0      83        0.0%
BITBANK39           50      0       0      84        0.0%
BANK39              50      0       0      85        0.0%
BITBANK40           50      0       0      86        0.0%
BANK40              50      0       0      87        0.0%
BITBANK41           50      0       0      88        0.0%
BANK41              50      0       0      89        0.0%
BITBANK42           50      0       0      90        0.0%
BANK42              50      0       0      91        0.0%
BITBANK43           50      0       0      92        0.0%
BANK43              50      0       0      93        0.0%
BITBANK44           50      0       0      94        0.0%
BANK44              50      0       0      95        0.0%
BITBANK45           50      0       0      96        0.0%
BANK45              50      0       0      97        0.0%
BITBANK46           50      0       0      98        0.0%
BANK46              50      0       0      99        0.0%
BITBANK47           50      0       0     100        0.0%
BANK47              50      0       0     101        0.0%
BITBANK48           50      0       0     102        0.0%
BANK48              50      0       0     103        0.0%
BITBANK49           50      0       0     104        0.0%
BANK49              50      0       0     105        0.0%
BITBANK50           50      0       0     106        0.0%
BANK50              50      0       0     107        0.0%


Microchip Technology PIC Macro Assembler V2.20 build 20200408173844 
Symbol Table                                                                                   Wed Sep 23 13:11:50 2020

                         l80 037A                           l91 0284                           l85 0201  
                         l94 02E5                           l79 037A                           l88 037D  
                         l97 035C           _SetPerformanceMode 037D                          l100 0363  
                        l103 02A0                          l800 0240                          l723 0309  
                        l814 02D2                          l762 0081                          l771 00DC  
                        l781 01B5                          l950 0271                          l952 0276  
                        l960 02E1                          l776 0106                          l954 0283  
                        l962 02E3                          l980 0290                          l972 0285  
                        l948 0269                          l964 02E4                          l956 02D3  
                        l788 0268                          l990 029A                          l982 0292  
                        l974 0287                          l958 02E0                          l992 029B  
                        l984 0294                          l976 0288                          l994 029D  
                        l986 0296                          l978 028C                          l996 029E  
                        l988 0298                          u200 0361                          u201 0360  
                        u210 0207                          u211 0206                          u220 020C  
                        u300 008E                          u221 020B                          u301 008D  
                        u230 021B                          u310 00AE                          u231 021A  
                        u311 00AD                          u240 0238                          u320 00DC  
                        u241 0237                          u321 00DB                          u250 02CC  
                        u330 00E1                          u251 02CB                          u331 00E0  
                        u315 00AA                          u340 0101                          u260 0047  
                        u245 0234                          u341 0100                          u325 00D8  
                        u270 0055                          u350 011A                          u271 0054  
                        u351 0119                          u280 006D                          u360 013B  
                        u345 00FD                          u281 006C                          u361 013A  
                        u290 007B                          u370 016E                          u291 007A  
                        u371 016D                          u380 0264                          u381 0263  
                        u295 0077                          wreg 0009          ?_SetPerformanceMode 0070  
               _BAUD1CONbits 011F                         l1100 00E2                         l1102 00EE  
                       l1110 0109                         l1032 035C                         l1040 020C  
                       l1104 00F3                         l1120 013B                         l1112 011A  
                       l1034 0361                         l1042 0211                         l1050 02BA  
                       l1106 0101                         l1130 016E                         l1122 0143  
                       l1114 0122                         l1044 021B                         l1036 0202  
                       l1052 02BF                         l1060 003D                         l1140 018F  
                       l1132 0176                         l1124 014F                         l1116 0126  
                       l1046 0238                         l1038 0207                         l1054 02C3  
                       l1070 0065                         l1062 004B                         l1134 0181  
                       l1118 012A                         l1056 02CC                         l1072 0069  
                       l1064 004F                         l1128 015D                         l1144 0192  
                       l1160 0264                         l1152 0243                         l1090 00B2  
                       l1082 008F                         l1074 006D                         l1066 0055  
                       l1146 01AB                         l1138 0187                         l1154 0247  
                       l1170 01B6                         l1092 00C5                         l1084 009B  
                       l1076 007C                         l1068 0059                         l1156 024A  
                       l1164 02F8                         l1180 01D3                         l1172 01B9  
                       l1094 00CA                         l1086 00A0                         l1078 008A  
                       l1158 025B                         l1166 02FD                         l1190 01FC  
                       l1182 01DF                         l1174 01BC                         l1096 00CE  
                       l1088 00AE                         l1192 01FE                         l1184 01EB  
                       l1176 01BF                         l1194 01FF                         l1186 01F7  
                       l1178 01C7                         l1196 0200                         l1188 01FA  
                       l1198 0377                         STR_1 031B                         STR_2 0338  
                       STR_3 032A                         STR_4 030A                         STR_5 02A7  
                       _T2PR 028D                         _dbuf 00A0                         _main 0377  
   __end_of_interruptHandler 0019                         _prec 0052                         _nout 004E  
                       fsr0h 0005                         fsr1h 0007                         indf0 0000  
                       fsr0l 0004                         indf1 0001                         fsr1l 0006  
                       _stoa 003B                         btemp 007E                         start 0019  
       ??_SetPerformanceMode 0071              __end_of_Project 02F8              __end_of_Version 02A7  
                      ?_main 0070          __end_of_CompileDate 0352                        ?_stoa 007A  
              ??_Initiallize 007D                        i1l108 0017                        _T2TMR 028C  
        __end_of_CompileTime 035B                 vfpfcnvrt@fmt 0035                        _flags 0054  
                      _fputc 0202                        _width 0050                        _putch 035B  
                      stoa@i 002A                        stoa@l 0033                        stoa@p 0031  
                      stoa@s 007A                        stoa@w 002C                        status 0003  
         __size_of_PWMConfig 001C                        wtemp0 007E              __initialization 001B  
               __end_of_main 037D                 __end_of_stoa 0107                       ??_main 007D  
                     ??_stoa 0020                       ?_fputc 0072                       _CCPR1H 030D  
                     _CCPR1L 030C          __end_of_Initiallize 0202                       ?_putch 0070  
                     i1l1030 0015                       i1l1028 0006                       _RC7PPS 1F27  
                     _RE6PPS 1F36                       _RX1PPS 1ECB                       _TX1REG 011A  
         __size_of_PinConfig 001C                   _UartConfig 02D3                 vfprintf@cfmt 0045  
                _CompileDate 0346                  _CompileTime 0352                       _printf 02F8  
                     _strlen 02BA            __end_of_PWMConfig 02A1                       fputc@c 0072  
                     stoa@cp 002E                       stoa@fp 0030                       putch@c 0071  
           __end_of_vfprintf 0269      __end_of__initialization 0037               __pcstackCOMMON 0070  
               __pidataBANK0 0364                __end_of_fputc 0241                __end_of_putch 0364  
                _Initiallize 01B6            __end_of_PinConfig 0285                      ??_fputc 0075  
                    ??_putch 0071                   __pbssBANK0 004E                   __pbssBANK1 00A0  
          ?_interruptHandler 0070                  ?_UartConfig 0070                 _T2CLKCONbits 0290  
         ??_interruptHandler 0070                   __pmaintext 0377                   __pintentry 0004  
                    ?_printf 0047                      ?_strlen 0071                      _SP1BRGH 011C  
                    _SP1BRGL 011B           __size_of_vfpfcnvrt 00AF                      _PPSLOCK 1E8F  
__size_of_SetPerformanceMode 0001                      _Project 02E6                      _Version 02A1  
                  ?_vfprintf 003F                      __ptext1 01B6                      __ptext2 02F8  
                    __ptext3 0241                      __ptext4 0107                      __ptext5 003B  
                    __ptext6 02BA                      __ptext7 0202                      __ptext8 035B  
                    __ptext9 02D3              __size_of_printf 0012              __size_of_strlen 0019  
                  _T2CONbits 028E          __size_of_UartConfig 0013                      clrloop0 0372  
       end_of_initialization 0037                      fputc@fp 0074                      init_ram 036B  
                    initloop 036C            __end_of_vfpfcnvrt 01B6                   ??_vfprintf 0042  
                    strlen@a 0074                      strlen@s 0071                    _TRISCbits 0014  
                  _TRISEbits 0016                    _PWMConfig 0285                  _CCP1CONbits 030E  
                vfpfcnvrt@ap 0036                  vfpfcnvrt@cp 003C                  vfpfcnvrt@fp 003E  
               ?_Initiallize 0070               __end_of_printf 030A               __end_of_strlen 02D3  
        start_initialization 001B                   ?_PWMConfig 0070                    _PinConfig 0269  
               ??_UartConfig 0071                  vfprintf@fmt 003F                  __pdataBANK0 0056  
                   ??_printf 007C    __size_of_interruptHandler 0015                     ??_strlen 0073  
                  ___latbits 0004                __pcstackBANK0 0020           __end_of_UartConfig 02E6  
                 ?_PinConfig 0070            __size_of_vfprintf 0028                  ??_PWMConfig 0071  
             __size_of_fputc 003F               __size_of_putch 0009                     _LATEbits 001C  
                  clear_ram0 0371                     _PIE3bits 0719                     _PIE4bits 071A  
 __end_of_SetPerformanceMode 037E                     _PIR3bits 070F                     _PIR4bits 0710  
                  _vfpfcnvrt 0107         __size_of_Initiallize 004C                  ??_PinConfig 0071  
                 vfprintf@ap 0041                   vfprintf@fp 0044                   ?_vfpfcnvrt 0035  
           _interruptHandler 0004                   _ANSELEbits 1F64                     __ptext10 037D  
                   __ptext11 0269                     __ptext12 0285                __size_of_main 0006  
              __size_of_stoa 00CC                   _RC1STAbits 011D                    stoa@F1131 0056  
                   int$flags 007E                     _vfprintf 0241                    printf@fmt 0047  
                 _INTCONbits 000B                     intlevel1 0000                  _PPSLOCKbits 1E8F  
                   printf@ap 004D                  ??_vfpfcnvrt 0037                     stoa@nuls 0023  
              __pstringtext1 02E6                __pstringtext2 0346                __pstringtext3 0352  
              __pstringtext4 02A1                __pstringtext5 030A                __pstringtext6 031B  
              __pstringtext7 032A                __pstringtext8 0338                __pstringtext9 0000  
                 _TX1STAbits 011E  
