

Microchip MPLAB XC8 Assembler V2.20 build 20200408173844 
                                                                                               Sat Sep 12 17:05:30 2020

Microchip MPLAB XC8 C Compiler v2.20 (Free license) build 20200408173844 Og1 
     1                           	processor	16F19197
     2                           	pagewidth 120
     3                           	opt	flic
     4                           	psect	idataBANK1,global,class=CODE,delta=2,noexec
     5                           	psect	stringtext1,global,class=STRCODE,delta=2,noexec
     6                           	psect	stringtext2,global,class=STRCODE,delta=2,noexec
     7                           	psect	stringtext3,global,class=STRCODE,delta=2,noexec
     8                           	psect	stringtext4,global,class=STRCODE,delta=2,noexec
     9                           	psect	stringtext5,global,class=STRCODE,delta=2,noexec
    10                           	psect	stringtext6,global,class=STRCODE,delta=2,noexec
    11                           	psect	stringtext7,global,class=STRCODE,delta=2,noexec
    12                           	psect	stringtext8,global,class=STRCODE,delta=2,noexec
    13                           	psect	stringtext9,global,class=STRCODE,delta=2,noexec
    14                           	psect	stringtext10,global,class=STRCODE,delta=2,noexec
    15                           	psect	stringtext11,global,class=STRCODE,delta=2,noexec
    16                           	psect	stringtext12,global,class=STRCODE,delta=2,noexec
    17                           	psect	stringtext13,global,class=STRCODE,delta=2,noexec
    18                           	psect	stringtext14,global,class=STRCODE,delta=2,noexec
    19                           	psect	stringtext15,global,class=STRCODE,delta=2,noexec
    20                           	psect	stringtext16,global,class=STRCODE,delta=2,noexec
    21                           	psect	cinit,global,class=CODE,merge=1,delta=2
    22                           	psect	bssBANK1,global,class=BANK1,space=1,delta=1,noexec
    23                           	psect	dataBANK1,global,class=BANK1,space=1,delta=1,noexec
    24                           	psect	bssBANK2,global,class=BANK2,space=1,delta=1,noexec
    25                           	psect	inittext,global,class=CODE,delta=2
    26                           	psect	clrtext,global,class=CODE,delta=2
    27                           	psect	cstackBANK1,global,class=BANK1,space=1,delta=1,noexec
    28                           	psect	cstackCOMMON,global,class=COMMON,space=1,delta=1,noexec
    29                           	psect	cstackBANK0,global,class=BANK0,space=1,delta=1,noexec
    30                           	psect	maintext,global,class=CODE,merge=1,split=1,delta=2
    31                           	psect	text1,local,class=CODE,merge=1,delta=2
    32                           	psect	text2,local,class=CODE,merge=1,delta=2
    33                           	psect	text3,local,class=CODE,merge=1,delta=2
    34                           	psect	text4,local,class=CODE,merge=1,delta=2,group=2
    35                           	psect	text5,local,class=CODE,merge=1,delta=2
    36                           	psect	text6,local,class=CODE,merge=1,delta=2,group=2
    37                           	psect	text7,local,class=CODE,merge=1,delta=2,group=2
    38                           	psect	text8,local,class=CODE,merge=1,delta=2,group=2
    39                           	psect	text9,local,class=CODE,merge=1,delta=2
    40                           	psect	text10,local,class=CODE,merge=1,delta=2
    41                           	psect	text11,local,class=CODE,merge=1,delta=2
    42                           	psect	text12,local,class=CODE,merge=1,delta=2,group=3
    43                           	psect	text13,local,class=CODE,merge=1,delta=2,group=1
    44                           	psect	text14,local,class=CODE,merge=1,delta=2,group=1
    45                           	psect	text15,local,class=CODE,merge=1,delta=2,group=1
    46                           	psect	text16,local,class=CODE,merge=1,delta=2,group=1
    47                           	psect	text17,local,class=CODE,merge=1,delta=2,group=1
    48                           	psect	text18,local,class=CODE,merge=1,delta=2,group=3
    49                           	psect	text19,local,class=CODE,merge=1,delta=2,group=3
    50                           	psect	text20,local,class=CODE,merge=1,delta=2,group=3
    51                           	psect	text21,local,class=CODE,merge=1,delta=2
    52                           	psect	text22,local,class=CODE,merge=1,delta=2,group=3
    53                           	psect	text23,local,class=CODE,merge=1,delta=2,group=2
    54                           	psect	text24,local,class=CODE,merge=1,delta=2,group=2
    55                           	psect	text25,local,class=CODE,merge=1,delta=2
    56                           	psect	text26,local,class=CODE,merge=1,delta=2
    57                           	psect	text27,local,class=CODE,merge=1,delta=2
    58                           	psect	text28,local,class=CODE,merge=1,delta=2
    59                           	psect	config,global,abs,ovrld,class=CONFIG,space=4,delta=2,noexec
    60                           	dabs	1,0x7E,2
    61  0000                     
    62                           ; Version 2.20
    63                           ; Generated 30/04/2020 GMT
    64                           ; 
    65                           ; Copyright © 2020, Microchip Technology Inc. and its subsidiaries ("Microchip")
    66                           ; All rights reserved.
    67                           ; 
    68                           ; This software is developed by Microchip Technology Inc. and its subsidiaries ("Microch
      +                          ip").
    69                           ; 
    70                           ; Redistribution and use in source and binary forms, with or without modification, are
    71                           ; permitted provided that the following conditions are met:
    72                           ; 
    73                           ;     1. Redistributions of source code must retain the above copyright notice, this lis
      +                          t of
    74                           ;        conditions and the following disclaimer.
    75                           ; 
    76                           ;     2. Redistributions in binary form must reproduce the above copyright notice, this 
      +                          list
    77                           ;        of conditions and the following disclaimer in the documentation and/or other
    78                           ;        materials provided with the distribution.
    79                           ; 
    80                           ;     3. Microchip's name may not be used to endorse or promote products derived from th
      +                          is
    81                           ;        software without specific prior written permission.
    82                           ; 
    83                           ; THIS SOFTWARE IS PROVIDED BY MICROCHIP "AS IS" AND ANY EXPRESS OR IMPLIED WARRANTIES,
    84                           ; INCLUDING, BUT NOT LIMITED TO, THE IMPLIED WARRANTIES OF MERCHANTABILITY AND FITNESS F
      +                          OR
    85                           ; PURPOSE ARE DISCLAIMED.  IN NO EVENT SHALL MICROCHIP BE LIABLE FOR ANY DIRECT, INDIREC
      +                          T,
    86                           ; INCIDENTAL, SPECIAL, EXEMPLARY, OR CONSEQUENTIAL DAMAGES (INCLUDING BUT NOT LIMITED TO
    87                           ; PROCUREMENT OF SUBSTITUTE GOODS OR SERVICES; LOSS OF USE, DATA OR PROFITS; OR BUSINESS
    88                           ; INTERRUPTION) HOWSOEVER CAUSED AND ON ANY THEORY OF LIABILITY, WHETHER IN CONTRACT, ST
      +                          RICT
    89                           ; LIABILITY, OR TORT (INCLUDING NEGLIGENCE OR OTHERWISE) ARISING IN ANY WAY OUT OF THE U
      +                          SE OF
    90                           ; THIS SOFTWARE, EVEN IF ADVISED OF THE POSSIBILITY OF SUCH DAMAGE.
    91                           ; 
    92                           ; 
    93                           ; Code-generator required, PIC16F19197 Definitions
    94                           ; 
    95                           ; SFR Addresses
    96  0000                     	;# 
    97  0001                     	;# 
    98  0002                     	;# 
    99  0003                     	;# 
   100  0004                     	;# 
   101  0005                     	;# 
   102  0006                     	;# 
   103  0007                     	;# 
   104  0008                     	;# 
   105  0009                     	;# 
   106  000A                     	;# 
   107  000B                     	;# 
   108  000C                     	;# 
   109  000D                     	;# 
   110  000E                     	;# 
   111  000F                     	;# 
   112  0010                     	;# 
   113  0011                     	;# 
   114  0012                     	;# 
   115  0013                     	;# 
   116  0014                     	;# 
   117  0015                     	;# 
   118  0016                     	;# 
   119  0017                     	;# 
   120  0018                     	;# 
   121  0019                     	;# 
   122  001A                     	;# 
   123  001B                     	;# 
   124  001C                     	;# 
   125  001D                     	;# 
   126  001F                     	;# 
   127  008C                     	;# 
   128  008C                     	;# 
   129  008D                     	;# 
   130  008E                     	;# 
   131  008E                     	;# 
   132  008F                     	;# 
   133  0090                     	;# 
   134  0090                     	;# 
   135  0091                     	;# 
   136  0092                     	;# 
   137  0092                     	;# 
   138  0093                     	;# 
   139  0094                     	;# 
   140  0094                     	;# 
   141  0095                     	;# 
   142  0096                     	;# 
   143  0096                     	;# 
   144  0097                     	;# 
   145  0098                     	;# 
   146  0099                     	;# 
   147  009A                     	;# 
   148  009B                     	;# 
   149  009B                     	;# 
   150  009C                     	;# 
   151  009D                     	;# 
   152  009D                     	;# 
   153  009E                     	;# 
   154  009F                     	;# 
   155  010C                     	;# 
   156  010C                     	;# 
   157  010D                     	;# 
   158  010E                     	;# 
   159  010F                     	;# 
   160  010F                     	;# 
   161  0110                     	;# 
   162  0111                     	;# 
   163  0112                     	;# 
   164  0113                     	;# 
   165  0114                     	;# 
   166  0115                     	;# 
   167  0116                     	;# 
   168  0117                     	;# 
   169  0118                     	;# 
   170  0119                     	;# 
   171  0119                     	;# 
   172  0119                     	;# 
   173  011A                     	;# 
   174  011A                     	;# 
   175  011A                     	;# 
   176  011B                     	;# 
   177  011B                     	;# 
   178  011B                     	;# 
   179  011B                     	;# 
   180  011B                     	;# 
   181  011C                     	;# 
   182  011C                     	;# 
   183  011C                     	;# 
   184  011D                     	;# 
   185  011D                     	;# 
   186  011D                     	;# 
   187  011E                     	;# 
   188  011E                     	;# 
   189  011E                     	;# 
   190  011F                     	;# 
   191  011F                     	;# 
   192  011F                     	;# 
   193  011F                     	;# 
   194  011F                     	;# 
   195  018C                     	;# 
   196  018D                     	;# 
   197  018E                     	;# 
   198  018F                     	;# 
   199  0190                     	;# 
   200  0191                     	;# 
   201  0192                     	;# 
   202  020C                     	;# 
   203  020C                     	;# 
   204  020D                     	;# 
   205  020E                     	;# 
   206  020F                     	;# 
   207  020F                     	;# 
   208  0210                     	;# 
   209  0210                     	;# 
   210  0211                     	;# 
   211  0211                     	;# 
   212  021E                     	;# 
   213  028C                     	;# 
   214  028C                     	;# 
   215  028D                     	;# 
   216  028D                     	;# 
   217  028E                     	;# 
   218  028F                     	;# 
   219  0290                     	;# 
   220  0290                     	;# 
   221  0291                     	;# 
   222  0292                     	;# 
   223  0292                     	;# 
   224  0293                     	;# 
   225  0293                     	;# 
   226  0294                     	;# 
   227  0295                     	;# 
   228  0296                     	;# 
   229  0296                     	;# 
   230  0297                     	;# 
   231  030C                     	;# 
   232  030C                     	;# 
   233  030D                     	;# 
   234  030E                     	;# 
   235  030F                     	;# 
   236  0310                     	;# 
   237  0310                     	;# 
   238  0311                     	;# 
   239  0312                     	;# 
   240  0313                     	;# 
   241  0314                     	;# 
   242  0314                     	;# 
   243  0315                     	;# 
   244  0316                     	;# 
   245  0318                     	;# 
   246  0318                     	;# 
   247  0319                     	;# 
   248  031A                     	;# 
   249  048C                     	;# 
   250  048C                     	;# 
   251  048D                     	;# 
   252  048E                     	;# 
   253  048F                     	;# 
   254  048F                     	;# 
   255  0490                     	;# 
   256  0491                     	;# 
   257  0492                     	;# 
   258  0492                     	;# 
   259  0493                     	;# 
   260  0494                     	;# 
   261  0495                     	;# 
   262  0495                     	;# 
   263  0496                     	;# 
   264  0497                     	;# 
   265  0498                     	;# 
   266  0499                     	;# 
   267  049A                     	;# 
   268  049B                     	;# 
   269  049C                     	;# 
   270  049D                     	;# 
   271  059C                     	;# 
   272  059C                     	;# 
   273  059D                     	;# 
   274  059D                     	;# 
   275  059E                     	;# 
   276  059F                     	;# 
   277  060C                     	;# 
   278  060D                     	;# 
   279  060E                     	;# 
   280  060F                     	;# 
   281  0610                     	;# 
   282  0611                     	;# 
   283  0612                     	;# 
   284  0613                     	;# 
   285  0614                     	;# 
   286  070C                     	;# 
   287  070D                     	;# 
   288  070E                     	;# 
   289  070F                     	;# 
   290  0710                     	;# 
   291  0711                     	;# 
   292  0712                     	;# 
   293  0713                     	;# 
   294  0714                     	;# 
   295  0716                     	;# 
   296  0717                     	;# 
   297  0718                     	;# 
   298  0719                     	;# 
   299  071A                     	;# 
   300  071B                     	;# 
   301  071C                     	;# 
   302  071D                     	;# 
   303  071E                     	;# 
   304  0796                     	;# 
   305  0797                     	;# 
   306  0798                     	;# 
   307  0799                     	;# 
   308  079A                     	;# 
   309  079B                     	;# 
   310  080C                     	;# 
   311  080D                     	;# 
   312  080E                     	;# 
   313  080F                     	;# 
   314  0810                     	;# 
   315  0811                     	;# 
   316  0812                     	;# 
   317  0813                     	;# 
   318  0814                     	;# 
   319  081A                     	;# 
   320  081B                     	;# 
   321  081C                     	;# 
   322  081D                     	;# 
   323  081E                     	;# 
   324  081F                     	;# 
   325  088C                     	;# 
   326  088D                     	;# 
   327  088E                     	;# 
   328  088F                     	;# 
   329  0890                     	;# 
   330  0891                     	;# 
   331  0892                     	;# 
   332  0893                     	;# 
   333  0894                     	;# 
   334  090C                     	;# 
   335  090E                     	;# 
   336  090F                     	;# 
   337  091F                     	;# 
   338  098F                     	;# 
   339  098F                     	;# 
   340  0990                     	;# 
   341  0991                     	;# 
   342  0992                     	;# 
   343  0993                     	;# 
   344  0994                     	;# 
   345  0995                     	;# 
   346  0996                     	;# 
   347  0997                     	;# 
   348  0A19                     	;# 
   349  0A19                     	;# 
   350  0A1A                     	;# 
   351  0A1A                     	;# 
   352  0A1B                     	;# 
   353  0A1B                     	;# 
   354  0A1B                     	;# 
   355  0A1C                     	;# 
   356  0A1C                     	;# 
   357  0A1D                     	;# 
   358  0A1D                     	;# 
   359  0A1E                     	;# 
   360  0A1E                     	;# 
   361  0A1F                     	;# 
   362  0A1F                     	;# 
   363  0A1F                     	;# 
   364  0C0C                     	;# 
   365  0C0D                     	;# 
   366  0C0E                     	;# 
   367  0C0F                     	;# 
   368  0C10                     	;# 
   369  0C11                     	;# 
   370  0C12                     	;# 
   371  0C13                     	;# 
   372  0C14                     	;# 
   373  0C15                     	;# 
   374  0C16                     	;# 
   375  0C17                     	;# 
   376  0C18                     	;# 
   377  0C19                     	;# 
   378  0C1A                     	;# 
   379  0C1B                     	;# 
   380  0C1C                     	;# 
   381  0C8C                     	;# 
   382  0C8D                     	;# 
   383  0C8E                     	;# 
   384  0C8F                     	;# 
   385  0C90                     	;# 
   386  0C91                     	;# 
   387  0E8C                     	;# 
   388  0E8D                     	;# 
   389  0E8E                     	;# 
   390  0E8F                     	;# 
   391  1D0C                     	;# 
   392  1D0D                     	;# 
   393  1D0E                     	;# 
   394  1D0F                     	;# 
   395  1D10                     	;# 
   396  1D11                     	;# 
   397  1D12                     	;# 
   398  1D13                     	;# 
   399  1D14                     	;# 
   400  1D15                     	;# 
   401  1D16                     	;# 
   402  1D17                     	;# 
   403  1D18                     	;# 
   404  1D19                     	;# 
   405  1D1A                     	;# 
   406  1D1B                     	;# 
   407  1D1C                     	;# 
   408  1D1D                     	;# 
   409  1D1E                     	;# 
   410  1D1F                     	;# 
   411  1D20                     	;# 
   412  1D21                     	;# 
   413  1D22                     	;# 
   414  1D23                     	;# 
   415  1D24                     	;# 
   416  1D25                     	;# 
   417  1D26                     	;# 
   418  1D27                     	;# 
   419  1D28                     	;# 
   420  1D29                     	;# 
   421  1D2A                     	;# 
   422  1D2B                     	;# 
   423  1D2C                     	;# 
   424  1D2D                     	;# 
   425  1D2E                     	;# 
   426  1D2F                     	;# 
   427  1D30                     	;# 
   428  1D31                     	;# 
   429  1D32                     	;# 
   430  1D33                     	;# 
   431  1D34                     	;# 
   432  1D35                     	;# 
   433  1D36                     	;# 
   434  1D37                     	;# 
   435  1D38                     	;# 
   436  1D39                     	;# 
   437  1D3A                     	;# 
   438  1D3B                     	;# 
   439  1D3C                     	;# 
   440  1D3D                     	;# 
   441  1D3E                     	;# 
   442  1D3F                     	;# 
   443  1D40                     	;# 
   444  1D41                     	;# 
   445  1D42                     	;# 
   446  1D43                     	;# 
   447  1D44                     	;# 
   448  1D45                     	;# 
   449  1D46                     	;# 
   450  1D47                     	;# 
   451  1E0F                     	;# 
   452  1E10                     	;# 
   453  1E11                     	;# 
   454  1E12                     	;# 
   455  1E13                     	;# 
   456  1E14                     	;# 
   457  1E15                     	;# 
   458  1E16                     	;# 
   459  1E17                     	;# 
   460  1E18                     	;# 
   461  1E19                     	;# 
   462  1E1A                     	;# 
   463  1E1B                     	;# 
   464  1E1C                     	;# 
   465  1E1D                     	;# 
   466  1E1E                     	;# 
   467  1E1F                     	;# 
   468  1E20                     	;# 
   469  1E21                     	;# 
   470  1E22                     	;# 
   471  1E23                     	;# 
   472  1E24                     	;# 
   473  1E25                     	;# 
   474  1E26                     	;# 
   475  1E27                     	;# 
   476  1E28                     	;# 
   477  1E29                     	;# 
   478  1E2A                     	;# 
   479  1E2B                     	;# 
   480  1E2C                     	;# 
   481  1E2D                     	;# 
   482  1E2E                     	;# 
   483  1E2F                     	;# 
   484  1E30                     	;# 
   485  1E31                     	;# 
   486  1E32                     	;# 
   487  1E33                     	;# 
   488  1E34                     	;# 
   489  1E35                     	;# 
   490  1E36                     	;# 
   491  1E37                     	;# 
   492  1E38                     	;# 
   493  1E39                     	;# 
   494  1E3A                     	;# 
   495  1E3B                     	;# 
   496  1E3C                     	;# 
   497  1E3D                     	;# 
   498  1E3E                     	;# 
   499  1E3F                     	;# 
   500  1E40                     	;# 
   501  1E41                     	;# 
   502  1E42                     	;# 
   503  1E43                     	;# 
   504  1E44                     	;# 
   505  1E46                     	;# 
   506  1E47                     	;# 
   507  1E48                     	;# 
   508  1E49                     	;# 
   509  1E4A                     	;# 
   510  1E4B                     	;# 
   511  1E50                     	;# 
   512  1E51                     	;# 
   513  1E52                     	;# 
   514  1E53                     	;# 
   515  1E54                     	;# 
   516  1E55                     	;# 
   517  1E5B                     	;# 
   518  1E5C                     	;# 
   519  1E5D                     	;# 
   520  1E5E                     	;# 
   521  1E5F                     	;# 
   522  1E60                     	;# 
   523  1E61                     	;# 
   524  1E62                     	;# 
   525  1E67                     	;# 
   526  1E68                     	;# 
   527  1E69                     	;# 
   528  1E6A                     	;# 
   529  1E8F                     	;# 
   530  1E90                     	;# 
   531  1E91                     	;# 
   532  1E92                     	;# 
   533  1E93                     	;# 
   534  1E9C                     	;# 
   535  1E9D                     	;# 
   536  1EA1                     	;# 
   537  1EA2                     	;# 
   538  1EA9                     	;# 
   539  1EAA                     	;# 
   540  1EB1                     	;# 
   541  1EBB                     	;# 
   542  1EBC                     	;# 
   543  1EBD                     	;# 
   544  1EBE                     	;# 
   545  1EC3                     	;# 
   546  1EC5                     	;# 
   547  1EC6                     	;# 
   548  1EC7                     	;# 
   549  1ECB                     	;# 
   550  1ECC                     	;# 
   551  1ECD                     	;# 
   552  1ECE                     	;# 
   553  1F10                     	;# 
   554  1F11                     	;# 
   555  1F12                     	;# 
   556  1F13                     	;# 
   557  1F14                     	;# 
   558  1F15                     	;# 
   559  1F16                     	;# 
   560  1F17                     	;# 
   561  1F18                     	;# 
   562  1F19                     	;# 
   563  1F1A                     	;# 
   564  1F1B                     	;# 
   565  1F1C                     	;# 
   566  1F1D                     	;# 
   567  1F1E                     	;# 
   568  1F1F                     	;# 
   569  1F20                     	;# 
   570  1F21                     	;# 
   571  1F22                     	;# 
   572  1F23                     	;# 
   573  1F24                     	;# 
   574  1F25                     	;# 
   575  1F26                     	;# 
   576  1F27                     	;# 
   577  1F28                     	;# 
   578  1F29                     	;# 
   579  1F2A                     	;# 
   580  1F2B                     	;# 
   581  1F2C                     	;# 
   582  1F2D                     	;# 
   583  1F2E                     	;# 
   584  1F2F                     	;# 
   585  1F30                     	;# 
   586  1F31                     	;# 
   587  1F33                     	;# 
   588  1F34                     	;# 
   589  1F35                     	;# 
   590  1F36                     	;# 
   591  1F37                     	;# 
   592  1F38                     	;# 
   593  1F39                     	;# 
   594  1F3A                     	;# 
   595  1F3B                     	;# 
   596  1F3C                     	;# 
   597  1F43                     	;# 
   598  1F44                     	;# 
   599  1F45                     	;# 
   600  1F46                     	;# 
   601  1F47                     	;# 
   602  1F48                     	;# 
   603  1F49                     	;# 
   604  1F4A                     	;# 
   605  1F4E                     	;# 
   606  1F4F                     	;# 
   607  1F50                     	;# 
   608  1F51                     	;# 
   609  1F52                     	;# 
   610  1F53                     	;# 
   611  1F54                     	;# 
   612  1F55                     	;# 
   613  1F59                     	;# 
   614  1F5A                     	;# 
   615  1F5B                     	;# 
   616  1F5C                     	;# 
   617  1F5D                     	;# 
   618  1F64                     	;# 
   619  1F65                     	;# 
   620  1F66                     	;# 
   621  1F67                     	;# 
   622  1F68                     	;# 
   623  1F69                     	;# 
   624  1F6A                     	;# 
   625  1F6B                     	;# 
   626  1FE4                     	;# 
   627  1FE5                     	;# 
   628  1FE6                     	;# 
   629  1FE7                     	;# 
   630  1FE8                     	;# 
   631  1FE9                     	;# 
   632  1FEA                     	;# 
   633  1FEB                     	;# 
   634  1FED                     	;# 
   635  1FEE                     	;# 
   636  1FEF                     	;# 
   637  0000                     	;# 
   638  0001                     	;# 
   639  0002                     	;# 
   640  0003                     	;# 
   641  0004                     	;# 
   642  0005                     	;# 
   643  0006                     	;# 
   644  0007                     	;# 
   645  0008                     	;# 
   646  0009                     	;# 
   647  000A                     	;# 
   648  000B                     	;# 
   649  000C                     	;# 
   650  000D                     	;# 
   651  000E                     	;# 
   652  000F                     	;# 
   653  0010                     	;# 
   654  0011                     	;# 
   655  0012                     	;# 
   656  0013                     	;# 
   657  0014                     	;# 
   658  0015                     	;# 
   659  0016                     	;# 
   660  0017                     	;# 
   661  0018                     	;# 
   662  0019                     	;# 
   663  001A                     	;# 
   664  001B                     	;# 
   665  001C                     	;# 
   666  001D                     	;# 
   667  001F                     	;# 
   668  008C                     	;# 
   669  008C                     	;# 
   670  008D                     	;# 
   671  008E                     	;# 
   672  008E                     	;# 
   673  008F                     	;# 
   674  0090                     	;# 
   675  0090                     	;# 
   676  0091                     	;# 
   677  0092                     	;# 
   678  0092                     	;# 
   679  0093                     	;# 
   680  0094                     	;# 
   681  0094                     	;# 
   682  0095                     	;# 
   683  0096                     	;# 
   684  0096                     	;# 
   685  0097                     	;# 
   686  0098                     	;# 
   687  0099                     	;# 
   688  009A                     	;# 
   689  009B                     	;# 
   690  009B                     	;# 
   691  009C                     	;# 
   692  009D                     	;# 
   693  009D                     	;# 
   694  009E                     	;# 
   695  009F                     	;# 
   696  010C                     	;# 
   697  010C                     	;# 
   698  010D                     	;# 
   699  010E                     	;# 
   700  010F                     	;# 
   701  010F                     	;# 
   702  0110                     	;# 
   703  0111                     	;# 
   704  0112                     	;# 
   705  0113                     	;# 
   706  0114                     	;# 
   707  0115                     	;# 
   708  0116                     	;# 
   709  0117                     	;# 
   710  0118                     	;# 
   711  0119                     	;# 
   712  0119                     	;# 
   713  0119                     	;# 
   714  011A                     	;# 
   715  011A                     	;# 
   716  011A                     	;# 
   717  011B                     	;# 
   718  011B                     	;# 
   719  011B                     	;# 
   720  011B                     	;# 
   721  011B                     	;# 
   722  011C                     	;# 
   723  011C                     	;# 
   724  011C                     	;# 
   725  011D                     	;# 
   726  011D                     	;# 
   727  011D                     	;# 
   728  011E                     	;# 
   729  011E                     	;# 
   730  011E                     	;# 
   731  011F                     	;# 
   732  011F                     	;# 
   733  011F                     	;# 
   734  011F                     	;# 
   735  011F                     	;# 
   736  018C                     	;# 
   737  018D                     	;# 
   738  018E                     	;# 
   739  018F                     	;# 
   740  0190                     	;# 
   741  0191                     	;# 
   742  0192                     	;# 
   743  020C                     	;# 
   744  020C                     	;# 
   745  020D                     	;# 
   746  020E                     	;# 
   747  020F                     	;# 
   748  020F                     	;# 
   749  0210                     	;# 
   750  0210                     	;# 
   751  0211                     	;# 
   752  0211                     	;# 
   753  021E                     	;# 
   754  028C                     	;# 
   755  028C                     	;# 
   756  028D                     	;# 
   757  028D                     	;# 
   758  028E                     	;# 
   759  028F                     	;# 
   760  0290                     	;# 
   761  0290                     	;# 
   762  0291                     	;# 
   763  0292                     	;# 
   764  0292                     	;# 
   765  0293                     	;# 
   766  0293                     	;# 
   767  0294                     	;# 
   768  0295                     	;# 
   769  0296                     	;# 
   770  0296                     	;# 
   771  0297                     	;# 
   772  030C                     	;# 
   773  030C                     	;# 
   774  030D                     	;# 
   775  030E                     	;# 
   776  030F                     	;# 
   777  0310                     	;# 
   778  0310                     	;# 
   779  0311                     	;# 
   780  0312                     	;# 
   781  0313                     	;# 
   782  0314                     	;# 
   783  0314                     	;# 
   784  0315                     	;# 
   785  0316                     	;# 
   786  0318                     	;# 
   787  0318                     	;# 
   788  0319                     	;# 
   789  031A                     	;# 
   790  048C                     	;# 
   791  048C                     	;# 
   792  048D                     	;# 
   793  048E                     	;# 
   794  048F                     	;# 
   795  048F                     	;# 
   796  0490                     	;# 
   797  0491                     	;# 
   798  0492                     	;# 
   799  0492                     	;# 
   800  0493                     	;# 
   801  0494                     	;# 
   802  0495                     	;# 
   803  0495                     	;# 
   804  0496                     	;# 
   805  0497                     	;# 
   806  0498                     	;# 
   807  0499                     	;# 
   808  049A                     	;# 
   809  049B                     	;# 
   810  049C                     	;# 
   811  049D                     	;# 
   812  059C                     	;# 
   813  059C                     	;# 
   814  059D                     	;# 
   815  059D                     	;# 
   816  059E                     	;# 
   817  059F                     	;# 
   818  060C                     	;# 
   819  060D                     	;# 
   820  060E                     	;# 
   821  060F                     	;# 
   822  0610                     	;# 
   823  0611                     	;# 
   824  0612                     	;# 
   825  0613                     	;# 
   826  0614                     	;# 
   827  070C                     	;# 
   828  070D                     	;# 
   829  070E                     	;# 
   830  070F                     	;# 
   831  0710                     	;# 
   832  0711                     	;# 
   833  0712                     	;# 
   834  0713                     	;# 
   835  0714                     	;# 
   836  0716                     	;# 
   837  0717                     	;# 
   838  0718                     	;# 
   839  0719                     	;# 
   840  071A                     	;# 
   841  071B                     	;# 
   842  071C                     	;# 
   843  071D                     	;# 
   844  071E                     	;# 
   845  0796                     	;# 
   846  0797                     	;# 
   847  0798                     	;# 
   848  0799                     	;# 
   849  079A                     	;# 
   850  079B                     	;# 
   851  080C                     	;# 
   852  080D                     	;# 
   853  080E                     	;# 
   854  080F                     	;# 
   855  0810                     	;# 
   856  0811                     	;# 
   857  0812                     	;# 
   858  0813                     	;# 
   859  0814                     	;# 
   860  081A                     	;# 
   861  081B                     	;# 
   862  081C                     	;# 
   863  081D                     	;# 
   864  081E                     	;# 
   865  081F                     	;# 
   866  088C                     	;# 
   867  088D                     	;# 
   868  088E                     	;# 
   869  088F                     	;# 
   870  0890                     	;# 
   871  0891                     	;# 
   872  0892                     	;# 
   873  0893                     	;# 
   874  0894                     	;# 
   875  090C                     	;# 
   876  090E                     	;# 
   877  090F                     	;# 
   878  091F                     	;# 
   879  098F                     	;# 
   880  098F                     	;# 
   881  0990                     	;# 
   882  0991                     	;# 
   883  0992                     	;# 
   884  0993                     	;# 
   885  0994                     	;# 
   886  0995                     	;# 
   887  0996                     	;# 
   888  0997                     	;# 
   889  0A19                     	;# 
   890  0A19                     	;# 
   891  0A1A                     	;# 
   892  0A1A                     	;# 
   893  0A1B                     	;# 
   894  0A1B                     	;# 
   895  0A1B                     	;# 
   896  0A1C                     	;# 
   897  0A1C                     	;# 
   898  0A1D                     	;# 
   899  0A1D                     	;# 
   900  0A1E                     	;# 
   901  0A1E                     	;# 
   902  0A1F                     	;# 
   903  0A1F                     	;# 
   904  0A1F                     	;# 
   905  0C0C                     	;# 
   906  0C0D                     	;# 
   907  0C0E                     	;# 
   908  0C0F                     	;# 
   909  0C10                     	;# 
   910  0C11                     	;# 
   911  0C12                     	;# 
   912  0C13                     	;# 
   913  0C14                     	;# 
   914  0C15                     	;# 
   915  0C16                     	;# 
   916  0C17                     	;# 
   917  0C18                     	;# 
   918  0C19                     	;# 
   919  0C1A                     	;# 
   920  0C1B                     	;# 
   921  0C1C                     	;# 
   922  0C8C                     	;# 
   923  0C8D                     	;# 
   924  0C8E                     	;# 
   925  0C8F                     	;# 
   926  0C90                     	;# 
   927  0C91                     	;# 
   928  0E8C                     	;# 
   929  0E8D                     	;# 
   930  0E8E                     	;# 
   931  0E8F                     	;# 
   932  1D0C                     	;# 
   933  1D0D                     	;# 
   934  1D0E                     	;# 
   935  1D0F                     	;# 
   936  1D10                     	;# 
   937  1D11                     	;# 
   938  1D12                     	;# 
   939  1D13                     	;# 
   940  1D14                     	;# 
   941  1D15                     	;# 
   942  1D16                     	;# 
   943  1D17                     	;# 
   944  1D18                     	;# 
   945  1D19                     	;# 
   946  1D1A                     	;# 
   947  1D1B                     	;# 
   948  1D1C                     	;# 
   949  1D1D                     	;# 
   950  1D1E                     	;# 
   951  1D1F                     	;# 
   952  1D20                     	;# 
   953  1D21                     	;# 
   954  1D22                     	;# 
   955  1D23                     	;# 
   956  1D24                     	;# 
   957  1D25                     	;# 
   958  1D26                     	;# 
   959  1D27                     	;# 
   960  1D28                     	;# 
   961  1D29                     	;# 
   962  1D2A                     	;# 
   963  1D2B                     	;# 
   964  1D2C                     	;# 
   965  1D2D                     	;# 
   966  1D2E                     	;# 
   967  1D2F                     	;# 
   968  1D30                     	;# 
   969  1D31                     	;# 
   970  1D32                     	;# 
   971  1D33                     	;# 
   972  1D34                     	;# 
   973  1D35                     	;# 
   974  1D36                     	;# 
   975  1D37                     	;# 
   976  1D38                     	;# 
   977  1D39                     	;# 
   978  1D3A                     	;# 
   979  1D3B                     	;# 
   980  1D3C                     	;# 
   981  1D3D                     	;# 
   982  1D3E                     	;# 
   983  1D3F                     	;# 
   984  1D40                     	;# 
   985  1D41                     	;# 
   986  1D42                     	;# 
   987  1D43                     	;# 
   988  1D44                     	;# 
   989  1D45                     	;# 
   990  1D46                     	;# 
   991  1D47                     	;# 
   992  1E0F                     	;# 
   993  1E10                     	;# 
   994  1E11                     	;# 
   995  1E12                     	;# 
   996  1E13                     	;# 
   997  1E14                     	;# 
   998  1E15                     	;# 
   999  1E16                     	;# 
  1000  1E17                     	;# 
  1001  1E18                     	;# 
  1002  1E19                     	;# 
  1003  1E1A                     	;# 
  1004  1E1B                     	;# 
  1005  1E1C                     	;# 
  1006  1E1D                     	;# 
  1007  1E1E                     	;# 
  1008  1E1F                     	;# 
  1009  1E20                     	;# 
  1010  1E21                     	;# 
  1011  1E22                     	;# 
  1012  1E23                     	;# 
  1013  1E24                     	;# 
  1014  1E25                     	;# 
  1015  1E26                     	;# 
  1016  1E27                     	;# 
  1017  1E28                     	;# 
  1018  1E29                     	;# 
  1019  1E2A                     	;# 
  1020  1E2B                     	;# 
  1021  1E2C                     	;# 
  1022  1E2D                     	;# 
  1023  1E2E                     	;# 
  1024  1E2F                     	;# 
  1025  1E30                     	;# 
  1026  1E31                     	;# 
  1027  1E32                     	;# 
  1028  1E33                     	;# 
  1029  1E34                     	;# 
  1030  1E35                     	;# 
  1031  1E36                     	;# 
  1032  1E37                     	;# 
  1033  1E38                     	;# 
  1034  1E39                     	;# 
  1035  1E3A                     	;# 
  1036  1E3B                     	;# 
  1037  1E3C                     	;# 
  1038  1E3D                     	;# 
  1039  1E3E                     	;# 
  1040  1E3F                     	;# 
  1041  1E40                     	;# 
  1042  1E41                     	;# 
  1043  1E42                     	;# 
  1044  1E43                     	;# 
  1045  1E44                     	;# 
  1046  1E46                     	;# 
  1047  1E47                     	;# 
  1048  1E48                     	;# 
  1049  1E49                     	;# 
  1050  1E4A                     	;# 
  1051  1E4B                     	;# 
  1052  1E50                     	;# 
  1053  1E51                     	;# 
  1054  1E52                     	;# 
  1055  1E53                     	;# 
  1056  1E54                     	;# 
  1057  1E55                     	;# 
  1058  1E5B                     	;# 
  1059  1E5C                     	;# 
  1060  1E5D                     	;# 
  1061  1E5E                     	;# 
  1062  1E5F                     	;# 
  1063  1E60                     	;# 
  1064  1E61                     	;# 
  1065  1E62                     	;# 
  1066  1E67                     	;# 
  1067  1E68                     	;# 
  1068  1E69                     	;# 
  1069  1E6A                     	;# 
  1070  1E8F                     	;# 
  1071  1E90                     	;# 
  1072  1E91                     	;# 
  1073  1E92                     	;# 
  1074  1E93                     	;# 
  1075  1E9C                     	;# 
  1076  1E9D                     	;# 
  1077  1EA1                     	;# 
  1078  1EA2                     	;# 
  1079  1EA9                     	;# 
  1080  1EAA                     	;# 
  1081  1EB1                     	;# 
  1082  1EBB                     	;# 
  1083  1EBC                     	;# 
  1084  1EBD                     	;# 
  1085  1EBE                     	;# 
  1086  1EC3                     	;# 
  1087  1EC5                     	;# 
  1088  1EC6                     	;# 
  1089  1EC7                     	;# 
  1090  1ECB                     	;# 
  1091  1ECC                     	;# 
  1092  1ECD                     	;# 
  1093  1ECE                     	;# 
  1094  1F10                     	;# 
  1095  1F11                     	;# 
  1096  1F12                     	;# 
  1097  1F13                     	;# 
  1098  1F14                     	;# 
  1099  1F15                     	;# 
  1100  1F16                     	;# 
  1101  1F17                     	;# 
  1102  1F18                     	;# 
  1103  1F19                     	;# 
  1104  1F1A                     	;# 
  1105  1F1B                     	;# 
  1106  1F1C                     	;# 
  1107  1F1D                     	;# 
  1108  1F1E                     	;# 
  1109  1F1F                     	;# 
  1110  1F20                     	;# 
  1111  1F21                     	;# 
  1112  1F22                     	;# 
  1113  1F23                     	;# 
  1114  1F24                     	;# 
  1115  1F25                     	;# 
  1116  1F26                     	;# 
  1117  1F27                     	;# 
  1118  1F28                     	;# 
  1119  1F29                     	;# 
  1120  1F2A                     	;# 
  1121  1F2B                     	;# 
  1122  1F2C                     	;# 
  1123  1F2D                     	;# 
  1124  1F2E                     	;# 
  1125  1F2F                     	;# 
  1126  1F30                     	;# 
  1127  1F31                     	;# 
  1128  1F33                     	;# 
  1129  1F34                     	;# 
  1130  1F35                     	;# 
  1131  1F36                     	;# 
  1132  1F37                     	;# 
  1133  1F38                     	;# 
  1134  1F39                     	;# 
  1135  1F3A                     	;# 
  1136  1F3B                     	;# 
  1137  1F3C                     	;# 
  1138  1F43                     	;# 
  1139  1F44                     	;# 
  1140  1F45                     	;# 
  1141  1F46                     	;# 
  1142  1F47                     	;# 
  1143  1F48                     	;# 
  1144  1F49                     	;# 
  1145  1F4A                     	;# 
  1146  1F4E                     	;# 
  1147  1F4F                     	;# 
  1148  1F50                     	;# 
  1149  1F51                     	;# 
  1150  1F52                     	;# 
  1151  1F53                     	;# 
  1152  1F54                     	;# 
  1153  1F55                     	;# 
  1154  1F59                     	;# 
  1155  1F5A                     	;# 
  1156  1F5B                     	;# 
  1157  1F5C                     	;# 
  1158  1F5D                     	;# 
  1159  1F64                     	;# 
  1160  1F65                     	;# 
  1161  1F66                     	;# 
  1162  1F67                     	;# 
  1163  1F68                     	;# 
  1164  1F69                     	;# 
  1165  1F6A                     	;# 
  1166  1F6B                     	;# 
  1167  1FE4                     	;# 
  1168  1FE5                     	;# 
  1169  1FE6                     	;# 
  1170  1FE7                     	;# 
  1171  1FE8                     	;# 
  1172  1FE9                     	;# 
  1173  1FEA                     	;# 
  1174  1FEB                     	;# 
  1175  1FED                     	;# 
  1176  1FEE                     	;# 
  1177  1FEF                     	;# 
  1178                           
  1179                           	psect	idataBANK1
  1180  0BD6                     __pidataBANK1:
  1181                           
  1182                           ;initializer for stoa@F1139
  1183  0BD6  3428               	retlw	40
  1184  0BD7  346E               	retlw	110
  1185  0BD8  3475               	retlw	117
  1186  0BD9  346C               	retlw	108
  1187  0BDA  346C               	retlw	108
  1188  0BDB  3429               	retlw	41
  1189  0BDC  3400               	retlw	0
  1190                           
  1191                           	psect	stringtext1
  1192  10CF                     __pstringtext1:
  1193  10CF                     _Project:
  1194  10CF  3463               	retlw	99
  1195  10D0  3470               	retlw	112
  1196  10D1  3475               	retlw	117
  1197  10D2  342D               	retlw	45
  1198  10D3  3461               	retlw	97
  1199  10D4  3472               	retlw	114
  1200  10D5  3469               	retlw	105
  1201  10D6  3474               	retlw	116
  1202  10D7  3468               	retlw	104
  1203  10D8  342D               	retlw	45
  1204  10D9  3462               	retlw	98
  1205  10DA  3465               	retlw	101
  1206  10DB  346E               	retlw	110
  1207  10DC  3463               	retlw	99
  1208  10DD  3468               	retlw	104
  1209  10DE  346D               	retlw	109
  1210  10DF  3461               	retlw	97
  1211  10E0  3472               	retlw	114
  1212  10E1  346B               	retlw	107
  1213  10E2  3400               	retlw	0
  1214  10E3                     __end_of_Project:
  1215                           
  1216                           	psect	stringtext2
  1217  1132                     __pstringtext2:
  1218  1132                     _CompileDate:
  1219  1132  3453               	retlw	83
  1220  1133  3465               	retlw	101
  1221  1134  3470               	retlw	112
  1222  1135  3420               	retlw	32
  1223  1136  3431               	retlw	49
  1224  1137  3432               	retlw	50
  1225  1138  3420               	retlw	32
  1226  1139  3432               	retlw	50
  1227  113A  3430               	retlw	48
  1228  113B  3432               	retlw	50
  1229  113C  3430               	retlw	48
  1230  113D  3400               	retlw	0
  1231  113E                     __end_of_CompileDate:
  1232                           
  1233                           	psect	stringtext3
  1234  113E                     __pstringtext3:
  1235  113E                     _CompileTime:
  1236  113E  3431               	retlw	49
  1237  113F  3437               	retlw	55
  1238  1140  343A               	retlw	58
  1239  1141  3430               	retlw	48
  1240  1142  3435               	retlw	53
  1241  1143  343A               	retlw	58
  1242  1144  3432               	retlw	50
  1243  1145  3435               	retlw	53
  1244  1146  3400               	retlw	0
  1245  1147                     __end_of_CompileTime:
  1246                           
  1247                           	psect	stringtext4
  1248  1000                     __pstringtext4:
  1249  1000                     _Version:
  1250  1000  3430               	retlw	48
  1251  1001  3430               	retlw	48
  1252  1002  342E               	retlw	46
  1253  1003  3430               	retlw	48
  1254  1004  3431               	retlw	49
  1255  1005  3400               	retlw	0
  1256  1006                     __end_of_Version:
  1257  0014                     _TRISCbits	set	20
  1258  011A                     _TX1REG	set	282
  1259  011B                     _SP1BRGL	set	283
  1260  011C                     _SP1BRGH	set	284
  1261  011F                     _BAUD1CONbits	set	287
  1262  011E                     _TX1STAbits	set	286
  1263  011D                     _RC1STAbits	set	285
  1264  020C                     _TMR1L	set	524
  1265  020D                     _TMR1H	set	525
  1266  0211                     _T1CLKbits	set	529
  1267  020E                     _T1CONbits	set	526
  1268  0719                     _PIE3bits	set	1817
  1269  070F                     _PIR3bits	set	1807
  1270  1ECB                     _RX1PPS	set	7883
  1271  1E8F                     _PPSLOCKbits	set	7823
  1272  1E8F                     _PPSLOCK	set	7823
  1273  1F27                     _RC7PPS	set	7975
  1274  1006                     STR_1:
  1275  1006  3443               	retlw	67	;'C'
  1276  1007  346F               	retlw	111	;'o'
  1277  1008  346E               	retlw	110	;'n'
  1278  1009  3466               	retlw	102	;'f'
  1279  100A  3469               	retlw	105	;'i'
  1280  100B  3467               	retlw	103	;'g'
  1281  100C  3475               	retlw	117	;'u'
  1282  100D  3472               	retlw	114	;'r'
  1283  100E  3461               	retlw	97	;'a'
  1284  100F  3474               	retlw	116	;'t'
  1285  1010  3469               	retlw	105	;'i'
  1286  1011  346F               	retlw	111	;'o'
  1287  1012  346E               	retlw	110	;'n'
  1288  1013  343A               	retlw	58	;':'
  1289  1014  3420               	retlw	32	;' '
  1290  1015  3450               	retlw	80	;'P'
  1291  1016  3449               	retlw	73	;'I'
  1292  1017  3443               	retlw	67	;'C'
  1293  1018  3431               	retlw	49	;'1'
  1294  1019  3436               	retlw	54	;'6'
  1295  101A  3446               	retlw	70	;'F'
  1296  101B  3431               	retlw	49	;'1'
  1297  101C  3439               	retlw	57	;'9'
  1298  101D  3431               	retlw	49	;'1'
  1299  101E  3439               	retlw	57	;'9'
  1300  101F  3437               	retlw	55	;'7'
  1301  1020  3420               	retlw	32	;' '
  1302  1021  3442               	retlw	66	;'B'
  1303  1022  3461               	retlw	97	;'a'
  1304  1023  3473               	retlw	115	;'s'
  1305  1024  3469               	retlw	105	;'i'
  1306  1025  3463               	retlw	99	;'c'
  1307  1026  3420               	retlw	32	;' '
  1308  1027  3448               	retlw	72	;'H'
  1309  1028  346F               	retlw	111	;'o'
  1310  1029  346F               	retlw	111	;'o'
  1311  102A  346B               	retlw	107	;'k'
  1312  102B  3475               	retlw	117	;'u'
  1313  102C  3470               	retlw	112	;'p'
  1314  102D  3420               	retlw	32	;' '
  1315  102E  346F               	retlw	111	;'o'
  1316  102F  346E               	retlw	110	;'n'
  1317  1030  3420               	retlw	32	;' '
  1318  1031  3461               	retlw	97	;'a'
  1319  1032  3420               	retlw	32	;' '
  1320  1033  3442               	retlw	66	;'B'
  1321  1034  3472               	retlw	114	;'r'
  1322  1035  3465               	retlw	101	;'e'
  1323  1036  3461               	retlw	97	;'a'
  1324  1037  3464               	retlw	100	;'d'
  1325  1038  3462               	retlw	98	;'b'
  1326  1039  346F               	retlw	111	;'o'
  1327  103A  3461               	retlw	97	;'a'
  1328  103B  3472               	retlw	114	;'r'
  1329  103C  3464               	retlw	100	;'d'
  1330  103D  3420               	retlw	32	;' '
  1331  103E  3440               	retlw	64	;'@'
  1332  103F  3420               	retlw	32	;' '
  1333  1040  3438               	retlw	56	;'8'
  1334  1041  3420               	retlw	32	;' '
  1335  1042  344D               	retlw	77	;'M'
  1336  1043  3449               	retlw	73	;'I'
  1337  1044  3450               	retlw	80	;'P'
  1338  1045  3473               	retlw	115	;'s'
  1339  1046  340D               	retlw	13
  1340  1047  340A               	retlw	10
  1341  1048  3400               	retlw	0
  1342                           
  1343                           	psect	stringtext5
  1344  1049                     __pstringtext5:
  1345  1049                     STR_7:
  1346  1049  3466               	retlw	102	;'f'
  1347  104A  346C               	retlw	108	;'l'
  1348  104B  346F               	retlw	111	;'o'
  1349  104C  3461               	retlw	97	;'a'
  1350  104D  3474               	retlw	116	;'t'
  1351  104E  3436               	retlw	54	;'6'
  1352  104F  3434               	retlw	52	;'4'
  1353  1050  346D               	retlw	109	;'m'
  1354  1051  3475               	retlw	117	;'u'
  1355  1052  346C               	retlw	108	;'l'
  1356  1053  343A               	retlw	58	;':'
  1357  1054  3420               	retlw	32	;' '
  1358  1055  3425               	retlw	37	;'%'
  1359  1056  3464               	retlw	100	;'d'
  1360  1057  3420               	retlw	32	;' '
  1361  1058  3463               	retlw	99	;'c'
  1362  1059  3479               	retlw	121	;'y'
  1363  105A  3463               	retlw	99	;'c'
  1364  105B  346C               	retlw	108	;'l'
  1365  105C  3465               	retlw	101	;'e'
  1366  105D  3473               	retlw	115	;'s'
  1367  105E  340D               	retlw	13
  1368  105F  340A               	retlw	10
  1369  1060  340D               	retlw	13
  1370  1061  340A               	retlw	10
  1371  1062  3400               	retlw	0
  1372                           
  1373                           	psect	stringtext6
  1374  1063                     __pstringtext6:
  1375  1063                     STR_6:
  1376  1063  3466               	retlw	102	;'f'
  1377  1064  346C               	retlw	108	;'l'
  1378  1065  346F               	retlw	111	;'o'
  1379  1066  3461               	retlw	97	;'a'
  1380  1067  3474               	retlw	116	;'t'
  1381  1068  3433               	retlw	51	;'3'
  1382  1069  3432               	retlw	50	;'2'
  1383  106A  346D               	retlw	109	;'m'
  1384  106B  3475               	retlw	117	;'u'
  1385  106C  346C               	retlw	108	;'l'
  1386  106D  343A               	retlw	58	;':'
  1387  106E  3420               	retlw	32	;' '
  1388  106F  3425               	retlw	37	;'%'
  1389  1070  3464               	retlw	100	;'d'
  1390  1071  3420               	retlw	32	;' '
  1391  1072  3463               	retlw	99	;'c'
  1392  1073  3479               	retlw	121	;'y'
  1393  1074  3463               	retlw	99	;'c'
  1394  1075  346C               	retlw	108	;'l'
  1395  1076  3465               	retlw	101	;'e'
  1396  1077  3473               	retlw	115	;'s'
  1397  1078  340D               	retlw	13
  1398  1079  340A               	retlw	10
  1399  107A  3400               	retlw	0
  1400                           
  1401                           	psect	stringtext7
  1402  107B                     __pstringtext7:
  1403  107B                     STR_4:
  1404  107B  346D               	retlw	109	;'m'
  1405  107C  3475               	retlw	117	;'u'
  1406  107D  346C               	retlw	108	;'l'
  1407  107E  3438               	retlw	56	;'8'
  1408  107F  3428               	retlw	40	;'('
  1409  1080  3429               	retlw	41	;')'
  1410  1081  343A               	retlw	58	;':'
  1411  1082  3420               	retlw	32	;' '
  1412  1083  3420               	retlw	32	;' '
  1413  1084  3425               	retlw	37	;'%'
  1414  1085  3464               	retlw	100	;'d'
  1415  1086  3420               	retlw	32	;' '
  1416  1087  3463               	retlw	99	;'c'
  1417  1088  3479               	retlw	121	;'y'
  1418  1089  3463               	retlw	99	;'c'
  1419  108A  346C               	retlw	108	;'l'
  1420  108B  3465               	retlw	101	;'e'
  1421  108C  3473               	retlw	115	;'s'
  1422  108D  340D               	retlw	13
  1423  108E  340A               	retlw	10
  1424  108F  3400               	retlw	0
  1425                           
  1426                           	psect	stringtext8
  1427  1090                     __pstringtext8:
  1428  1090                     STR_2:
  1429  1090  3473               	retlw	115	;'s'
  1430  1091  3475               	retlw	117	;'u'
  1431  1092  346D               	retlw	109	;'m'
  1432  1093  3438               	retlw	56	;'8'
  1433  1094  3428               	retlw	40	;'('
  1434  1095  3429               	retlw	41	;')'
  1435  1096  343A               	retlw	58	;':'
  1436  1097  3420               	retlw	32	;' '
  1437  1098  3420               	retlw	32	;' '
  1438  1099  3425               	retlw	37	;'%'
  1439  109A  3464               	retlw	100	;'d'
  1440  109B  3420               	retlw	32	;' '
  1441  109C  3463               	retlw	99	;'c'
  1442  109D  3479               	retlw	121	;'y'
  1443  109E  3463               	retlw	99	;'c'
  1444  109F  346C               	retlw	108	;'l'
  1445  10A0  3465               	retlw	101	;'e'
  1446  10A1  3473               	retlw	115	;'s'
  1447  10A2  340D               	retlw	13
  1448  10A3  340A               	retlw	10
  1449  10A4  3400               	retlw	0
  1450                           
  1451                           	psect	stringtext9
  1452  10A5                     __pstringtext9:
  1453  10A5                     STR_5:
  1454  10A5  346D               	retlw	109	;'m'
  1455  10A6  3475               	retlw	117	;'u'
  1456  10A7  346C               	retlw	108	;'l'
  1457  10A8  3433               	retlw	51	;'3'
  1458  10A9  3432               	retlw	50	;'2'
  1459  10AA  3428               	retlw	40	;'('
  1460  10AB  3429               	retlw	41	;')'
  1461  10AC  343A               	retlw	58	;':'
  1462  10AD  3420               	retlw	32	;' '
  1463  10AE  3425               	retlw	37	;'%'
  1464  10AF  3464               	retlw	100	;'d'
  1465  10B0  3420               	retlw	32	;' '
  1466  10B1  3463               	retlw	99	;'c'
  1467  10B2  3479               	retlw	121	;'y'
  1468  10B3  3463               	retlw	99	;'c'
  1469  10B4  346C               	retlw	108	;'l'
  1470  10B5  3465               	retlw	101	;'e'
  1471  10B6  3473               	retlw	115	;'s'
  1472  10B7  340D               	retlw	13
  1473  10B8  340A               	retlw	10
  1474  10B9  3400               	retlw	0
  1475                           
  1476                           	psect	stringtext10
  1477  10BA                     __pstringtext10:
  1478  10BA                     STR_3:
  1479  10BA  3473               	retlw	115	;'s'
  1480  10BB  3475               	retlw	117	;'u'
  1481  10BC  346D               	retlw	109	;'m'
  1482  10BD  3433               	retlw	51	;'3'
  1483  10BE  3432               	retlw	50	;'2'
  1484  10BF  3428               	retlw	40	;'('
  1485  10C0  3429               	retlw	41	;')'
  1486  10C1  343A               	retlw	58	;':'
  1487  10C2  3420               	retlw	32	;' '
  1488  10C3  3425               	retlw	37	;'%'
  1489  10C4  3464               	retlw	100	;'d'
  1490  10C5  3420               	retlw	32	;' '
  1491  10C6  3463               	retlw	99	;'c'
  1492  10C7  3479               	retlw	121	;'y'
  1493  10C8  3463               	retlw	99	;'c'
  1494  10C9  346C               	retlw	108	;'l'
  1495  10CA  3465               	retlw	101	;'e'
  1496  10CB  3473               	retlw	115	;'s'
  1497  10CC  340D               	retlw	13
  1498  10CD  340A               	retlw	10
  1499  10CE  3400               	retlw	0
  1500                           
  1501                           	psect	stringtext11
  1502  10E3                     __pstringtext11:
  1503  10E3                     STR_12:
  1504  10E3  3442               	retlw	66	;'B'
  1505  10E4  3475               	retlw	117	;'u'
  1506  10E5  3469               	retlw	105	;'i'
  1507  10E6  346C               	retlw	108	;'l'
  1508  10E7  3464               	retlw	100	;'d'
  1509  10E8  3420               	retlw	32	;' '
  1510  10E9  3474               	retlw	116	;'t'
  1511  10EA  3469               	retlw	105	;'i'
  1512  10EB  346D               	retlw	109	;'m'
  1513  10EC  3465               	retlw	101	;'e'
  1514  10ED  343A               	retlw	58	;':'
  1515  10EE  3420               	retlw	32	;' '
  1516  10EF  3425               	retlw	37	;'%'
  1517  10F0  3473               	retlw	115	;'s'
  1518  10F1  340D               	retlw	13
  1519  10F2  340A               	retlw	10
  1520  10F3  340D               	retlw	13
  1521  10F4  340A               	retlw	10
  1522  10F5  3400               	retlw	0
  1523                           
  1524                           	psect	stringtext12
  1525  10F6                     __pstringtext12:
  1526  10F6                     STR_11:
  1527  10F6  3442               	retlw	66	;'B'
  1528  10F7  3475               	retlw	117	;'u'
  1529  10F8  3469               	retlw	105	;'i'
  1530  10F9  346C               	retlw	108	;'l'
  1531  10FA  3464               	retlw	100	;'d'
  1532  10FB  3420               	retlw	32	;' '
  1533  10FC  3464               	retlw	100	;'d'
  1534  10FD  3461               	retlw	97	;'a'
  1535  10FE  3474               	retlw	116	;'t'
  1536  10FF  3465               	retlw	101	;'e'
  1537  1100  343A               	retlw	58	;':'
  1538  1101  3420               	retlw	32	;' '
  1539  1102  3425               	retlw	37	;'%'
  1540  1103  3473               	retlw	115	;'s'
  1541  1104  340D               	retlw	13
  1542  1105  340A               	retlw	10
  1543  1106  3400               	retlw	0
  1544                           
  1545                           	psect	stringtext13
  1546  1107                     __pstringtext13:
  1547  1107                     STR_8:
  1548  1107  3443               	retlw	67	;'C'
  1549  1108  346F               	retlw	111	;'o'
  1550  1109  346F               	retlw	111	;'o'
  1551  110A  346C               	retlw	108	;'l'
  1552  110B  342D               	retlw	45	;'-'
  1553  110C  344D               	retlw	77	;'M'
  1554  110D  3443               	retlw	67	;'C'
  1555  110E  3455               	retlw	85	;'U'
  1556  110F  342E               	retlw	46	;'.'
  1557  1110  3463               	retlw	99	;'c'
  1558  1111  346F               	retlw	111	;'o'
  1559  1112  346D               	retlw	109	;'m'
  1560  1113  340D               	retlw	13
  1561  1114  340A               	retlw	10
  1562  1115  3400               	retlw	0
  1563                           
  1564                           	psect	stringtext14
  1565  1116                     __pstringtext14:
  1566  1116                     STR_10:
  1567  1116  3456               	retlw	86	;'V'
  1568  1117  3465               	retlw	101	;'e'
  1569  1118  3472               	retlw	114	;'r'
  1570  1119  3473               	retlw	115	;'s'
  1571  111A  3469               	retlw	105	;'i'
  1572  111B  346F               	retlw	111	;'o'
  1573  111C  346E               	retlw	110	;'n'
  1574  111D  343A               	retlw	58	;':'
  1575  111E  3420               	retlw	32	;' '
  1576  111F  3425               	retlw	37	;'%'
  1577  1120  3473               	retlw	115	;'s'
  1578  1121  340D               	retlw	13
  1579  1122  340A               	retlw	10
  1580  1123  3400               	retlw	0
  1581                           
  1582                           	psect	stringtext15
  1583  1124                     __pstringtext15:
  1584  1124                     STR_9:
  1585  1124  3450               	retlw	80	;'P'
  1586  1125  3472               	retlw	114	;'r'
  1587  1126  346F               	retlw	111	;'o'
  1588  1127  346A               	retlw	106	;'j'
  1589  1128  3465               	retlw	101	;'e'
  1590  1129  3463               	retlw	99	;'c'
  1591  112A  3474               	retlw	116	;'t'
  1592  112B  343A               	retlw	58	;':'
  1593  112C  3420               	retlw	32	;' '
  1594  112D  3425               	retlw	37	;'%'
  1595  112E  3473               	retlw	115	;'s'
  1596  112F  340D               	retlw	13
  1597  1130  340A               	retlw	10
  1598  1131  3400               	retlw	0
  1599                           
  1600                           	psect	stringtext16
  1601  0000                     __pstringtext16:
  1602                           
  1603                           	psect	cinit
  1604  07E1                     start_initialization:	
  1605                           ; #config settings
  1606                           
  1607  07E1                     __initialization:
  1608                           
  1609                           ; Initialize objects allocated to BANK1
  1610  07E1  30D6               	movlw	low __pidataBANK1
  1611  07E2  0084               	movwf	4
  1612  07E3  308B               	movlw	(high __pidataBANK1)| (0+128)
  1613  07E4  0085               	movwf	5
  1614  07E5  30E5               	movlw	low __pdataBANK1
  1615  07E6  0086               	movwf	6
  1616  07E7  3000               	movlw	high __pdataBANK1
  1617  07E8  0087               	movwf	7
  1618  07E9  3007               	movlw	7
  1619  07EA  318B  23C9  3187   	fcall	init_ram
  1620                           
  1621                           ; Clear objects allocated to BANK1
  1622  07ED  30A0               	movlw	low __pbssBANK1
  1623  07EE  0084               	movwf	4
  1624  07EF  3000               	movlw	high __pbssBANK1
  1625  07F0  0085               	movwf	5
  1626  07F1  3045               	movlw	69
  1627  07F2  318B  23C3  3187   	fcall	clear_ram0
  1628                           
  1629                           ; Clear objects allocated to BANK2
  1630  07F5  3020               	movlw	low __pbssBANK2
  1631  07F6  0084               	movwf	4
  1632  07F7  3001               	movlw	high __pbssBANK2
  1633  07F8  0085               	movwf	5
  1634  07F9  3020               	movlw	32
  1635  07FA  318B  23C3  3187   	fcall	clear_ram0
  1636  07FD                     end_of_initialization:	
  1637                           ;End of C runtime variable initialization code
  1638                           
  1639  07FD                     __end_of__initialization:
  1640  07FD  0140               	movlb	0
  1641  07FE  3183  2BA4         	ljmp	_main	;jump to C main() function
  1642                           
  1643                           	psect	bssBANK1
  1644  00A0                     __pbssBANK1:
  1645  00A0                     _h:
  1646  00A0                     	ds	8
  1647  00A8                     _n:
  1648  00A8                     	ds	4
  1649  00AC                     _m:
  1650  00AC                     	ds	4
  1651  00B0                     _l:
  1652  00B0                     	ds	4
  1653  00B4                     _k:
  1654  00B4                     	ds	4
  1655  00B8                     _j:
  1656  00B8                     	ds	4
  1657  00BC                     _i:
  1658  00BC                     	ds	4
  1659  00C0                     _f:
  1660  00C0                     	ds	4
  1661  00C4                     _e:
  1662  00C4                     	ds	4
  1663  00C8                     _d:
  1664  00C8                     	ds	4
  1665  00CC                     _nout:
  1666  00CC                     	ds	2
  1667  00CE                     _width:
  1668  00CE                     	ds	2
  1669  00D0                     _prec:
  1670  00D0                     	ds	2
  1671  00D2                     _flags:
  1672  00D2                     	ds	2
  1673  00D4                     _elapsedTicks_fp64:
  1674  00D4                     	ds	2
  1675  00D6                     _elapsedTicks_fp32:
  1676  00D6                     	ds	2
  1677  00D8                     _elapsedTicks_mul32:
  1678  00D8                     	ds	2
  1679  00DA                     _elapsedTicks_mul8:
  1680  00DA                     	ds	2
  1681  00DC                     _elapsedTicks_sum32:
  1682  00DC                     	ds	2
  1683  00DE                     _elapsedTicks_sum8:
  1684  00DE                     	ds	2
  1685  00E0                     _g:
  1686  00E0                     	ds	2
  1687  00E2                     _c:
  1688  00E2                     	ds	1
  1689  00E3                     _b:
  1690  00E3                     	ds	1
  1691  00E4                     _a:
  1692  00E4                     	ds	1
  1693                           
  1694                           	psect	dataBANK1
  1695  00E5                     __pdataBANK1:
  1696  00E5                     stoa@F1139:
  1697  00E5                     	ds	7
  1698                           
  1699                           	psect	bssBANK2
  1700  0120                     __pbssBANK2:
  1701  0120                     _dbuf:
  1702  0120                     	ds	32
  1703                           
  1704                           	psect	inittext
  1705  0BC9                     init_ram:
  1706  0BC9  00FE               	movwf	btemp
  1707  0BCA                     initloop:
  1708  0BCA  0012               	moviw fsr0++
  1709  0BCB  001E               	movwi fsr1++
  1710  0BCC  0BFE               	decfsz	btemp,f
  1711  0BCD  2BCA               	goto	initloop
  1712  0BCE  3400               	retlw	0
  1713                           
  1714                           	psect	clrtext
  1715  0BC3                     clear_ram0:	
  1716                           ;	Called with FSR0 containing the base address, and
  1717                           ;	WREG with the size to clear
  1718                           
  1719  0BC3  0064               	clrwdt	;clear the watchdog before getting into this loop
  1720  0BC4                     clrloop0:
  1721  0BC4  0180               	clrf	0	;clear RAM location pointed to by FSR
  1722  0BC5  3101               	addfsr 0,1
  1723  0BC6  0B89               	decfsz	9,f	;Have we reached the end of clearing yet?
  1724  0BC7  2BC4               	goto	clrloop0	;have we reached the end yet?
  1725  0BC8  3400               	retlw	0	;all done for this memory range, return
  1726                           
  1727                           	psect	cstackBANK1
  1728  00EC                     __pcstackBANK1:
  1729  00EC                     ??_main:
  1730                           
  1731                           ; 1 bytes @ 0x0
  1732  00EC                     	ds	2
  1733  00EE                     main@loop_count:
  1734                           
  1735                           ; 2 bytes @ 0x2
  1736  00EE                     	ds	2
  1737                           
  1738                           	psect	cstackCOMMON
  1739  0070                     __pcstackCOMMON:
  1740  0070                     ?_Initiallize:
  1741  0070                     ?_StopwatchRestart:	
  1742                           ; 1 bytes @ 0x0
  1743                           
  1744  0070                     ??_StopwatchRestart:	
  1745                           ; 1 bytes @ 0x0
  1746                           
  1747  0070                     ?_sum8:	
  1748                           ; 1 bytes @ 0x0
  1749                           
  1750  0070                     ?_SetPerformanceMode:	
  1751                           ; 1 bytes @ 0x0
  1752                           
  1753  0070                     ??_SetPerformanceMode:	
  1754                           ; 1 bytes @ 0x0
  1755                           
  1756  0070                     ?_PinConfig:	
  1757                           ; 1 bytes @ 0x0
  1758                           
  1759  0070                     ??_PinConfig:	
  1760                           ; 1 bytes @ 0x0
  1761                           
  1762  0070                     ?_UartConfig:	
  1763                           ; 1 bytes @ 0x0
  1764                           
  1765  0070                     ??_UartConfig:	
  1766                           ; 1 bytes @ 0x0
  1767                           
  1768  0070                     ?_StopwatchConfig:	
  1769                           ; 1 bytes @ 0x0
  1770                           
  1771  0070                     ??_StopwatchConfig:	
  1772                           ; 1 bytes @ 0x0
  1773                           
  1774  0070                     ?_putch:	
  1775                           ; 1 bytes @ 0x0
  1776                           
  1777  0070                     ??_putch:	
  1778                           ; 1 bytes @ 0x0
  1779                           
  1780  0070                     ??___aodiv:	
  1781                           ; 1 bytes @ 0x0
  1782                           
  1783  0070                     ??___aomod:	
  1784                           ; 1 bytes @ 0x0
  1785                           
  1786  0070                     ?_StopwatchRead:	
  1787                           ; 1 bytes @ 0x0
  1788                           
  1789  0070                     ?__Umul8_16:	
  1790                           ; 2 bytes @ 0x0
  1791                           
  1792  0070                     ?_strlen:	
  1793                           ; 2 bytes @ 0x0
  1794                           
  1795  0070                     ?_main:	
  1796                           ; 2 bytes @ 0x0
  1797                           
  1798  0070                     ?___wmul:	
  1799                           ; 2 bytes @ 0x0
  1800                           
  1801  0070                     ?_sum32:	
  1802                           ; 2 bytes @ 0x0
  1803                           
  1804  0070                     ?___lmul:	
  1805                           ; 4 bytes @ 0x0
  1806                           
  1807  0070                     putch@c:	
  1808                           ; 4 bytes @ 0x0
  1809                           
  1810  0070                     sum8@b:	
  1811                           ; 1 bytes @ 0x0
  1812                           
  1813  0070                     __Umul8_16@multiplicand:	
  1814                           ; 1 bytes @ 0x0
  1815                           
  1816  0070                     ___wmul@multiplier:	
  1817                           ; 1 bytes @ 0x0
  1818                           
  1819  0070                     strlen@s:	
  1820                           ; 2 bytes @ 0x0
  1821                           
  1822  0070                     sum32@a:	
  1823                           ; 2 bytes @ 0x0
  1824                           
  1825  0070                     ___lmul@multiplier:	
  1826                           ; 4 bytes @ 0x0
  1827                           
  1828                           
  1829                           ; 4 bytes @ 0x0
  1830  0070                     	ds	1
  1831  0071                     ??_sum8:
  1832  0071                     ?_fputc:	
  1833                           ; 1 bytes @ 0x1
  1834                           
  1835  0071                     sum8@a:	
  1836                           ; 2 bytes @ 0x1
  1837                           
  1838  0071                     ___aodiv@counter:	
  1839                           ; 1 bytes @ 0x1
  1840                           
  1841  0071                     ___aomod@counter:	
  1842                           ; 1 bytes @ 0x1
  1843                           
  1844  0071                     fputc@c:	
  1845                           ; 1 bytes @ 0x1
  1846                           
  1847                           
  1848                           ; 2 bytes @ 0x1
  1849  0071                     	ds	1
  1850  0072                     ??_StopwatchRead:
  1851  0072                     ??__Umul8_16:	
  1852                           ; 1 bytes @ 0x2
  1853                           
  1854  0072                     ??_strlen:	
  1855                           ; 1 bytes @ 0x2
  1856                           
  1857  0072                     ___aodiv@sign:	
  1858                           ; 1 bytes @ 0x2
  1859                           
  1860  0072                     ___aomod@sign:	
  1861                           ; 1 bytes @ 0x2
  1862                           
  1863  0072                     ___wmul@multiplicand:	
  1864                           ; 1 bytes @ 0x2
  1865                           
  1866                           
  1867                           ; 2 bytes @ 0x2
  1868  0072                     	ds	1
  1869  0073                     ?_abs:
  1870  0073                     fputc@fp:	
  1871                           ; 2 bytes @ 0x3
  1872                           
  1873  0073                     StopwatchRead@tmp:	
  1874                           ; 1 bytes @ 0x3
  1875                           
  1876  0073                     abs@a:	
  1877                           ; 2 bytes @ 0x3
  1878                           
  1879  0073                     strlen@a:	
  1880                           ; 2 bytes @ 0x3
  1881                           
  1882  0073                     ___aodiv@quotient:	
  1883                           ; 2 bytes @ 0x3
  1884                           
  1885                           
  1886                           ; 8 bytes @ 0x3
  1887  0073                     	ds	1
  1888  0074                     ??_fputc:
  1889  0074                     ??___wmul:	
  1890                           ; 1 bytes @ 0x4
  1891                           
  1892  0074                     ___wmul@product:	
  1893                           ; 1 bytes @ 0x4
  1894                           
  1895  0074                     __Umul8_16@product:	
  1896                           ; 2 bytes @ 0x4
  1897                           
  1898  0074                     sum32@b:	
  1899                           ; 2 bytes @ 0x4
  1900                           
  1901  0074                     ___lmul@multiplicand:	
  1902                           ; 4 bytes @ 0x4
  1903                           
  1904                           
  1905                           ; 4 bytes @ 0x4
  1906  0074                     	ds	1
  1907  0075                     ??_abs:
  1908                           
  1909                           ; 1 bytes @ 0x5
  1910  0075                     	ds	1
  1911  0076                     ?_mul8:
  1912  0076                     mul8@b:	
  1913                           ; 2 bytes @ 0x6
  1914                           
  1915  0076                     __Umul8_16@word_mpld:	
  1916                           ; 1 bytes @ 0x6
  1917                           
  1918                           
  1919                           ; 2 bytes @ 0x6
  1920  0076                     	ds	2
  1921  0078                     ??_sum32:
  1922  0078                     ??___lmul:	
  1923                           ; 1 bytes @ 0x8
  1924                           
  1925  0078                     __Umul8_16@multiplier:	
  1926                           ; 1 bytes @ 0x8
  1927                           
  1928  0078                     ___lmul@product:	
  1929                           ; 1 bytes @ 0x8
  1930                           
  1931                           
  1932                           ; 4 bytes @ 0x8
  1933  0078                     	ds	1
  1934  0079                     ??_mul8:
  1935  0079                     ??___flmul:	
  1936                           ; 1 bytes @ 0x9
  1937                           
  1938  0079                     ?_fputs:	
  1939                           ; 1 bytes @ 0x9
  1940                           
  1941  0079                     ?_stoa:	
  1942                           ; 2 bytes @ 0x9
  1943                           
  1944  0079                     mul8@a:	
  1945                           ; 2 bytes @ 0x9
  1946                           
  1947  0079                     fputs@fp:	
  1948                           ; 1 bytes @ 0x9
  1949                           
  1950  0079                     stoa@s:	
  1951                           ; 1 bytes @ 0x9
  1952                           
  1953                           
  1954                           ; 2 bytes @ 0x9
  1955  0079                     	ds	1
  1956  007A                     ??_fputs:
  1957                           
  1958                           ; 1 bytes @ 0xA
  1959  007A                     	ds	1
  1960  007B                     ??_stoa:
  1961                           
  1962                           ; 1 bytes @ 0xB
  1963  007B                     	ds	1
  1964  007C                     ??_mul32:
  1965                           
  1966                           ; 1 bytes @ 0xC
  1967  007C                     	ds	1
  1968  007D                     ??_pad:
  1969                           
  1970                           ; 1 bytes @ 0xD
  1971  007D                     	ds	1
  1972  007E                     ??_Initiallize:
  1973                           
  1974                           	psect	cstackBANK0
  1975  0020                     __pcstackBANK0:	
  1976                           ; 1 bytes @ 0xE
  1977                           
  1978  0020                     ?___flmul:
  1979  0020                     ?_mul32:	
  1980                           ; 4 bytes @ 0x0
  1981                           
  1982  0020                     ?___aodiv:	
  1983                           ; 8 bytes @ 0x0
  1984                           
  1985  0020                     ?___aomod:	
  1986                           ; 8 bytes @ 0x0
  1987                           
  1988  0020                     fputs@c:	
  1989                           ; 8 bytes @ 0x0
  1990                           
  1991  0020                     mul32@a:	
  1992                           ; 1 bytes @ 0x0
  1993                           
  1994  0020                     ___flmul@b:	
  1995                           ; 4 bytes @ 0x0
  1996                           
  1997  0020                     stoa@nuls:	
  1998                           ; 4 bytes @ 0x0
  1999                           
  2000  0020                     ___aodiv@divisor:	
  2001                           ; 7 bytes @ 0x0
  2002                           
  2003  0020                     ___aomod@divisor:	
  2004                           ; 8 bytes @ 0x0
  2005                           
  2006                           
  2007                           ; 8 bytes @ 0x0
  2008  0020                     	ds	1
  2009  0021                     fputs@i:
  2010                           
  2011                           ; 2 bytes @ 0x1
  2012  0021                     	ds	2
  2013  0023                     fputs@s:
  2014                           
  2015                           ; 1 bytes @ 0x3
  2016  0023                     	ds	1
  2017  0024                     ?_pad:
  2018  0024                     pad@buf:	
  2019                           ; 2 bytes @ 0x4
  2020                           
  2021  0024                     mul32@b:	
  2022                           ; 1 bytes @ 0x4
  2023                           
  2024  0024                     ___flmul@a:	
  2025                           ; 4 bytes @ 0x4
  2026                           
  2027                           
  2028                           ; 4 bytes @ 0x4
  2029  0024                     	ds	1
  2030  0025                     pad@p:
  2031                           
  2032                           ; 2 bytes @ 0x5
  2033  0025                     	ds	2
  2034  0027                     pad@i:
  2035  0027                     stoa@i:	
  2036                           ; 2 bytes @ 0x7
  2037                           
  2038                           
  2039                           ; 2 bytes @ 0x7
  2040  0027                     	ds	1
  2041  0028                     ___flmul@sign:
  2042  0028                     ___aodiv@dividend:	
  2043                           ; 1 bytes @ 0x8
  2044                           
  2045  0028                     ___aomod@dividend:	
  2046                           ; 8 bytes @ 0x8
  2047                           
  2048                           
  2049                           ; 8 bytes @ 0x8
  2050  0028                     	ds	1
  2051  0029                     pad@w:
  2052  0029                     stoa@w:	
  2053                           ; 2 bytes @ 0x9
  2054                           
  2055  0029                     ___flmul@grs:	
  2056                           ; 2 bytes @ 0x9
  2057                           
  2058                           
  2059                           ; 4 bytes @ 0x9
  2060  0029                     	ds	2
  2061  002B                     pad@fp:
  2062  002B                     stoa@cp:	
  2063                           ; 1 bytes @ 0xB
  2064                           
  2065                           
  2066                           ; 2 bytes @ 0xB
  2067  002B                     	ds	2
  2068  002D                     ___flmul@aexp:
  2069  002D                     stoa@fp:	
  2070                           ; 1 bytes @ 0xD
  2071                           
  2072                           
  2073                           ; 1 bytes @ 0xD
  2074  002D                     	ds	1
  2075  002E                     ___flmul@bexp:
  2076  002E                     stoa@p:	
  2077                           ; 1 bytes @ 0xE
  2078                           
  2079                           
  2080                           ; 2 bytes @ 0xE
  2081  002E                     	ds	1
  2082  002F                     ___flmul@prod:
  2083                           
  2084                           ; 4 bytes @ 0xF
  2085  002F                     	ds	1
  2086  0030                     ?_dtoa:
  2087  0030                     stoa@l:	
  2088                           ; 2 bytes @ 0x10
  2089                           
  2090  0030                     dtoa@d:	
  2091                           ; 2 bytes @ 0x10
  2092                           
  2093                           
  2094                           ; 8 bytes @ 0x10
  2095  0030                     	ds	3
  2096  0033                     ___flmul@temp:
  2097                           
  2098                           ; 2 bytes @ 0x13
  2099  0033                     	ds	5
  2100  0038                     ??_dtoa:
  2101                           
  2102                           ; 1 bytes @ 0x18
  2103  0038                     	ds	3
  2104  003B                     _dtoa$957:
  2105                           
  2106                           ; 2 bytes @ 0x1B
  2107  003B                     	ds	2
  2108  003D                     dtoa@p:
  2109                           
  2110                           ; 2 bytes @ 0x1D
  2111  003D                     	ds	2
  2112  003F                     dtoa@fp:
  2113                           
  2114                           ; 1 bytes @ 0x1F
  2115  003F                     	ds	1
  2116  0040                     dtoa@w:
  2117                           
  2118                           ; 2 bytes @ 0x20
  2119  0040                     	ds	2
  2120  0042                     dtoa@s:
  2121                           
  2122                           ; 2 bytes @ 0x22
  2123  0042                     	ds	2
  2124  0044                     dtoa@n:
  2125                           
  2126                           ; 8 bytes @ 0x24
  2127  0044                     	ds	8
  2128  004C                     dtoa@i:
  2129                           
  2130                           ; 2 bytes @ 0x2C
  2131  004C                     	ds	2
  2132  004E                     ?_vfpfcnvrt:
  2133  004E                     vfpfcnvrt@fmt:	
  2134                           ; 2 bytes @ 0x2E
  2135                           
  2136                           
  2137                           ; 1 bytes @ 0x2E
  2138  004E                     	ds	1
  2139  004F                     vfpfcnvrt@ap:
  2140                           
  2141                           ; 1 bytes @ 0x2F
  2142  004F                     	ds	1
  2143  0050                     ??_vfpfcnvrt:
  2144                           
  2145                           ; 1 bytes @ 0x30
  2146  0050                     	ds	5
  2147  0055                     vfpfcnvrt@ll:
  2148                           
  2149                           ; 8 bytes @ 0x35
  2150  0055                     	ds	8
  2151  005D                     vfpfcnvrt@cp:
  2152                           
  2153                           ; 2 bytes @ 0x3D
  2154  005D                     	ds	2
  2155  005F                     vfpfcnvrt@fp:
  2156                           
  2157                           ; 1 bytes @ 0x3F
  2158  005F                     	ds	1
  2159  0060                     ?_vfprintf:
  2160  0060                     vfprintf@fmt:	
  2161                           ; 2 bytes @ 0x40
  2162                           
  2163                           
  2164                           ; 2 bytes @ 0x40
  2165  0060                     	ds	2
  2166  0062                     vfprintf@ap:
  2167                           
  2168                           ; 1 bytes @ 0x42
  2169  0062                     	ds	1
  2170  0063                     ??_vfprintf:
  2171                           
  2172                           ; 1 bytes @ 0x43
  2173  0063                     	ds	2
  2174  0065                     vfprintf@fp:
  2175                           
  2176                           ; 1 bytes @ 0x45
  2177  0065                     	ds	1
  2178  0066                     vfprintf@cfmt:
  2179                           
  2180                           ; 2 bytes @ 0x46
  2181  0066                     	ds	2
  2182  0068                     ?_printf:
  2183  0068                     printf@fmt:	
  2184                           ; 2 bytes @ 0x48
  2185                           
  2186                           
  2187                           ; 2 bytes @ 0x48
  2188  0068                     	ds	4
  2189  006C                     ??_printf:
  2190                           
  2191                           ; 1 bytes @ 0x4C
  2192  006C                     	ds	3
  2193  006F                     printf@ap:
  2194                           
  2195                           ; 1 bytes @ 0x4F
  2196  006F                     	ds	1
  2197                           
  2198                           	psect	maintext
  2199  03A4                     __pmaintext:	
  2200 ;;
  2201 ;;Main: autosize = 0, tempsize = 2, incstack = 0, save=0
  2202 ;;
  2203 ;; *************** function _main *****************
  2204 ;; Defined at:
  2205 ;;		line 88 in file "main.c"
  2206 ;; Parameters:    Size  Location     Type
  2207 ;;		None
  2208 ;; Auto vars:     Size  Location     Type
  2209 ;;  loop_count      2    2[BANK1 ] int 
  2210 ;; Return value:  Size  Location     Type
  2211 ;;                  2  112[None  ] int 
  2212 ;; Registers used:
  2213 ;;		wreg, fsr0l, fsr0h, fsr1l, fsr1h, status,2, status,0, pclath, cstack
  2214 ;; Tracked objects:
  2215 ;;		On entry : B3F/0
  2216 ;;		On exit  : 0/0
  2217 ;;		Unchanged: 0/0
  2218 ;; Data sizes:     COMMON   BANK0   BANK1   BANK2   BANK3   BANK4   BANK5   BANK6   BANK7   BANK8   BANK9  BANK10  BANK1
      +1  BANK12  BANK13  BANK14  BANK15  BANK16  BANK17  BANK18  BANK19  BANK20  BANK21  BANK22  BANK23  BANK24  BANK25  BANK2
      +6  BANK27  BANK28  BANK29  BANK30  BANK31  BANK32  BANK33  BANK34  BANK35  BANK36  BANK37  BANK38  BANK39  BANK40  BANK4
      +1  BANK42  BANK43  BANK44  BANK45  BANK46  BANK47  BANK48  BANK49  BANK50
  2219 ;;      Params:         0       0       0       0       0       0       0       0       0       0       0       0       
      +0       0       0       0       0       0       0       0       0       0       0       0       0       0       0       
      +0       0       0       0       0       0       0       0       0       0       0       0       0       0       0       
      +0       0       0       0       0       0       0       0       0       0
  2220 ;;      Locals:         0       0       2       0       0       0       0       0       0       0       0       0       
      +0       0       0       0       0       0       0       0       0       0       0       0       0       0       0       
      +0       0       0       0       0       0       0       0       0       0       0       0       0       0       0       
      +0       0       0       0       0       0       0       0       0       0
  2221 ;;      Temps:          0       0       2       0       0       0       0       0       0       0       0       0       
      +0       0       0       0       0       0       0       0       0       0       0       0       0       0       0       
      +0       0       0       0       0       0       0       0       0       0       0       0       0       0       0       
      +0       0       0       0       0       0       0       0       0       0
  2222 ;;      Totals:         0       0       4       0       0       0       0       0       0       0       0       0       
      +0       0       0       0       0       0       0       0       0       0       0       0       0       0       0       
      +0       0       0       0       0       0       0       0       0       0       0       0       0       0       0       
      +0       0       0       0       0       0       0       0       0       0
  2223 ;;Total ram usage:        4 bytes
  2224 ;; Hardware stack levels required when called:    9
  2225 ;; This function calls:
  2226 ;;		_Initiallize
  2227 ;;		_StopwatchRead
  2228 ;;		_StopwatchRestart
  2229 ;;		___flmul
  2230 ;;		_mul32
  2231 ;;		_mul8
  2232 ;;		_printf
  2233 ;;		_sum32
  2234 ;;		_sum8
  2235 ;; This function is called by:
  2236 ;;		Startup code after reset
  2237 ;; This function uses a non-reentrant model
  2238 ;;
  2239                           
  2240                           
  2241                           ;psect for function _main
  2242  03A4                     _main:
  2243  03A4                     l2099:	
  2244                           ;incstack = 0
  2245                           ; Regs used in _main: [wreg-fsr1h+status,2+status,0+pclath+cstack]
  2246                           
  2247                           
  2248                           ;main.c: 90:     int loop_count;;main.c: 92:     Initiallize();
  2249  03A4  318D  259E  3183   	fcall	_Initiallize
  2250  03A7                     l2101:
  2251                           
  2252                           ;main.c: 95:     for(loop_count=0;loop_count<=1;loop_count++){
  2253  03A7  0141               	movlb	1	; select bank1
  2254  03A8  01EE               	clrf	main@loop_count^(0+128)
  2255  03A9  01EF               	clrf	(main@loop_count+1)^(0+128)
  2256  03AA                     l2107:
  2257                           
  2258                           ;main.c: 98:         a = 2;
  2259  03AA  3002               	movlw	2
  2260  03AB  0141               	movlb	1	; select bank1
  2261  03AC  00EC               	movwf	??_main^(0+128)
  2262  03AD  086C               	movf	??_main^(0+128),w
  2263  03AE  00E4               	movwf	_a^(0+128)
  2264                           
  2265                           ;main.c: 99:         b = 3;
  2266  03AF  3003               	movlw	3
  2267  03B0  00EC               	movwf	??_main^(0+128)
  2268  03B1  086C               	movf	??_main^(0+128),w
  2269  03B2  00E3               	movwf	_b^(0+128)
  2270  03B3                     l2109:
  2271                           
  2272                           ;main.c: 102:         StopwatchRestart();
  2273  03B3  318B  23BE  3183   	fcall	_StopwatchRestart
  2274  03B6                     l2111:
  2275                           
  2276                           ;main.c: 103:         __nop();
  2277  03B6  0000               	nop
  2278                           
  2279                           ;main.c: 104:         c = sum8(a, b);
  2280  03B7  3003               	movlw	3
  2281  03B8  0141               	movlb	1	; select bank1
  2282  03B9  00EC               	movwf	??_main^(0+128)
  2283  03BA  086C               	movf	??_main^(0+128),w
  2284  03BB  00F0               	movwf	sum8@b
  2285  03BC  3002               	movlw	2
  2286  03BD  318B  23BA  3183   	fcall	_sum8
  2287  03C0  0141               	movlb	1	; select bank1
  2288  03C1  00ED               	movwf	(??_main+1)^(0+128)
  2289  03C2  086D               	movf	(??_main+1)^(0+128),w
  2290  03C3  00E2               	movwf	_c^(0+128)
  2291  03C4                     l2113:
  2292                           
  2293                           ;main.c: 105:         __nop();
  2294  03C4  0000               	nop
  2295                           
  2296                           ;main.c: 106:         elapsedTicks_sum8.Full = StopwatchRead() - 9;
  2297  03C5  318B  23E6  3183   	fcall	_StopwatchRead
  2298  03C8  0870               	movf	?_StopwatchRead,w
  2299  03C9  3EF7               	addlw	247
  2300  03CA  0141               	movlb	1	; select bank1
  2301  03CB  00DE               	movwf	_elapsedTicks_sum8^(0+128)
  2302  03CC  30FF               	movlw	255
  2303  03CD  3D71               	addwfc	?_StopwatchRead+1,w
  2304  03CE  00DF               	movwf	(_elapsedTicks_sum8+1)^(0+128)
  2305  03CF                     l2115:
  2306                           
  2307                           ;main.c: 109:         StopwatchRestart();
  2308  03CF  318B  23BE  3183   	fcall	_StopwatchRestart
  2309  03D2                     l2117:
  2310                           
  2311                           ;main.c: 110:         __nop();
  2312  03D2  0000               	nop
  2313  03D3                     l2119:
  2314                           
  2315                           ;main.c: 111:         g = mul8(a, b);
  2316  03D3  3003               	movlw	3
  2317  03D4  0141               	movlb	1	; select bank1
  2318  03D5  00EC               	movwf	??_main^(0+128)
  2319  03D6  086C               	movf	??_main^(0+128),w
  2320  03D7  00F6               	movwf	mul8@b
  2321  03D8  3002               	movlw	2
  2322  03D9  318C  241A  3183   	fcall	_mul8
  2323  03DC  0877               	movf	?_mul8+1,w
  2324  03DD  0141               	movlb	1	; select bank1
  2325  03DE  00E1               	movwf	(_g+1)^(0+128)
  2326  03DF  0876               	movf	?_mul8,w
  2327  03E0  00E0               	movwf	_g^(0+128)
  2328  03E1                     l2121:
  2329                           
  2330                           ;main.c: 112:         __nop();
  2331  03E1  0000               	nop
  2332  03E2                     l2123:
  2333                           
  2334                           ;main.c: 113:         elapsedTicks_mul8.Full = StopwatchRead() - 9;
  2335  03E2  318B  23E6  3183   	fcall	_StopwatchRead
  2336  03E5  0870               	movf	?_StopwatchRead,w
  2337  03E6  3EF7               	addlw	247
  2338  03E7  0141               	movlb	1	; select bank1
  2339  03E8  00DA               	movwf	_elapsedTicks_mul8^(0+128)
  2340  03E9  30FF               	movlw	255
  2341  03EA  3D71               	addwfc	?_StopwatchRead+1,w
  2342  03EB  00DB               	movwf	(_elapsedTicks_mul8+1)^(0+128)
  2343                           
  2344                           ;main.c: 116:         d = 4;
  2345  03EC  3000               	movlw	0
  2346  03ED  00CB               	movwf	(_d+3)^(0+128)
  2347  03EE  3000               	movlw	0
  2348  03EF  00CA               	movwf	(_d+2)^(0+128)
  2349  03F0  3000               	movlw	0
  2350  03F1  00C9               	movwf	(_d+1)^(0+128)
  2351  03F2  3004               	movlw	4
  2352  03F3  00C8               	movwf	_d^(0+128)
  2353                           
  2354                           ;main.c: 117:         e = 5;
  2355  03F4  3000               	movlw	0
  2356  03F5  00C7               	movwf	(_e+3)^(0+128)
  2357  03F6  3000               	movlw	0
  2358  03F7  00C6               	movwf	(_e+2)^(0+128)
  2359  03F8  3000               	movlw	0
  2360  03F9  00C5               	movwf	(_e+1)^(0+128)
  2361  03FA  3005               	movlw	5
  2362  03FB  00C4               	movwf	_e^(0+128)
  2363  03FC                     l2125:
  2364                           
  2365                           ;main.c: 120:         StopwatchRestart();
  2366  03FC  318B  23BE  3183   	fcall	_StopwatchRestart
  2367  03FF                     l2127:
  2368                           
  2369                           ;main.c: 121:         __nop();
  2370  03FF  0000               	nop
  2371  0400                     l2129:
  2372                           
  2373                           ;main.c: 122:         f = sum32(d, e);
  2374  0400  3000               	movlw	0
  2375  0401  00F3               	movwf	sum32@a+3
  2376  0402  3000               	movlw	0
  2377  0403  00F2               	movwf	sum32@a+2
  2378  0404  3000               	movlw	0
  2379  0405  00F1               	movwf	sum32@a+1
  2380  0406  3004               	movlw	4
  2381  0407  00F0               	movwf	sum32@a
  2382  0408  3000               	movlw	0
  2383  0409  00F7               	movwf	sum32@b+3
  2384  040A  3000               	movlw	0
  2385  040B  00F6               	movwf	sum32@b+2
  2386  040C  3000               	movlw	0
  2387  040D  00F5               	movwf	sum32@b+1
  2388  040E  3005               	movlw	5
  2389  040F  00F4               	movwf	sum32@b
  2390  0410  318C  2442  3183   	fcall	_sum32
  2391  0413  0873               	movf	?_sum32+3,w
  2392  0414  0141               	movlb	1	; select bank1
  2393  0415  00C3               	movwf	(_f+3)^(0+128)
  2394  0416  0872               	movf	?_sum32+2,w
  2395  0417  00C2               	movwf	(_f+2)^(0+128)
  2396  0418  0871               	movf	?_sum32+1,w
  2397  0419  00C1               	movwf	(_f+1)^(0+128)
  2398  041A  0870               	movf	?_sum32,w
  2399  041B  00C0               	movwf	_f^(0+128)
  2400  041C                     l2131:
  2401                           
  2402                           ;main.c: 123:         __nop();
  2403  041C  0000               	nop
  2404  041D                     l2133:
  2405                           
  2406                           ;main.c: 124:         elapsedTicks_sum32.Full = StopwatchRead() - 9;
  2407  041D  318B  23E6  3183   	fcall	_StopwatchRead
  2408  0420  0870               	movf	?_StopwatchRead,w
  2409  0421  3EF7               	addlw	247
  2410  0422  0141               	movlb	1	; select bank1
  2411  0423  00DC               	movwf	_elapsedTicks_sum32^(0+128)
  2412  0424  30FF               	movlw	255
  2413  0425  3D71               	addwfc	?_StopwatchRead+1,w
  2414  0426  00DD               	movwf	(_elapsedTicks_sum32+1)^(0+128)
  2415  0427                     l2135:
  2416                           
  2417                           ;main.c: 127:         StopwatchRestart();
  2418  0427  318B  23BE  3183   	fcall	_StopwatchRestart
  2419  042A                     l2137:
  2420                           
  2421                           ;main.c: 128:         __nop();
  2422  042A  0000               	nop
  2423  042B                     l2139:
  2424                           
  2425                           ;main.c: 129:         h = mul32(d, e);
  2426  042B  3000               	movlw	0
  2427  042C  0140               	movlb	0	; select bank0
  2428  042D  00A3               	movwf	mul32@a+3
  2429  042E  3000               	movlw	0
  2430  042F  00A2               	movwf	mul32@a+2
  2431  0430  3000               	movlw	0
  2432  0431  00A1               	movwf	mul32@a+1
  2433  0432  3004               	movlw	4
  2434  0433  00A0               	movwf	mul32@a
  2435  0434  3000               	movlw	0
  2436  0435  00A7               	movwf	mul32@b+3
  2437  0436  3000               	movlw	0
  2438  0437  00A6               	movwf	mul32@b+2
  2439  0438  3000               	movlw	0
  2440  0439  00A5               	movwf	mul32@b+1
  2441  043A  3005               	movlw	5
  2442  043B  00A4               	movwf	mul32@b
  2443  043C  318C  24AD  3183   	fcall	_mul32
  2444  043F  0140               	movlb	0	; select bank0
  2445  0440  0820               	movf	?_mul32,w
  2446  0441  0141               	movlb	1	; select bank1
  2447  0442  00A0               	movwf	_h^(0+128)
  2448  0443  0140               	movlb	0	; select bank0
  2449  0444  0821               	movf	?_mul32+1,w
  2450  0445  0141               	movlb	1	; select bank1
  2451  0446  00A1               	movwf	(_h+1)^(0+128)
  2452  0447  0140               	movlb	0	; select bank0
  2453  0448  0822               	movf	?_mul32+2,w
  2454  0449  0141               	movlb	1	; select bank1
  2455  044A  00A2               	movwf	(_h+2)^(0+128)
  2456  044B  0140               	movlb	0	; select bank0
  2457  044C  0823               	movf	?_mul32+3,w
  2458  044D  0141               	movlb	1	; select bank1
  2459  044E  00A3               	movwf	(_h+3)^(0+128)
  2460  044F  0140               	movlb	0	; select bank0
  2461  0450  0824               	movf	?_mul32+4,w
  2462  0451  0141               	movlb	1	; select bank1
  2463  0452  00A4               	movwf	(_h+4)^(0+128)
  2464  0453  0140               	movlb	0	; select bank0
  2465  0454  0825               	movf	?_mul32+5,w
  2466  0455  0141               	movlb	1	; select bank1
  2467  0456  00A5               	movwf	(_h+5)^(0+128)
  2468  0457  0140               	movlb	0	; select bank0
  2469  0458  0826               	movf	?_mul32+6,w
  2470  0459  0141               	movlb	1	; select bank1
  2471  045A  00A6               	movwf	(_h+6)^(0+128)
  2472  045B  0140               	movlb	0	; select bank0
  2473  045C  0827               	movf	?_mul32+7,w
  2474  045D  0141               	movlb	1	; select bank1
  2475  045E  00A7               	movwf	(_h+7)^(0+128)
  2476  045F                     l2141:
  2477                           
  2478                           ;main.c: 130:         __nop();
  2479  045F  0000               	nop
  2480  0460                     l2143:
  2481                           
  2482                           ;main.c: 131:         elapsedTicks_mul32.Full = StopwatchRead() - 9;
  2483  0460  318B  23E6  3183   	fcall	_StopwatchRead
  2484  0463  0870               	movf	?_StopwatchRead,w
  2485  0464  3EF7               	addlw	247
  2486  0465  0141               	movlb	1	; select bank1
  2487  0466  00D8               	movwf	_elapsedTicks_mul32^(0+128)
  2488  0467  30FF               	movlw	255
  2489  0468  3D71               	addwfc	?_StopwatchRead+1,w
  2490  0469  00D9               	movwf	(_elapsedTicks_mul32+1)^(0+128)
  2491  046A                     l2145:
  2492                           
  2493                           ;main.c: 134:         i = 6.0;
  2494  046A  3040               	movlw	64
  2495  046B  00BF               	movwf	(_i+3)^(0+128)
  2496  046C  30C0               	movlw	192
  2497  046D  00BE               	movwf	(_i+2)^(0+128)
  2498  046E  3000               	movlw	0
  2499  046F  00BD               	movwf	(_i+1)^(0+128)
  2500  0470  3000               	movlw	0
  2501  0471  00BC               	movwf	_i^(0+128)
  2502  0472                     l2147:
  2503                           
  2504                           ;main.c: 135:         j = -7.125;
  2505  0472  30C0               	movlw	192
  2506  0473  00BB               	movwf	(_j+3)^(0+128)
  2507  0474  30E4               	movlw	228
  2508  0475  00BA               	movwf	(_j+2)^(0+128)
  2509  0476  3000               	movlw	0
  2510  0477  00B9               	movwf	(_j+1)^(0+128)
  2511  0478  3000               	movlw	0
  2512  0479  00B8               	movwf	_j^(0+128)
  2513  047A                     l2149:
  2514                           
  2515                           ;main.c: 138:         StopwatchRestart();
  2516  047A  318B  23BE  3183   	fcall	_StopwatchRestart
  2517  047D                     l2151:
  2518                           
  2519                           ;main.c: 139:         __nop();
  2520  047D  0000               	nop
  2521  047E                     l2153:
  2522                           
  2523                           ;main.c: 140:         k = i*j;
  2524  047E  0141               	movlb	1	; select bank1
  2525  047F  083B               	movf	(_j+3)^(0+128),w
  2526  0480  0140               	movlb	0	; select bank0
  2527  0481  00A3               	movwf	___flmul@b+3
  2528  0482  0141               	movlb	1	; select bank1
  2529  0483  083A               	movf	(_j+2)^(0+128),w
  2530  0484  0140               	movlb	0	; select bank0
  2531  0485  00A2               	movwf	___flmul@b+2
  2532  0486  0141               	movlb	1	; select bank1
  2533  0487  0839               	movf	(_j+1)^(0+128),w
  2534  0488  0140               	movlb	0	; select bank0
  2535  0489  00A1               	movwf	___flmul@b+1
  2536  048A  0141               	movlb	1	; select bank1
  2537  048B  0838               	movf	_j^(0+128),w
  2538  048C  0140               	movlb	0	; select bank0
  2539  048D  00A0               	movwf	___flmul@b
  2540  048E  0141               	movlb	1	; select bank1
  2541  048F  083F               	movf	(_i+3)^(0+128),w
  2542  0490  0140               	movlb	0	; select bank0
  2543  0491  00A7               	movwf	___flmul@a+3
  2544  0492  0141               	movlb	1	; select bank1
  2545  0493  083E               	movf	(_i+2)^(0+128),w
  2546  0494  0140               	movlb	0	; select bank0
  2547  0495  00A6               	movwf	___flmul@a+2
  2548  0496  0141               	movlb	1	; select bank1
  2549  0497  083D               	movf	(_i+1)^(0+128),w
  2550  0498  0140               	movlb	0	; select bank0
  2551  0499  00A5               	movwf	___flmul@a+1
  2552  049A  0141               	movlb	1	; select bank1
  2553  049B  083C               	movf	_i^(0+128),w
  2554  049C  0140               	movlb	0	; select bank0
  2555  049D  00A4               	movwf	___flmul@a
  2556  049E  3185  258A  3183   	fcall	___flmul
  2557  04A1  0140               	movlb	0	; select bank0
  2558  04A2  0823               	movf	?___flmul+3,w
  2559  04A3  0141               	movlb	1	; select bank1
  2560  04A4  00B7               	movwf	(_k+3)^(0+128)
  2561  04A5  0140               	movlb	0	; select bank0
  2562  04A6  0822               	movf	?___flmul+2,w
  2563  04A7  0141               	movlb	1	; select bank1
  2564  04A8  00B6               	movwf	(_k+2)^(0+128)
  2565  04A9  0140               	movlb	0	; select bank0
  2566  04AA  0821               	movf	?___flmul+1,w
  2567  04AB  0141               	movlb	1	; select bank1
  2568  04AC  00B5               	movwf	(_k+1)^(0+128)
  2569  04AD  0140               	movlb	0	; select bank0
  2570  04AE  0820               	movf	?___flmul,w
  2571  04AF  0141               	movlb	1	; select bank1
  2572  04B0  00B4               	movwf	_k^(0+128)
  2573  04B1                     l2155:
  2574                           
  2575                           ;main.c: 141:         __nop();
  2576  04B1  0000               	nop
  2577  04B2                     l2157:
  2578                           
  2579                           ;main.c: 142:         elapsedTicks_fp32.Full = StopwatchRead() - 9;
  2580  04B2  318B  23E6  3183   	fcall	_StopwatchRead
  2581  04B5  0870               	movf	?_StopwatchRead,w
  2582  04B6  3EF7               	addlw	247
  2583  04B7  0141               	movlb	1	; select bank1
  2584  04B8  00D6               	movwf	_elapsedTicks_fp32^(0+128)
  2585  04B9  30FF               	movlw	255
  2586  04BA  3D71               	addwfc	?_StopwatchRead+1,w
  2587  04BB  00D7               	movwf	(_elapsedTicks_fp32+1)^(0+128)
  2588  04BC                     l2159:
  2589                           
  2590                           ;main.c: 145:         l = 6.8;
  2591  04BC  3040               	movlw	64
  2592  04BD  00B3               	movwf	(_l+3)^(0+128)
  2593  04BE  30D9               	movlw	217
  2594  04BF  00B2               	movwf	(_l+2)^(0+128)
  2595  04C0  3099               	movlw	153
  2596  04C1  00B1               	movwf	(_l+1)^(0+128)
  2597  04C2  309A               	movlw	154
  2598  04C3  00B0               	movwf	_l^(0+128)
  2599  04C4                     l2161:
  2600                           
  2601                           ;main.c: 146:         m = -7.125;
  2602  04C4  30C0               	movlw	192
  2603  04C5  00AF               	movwf	(_m+3)^(0+128)
  2604  04C6  30E4               	movlw	228
  2605  04C7  00AE               	movwf	(_m+2)^(0+128)
  2606  04C8  3000               	movlw	0
  2607  04C9  00AD               	movwf	(_m+1)^(0+128)
  2608  04CA  3000               	movlw	0
  2609  04CB  00AC               	movwf	_m^(0+128)
  2610  04CC                     l2163:
  2611                           
  2612                           ;main.c: 149:         StopwatchRestart();
  2613  04CC  318B  23BE  3183   	fcall	_StopwatchRestart
  2614  04CF                     l2165:
  2615                           
  2616                           ;main.c: 150:         __nop();
  2617  04CF  0000               	nop
  2618  04D0                     l2167:
  2619                           
  2620                           ;main.c: 151:         n = l*m;
  2621  04D0  0141               	movlb	1	; select bank1
  2622  04D1  082F               	movf	(_m+3)^(0+128),w
  2623  04D2  0140               	movlb	0	; select bank0
  2624  04D3  00A3               	movwf	___flmul@b+3
  2625  04D4  0141               	movlb	1	; select bank1
  2626  04D5  082E               	movf	(_m+2)^(0+128),w
  2627  04D6  0140               	movlb	0	; select bank0
  2628  04D7  00A2               	movwf	___flmul@b+2
  2629  04D8  0141               	movlb	1	; select bank1
  2630  04D9  082D               	movf	(_m+1)^(0+128),w
  2631  04DA  0140               	movlb	0	; select bank0
  2632  04DB  00A1               	movwf	___flmul@b+1
  2633  04DC  0141               	movlb	1	; select bank1
  2634  04DD  082C               	movf	_m^(0+128),w
  2635  04DE  0140               	movlb	0	; select bank0
  2636  04DF  00A0               	movwf	___flmul@b
  2637  04E0  0141               	movlb	1	; select bank1
  2638  04E1  0833               	movf	(_l+3)^(0+128),w
  2639  04E2  0140               	movlb	0	; select bank0
  2640  04E3  00A7               	movwf	___flmul@a+3
  2641  04E4  0141               	movlb	1	; select bank1
  2642  04E5  0832               	movf	(_l+2)^(0+128),w
  2643  04E6  0140               	movlb	0	; select bank0
  2644  04E7  00A6               	movwf	___flmul@a+2
  2645  04E8  0141               	movlb	1	; select bank1
  2646  04E9  0831               	movf	(_l+1)^(0+128),w
  2647  04EA  0140               	movlb	0	; select bank0
  2648  04EB  00A5               	movwf	___flmul@a+1
  2649  04EC  0141               	movlb	1	; select bank1
  2650  04ED  0830               	movf	_l^(0+128),w
  2651  04EE  0140               	movlb	0	; select bank0
  2652  04EF  00A4               	movwf	___flmul@a
  2653  04F0  3185  258A  3183   	fcall	___flmul
  2654  04F3  0140               	movlb	0	; select bank0
  2655  04F4  0823               	movf	?___flmul+3,w
  2656  04F5  0141               	movlb	1	; select bank1
  2657  04F6  00AB               	movwf	(_n+3)^(0+128)
  2658  04F7  0140               	movlb	0	; select bank0
  2659  04F8  0822               	movf	?___flmul+2,w
  2660  04F9  0141               	movlb	1	; select bank1
  2661  04FA  00AA               	movwf	(_n+2)^(0+128)
  2662  04FB  0140               	movlb	0	; select bank0
  2663  04FC  0821               	movf	?___flmul+1,w
  2664  04FD  0141               	movlb	1	; select bank1
  2665  04FE  00A9               	movwf	(_n+1)^(0+128)
  2666  04FF  0140               	movlb	0	; select bank0
  2667  0500  0820               	movf	?___flmul,w
  2668  0501  0141               	movlb	1	; select bank1
  2669  0502  00A8               	movwf	_n^(0+128)
  2670  0503                     l2169:
  2671                           
  2672                           ;main.c: 152:         __nop();
  2673  0503  0000               	nop
  2674  0504                     l2171:
  2675                           
  2676                           ;main.c: 153:         elapsedTicks_fp64.Full = StopwatchRead() - 9;
  2677  0504  318B  23E6  3183   	fcall	_StopwatchRead
  2678  0507  0870               	movf	?_StopwatchRead,w
  2679  0508  3EF7               	addlw	247
  2680  0509  0141               	movlb	1	; select bank1
  2681  050A  00D4               	movwf	_elapsedTicks_fp64^(0+128)
  2682  050B  30FF               	movlw	255
  2683  050C  3D71               	addwfc	?_StopwatchRead+1,w
  2684  050D  00D5               	movwf	(_elapsedTicks_fp64+1)^(0+128)
  2685  050E                     l2173:
  2686                           
  2687                           ;main.c: 154:     }
  2688  050E  3001               	movlw	1
  2689  050F  07EE               	addwf	main@loop_count^(0+128),f
  2690  0510  3000               	movlw	0
  2691  0511  3DEF               	addwfc	(main@loop_count+1)^(0+128),f
  2692  0512                     l2175:
  2693  0512  086F               	movf	(main@loop_count+1)^(0+128),w
  2694  0513  3A80               	xorlw	128
  2695  0514  00EC               	movwf	??_main^(0+128)
  2696  0515  3080               	movlw	128
  2697  0516  026C               	subwf	??_main^(0+128),w
  2698  0517  1D03               	skipz
  2699  0518  2D1B               	goto	u2045
  2700  0519  3002               	movlw	2
  2701  051A  026E               	subwf	main@loop_count^(0+128),w
  2702  051B                     u2045:
  2703  051B  1C03               	skipc
  2704  051C  2D1E               	goto	u2041
  2705  051D  2D1F               	goto	u2040
  2706  051E                     u2041:
  2707  051E  2BAA               	goto	l2107
  2708  051F                     u2040:
  2709  051F                     l2177:
  2710                           
  2711                           ;main.c: 158:     printf("Configuration: PIC16F19197 Basic Hookup on a Breadboard @ 8 MI
      +                          Ps\r\n");
  2712  051F  3006               	movlw	low (STR_1| (0+32768))
  2713  0520  0140               	movlb	0	; select bank0
  2714  0521  00E8               	movwf	printf@fmt
  2715  0522  3090               	movlw	high (STR_1| (0+32768))
  2716  0523  00E9               	movwf	printf@fmt+1
  2717  0524  318B  23F5  3183   	fcall	_printf
  2718                           
  2719                           ;main.c: 164:     printf("sum8():  %d cycles\r\n", elapsedTicks_sum8.Full);
  2720  0527  3090               	movlw	low (STR_2| (0+32768))
  2721  0528  0140               	movlb	0	; select bank0
  2722  0529  00E8               	movwf	printf@fmt
  2723  052A  3090               	movlw	high (STR_2| (0+32768))
  2724  052B  00E9               	movwf	printf@fmt+1
  2725  052C  0141               	movlb	1	; select bank1
  2726  052D  085F               	movf	(_elapsedTicks_sum8+1)^(0+128),w
  2727  052E  0140               	movlb	0	; select bank0
  2728  052F  00EB               	movwf	?_printf+3
  2729  0530  0141               	movlb	1	; select bank1
  2730  0531  085E               	movf	_elapsedTicks_sum8^(0+128),w
  2731  0532  0140               	movlb	0	; select bank0
  2732  0533  00EA               	movwf	?_printf+2
  2733  0534  318B  23F5  3183   	fcall	_printf
  2734                           
  2735                           ;main.c: 165:     printf("sum32(): %d cycles\r\n", elapsedTicks_sum32.Full);
  2736  0537  30BA               	movlw	low (STR_3| (0+32768))
  2737  0538  0140               	movlb	0	; select bank0
  2738  0539  00E8               	movwf	printf@fmt
  2739  053A  3090               	movlw	high (STR_3| (0+32768))
  2740  053B  00E9               	movwf	printf@fmt+1
  2741  053C  0141               	movlb	1	; select bank1
  2742  053D  085D               	movf	(_elapsedTicks_sum32+1)^(0+128),w
  2743  053E  0140               	movlb	0	; select bank0
  2744  053F  00EB               	movwf	?_printf+3
  2745  0540  0141               	movlb	1	; select bank1
  2746  0541  085C               	movf	_elapsedTicks_sum32^(0+128),w
  2747  0542  0140               	movlb	0	; select bank0
  2748  0543  00EA               	movwf	?_printf+2
  2749  0544  318B  23F5  3183   	fcall	_printf
  2750                           
  2751                           ;main.c: 166:     printf("mul8():  %d cycles\r\n", elapsedTicks_mul8.Full);
  2752  0547  307B               	movlw	low (STR_4| (0+32768))
  2753  0548  0140               	movlb	0	; select bank0
  2754  0549  00E8               	movwf	printf@fmt
  2755  054A  3090               	movlw	high (STR_4| (0+32768))
  2756  054B  00E9               	movwf	printf@fmt+1
  2757  054C  0141               	movlb	1	; select bank1
  2758  054D  085B               	movf	(_elapsedTicks_mul8+1)^(0+128),w
  2759  054E  0140               	movlb	0	; select bank0
  2760  054F  00EB               	movwf	?_printf+3
  2761  0550  0141               	movlb	1	; select bank1
  2762  0551  085A               	movf	_elapsedTicks_mul8^(0+128),w
  2763  0552  0140               	movlb	0	; select bank0
  2764  0553  00EA               	movwf	?_printf+2
  2765  0554  318B  23F5  3183   	fcall	_printf
  2766                           
  2767                           ;main.c: 167:     printf("mul32(): %d cycles\r\n", elapsedTicks_mul32.Full);
  2768  0557  30A5               	movlw	low (STR_5| (0+32768))
  2769  0558  0140               	movlb	0	; select bank0
  2770  0559  00E8               	movwf	printf@fmt
  2771  055A  3090               	movlw	high (STR_5| (0+32768))
  2772  055B  00E9               	movwf	printf@fmt+1
  2773  055C  0141               	movlb	1	; select bank1
  2774  055D  0859               	movf	(_elapsedTicks_mul32+1)^(0+128),w
  2775  055E  0140               	movlb	0	; select bank0
  2776  055F  00EB               	movwf	?_printf+3
  2777  0560  0141               	movlb	1	; select bank1
  2778  0561  0858               	movf	_elapsedTicks_mul32^(0+128),w
  2779  0562  0140               	movlb	0	; select bank0
  2780  0563  00EA               	movwf	?_printf+2
  2781  0564  318B  23F5  3183   	fcall	_printf
  2782                           
  2783                           ;main.c: 168:     printf("float32mul: %d cycles\r\n", elapsedTicks_fp32.Full);
  2784  0567  3063               	movlw	low (STR_6| (0+32768))
  2785  0568  0140               	movlb	0	; select bank0
  2786  0569  00E8               	movwf	printf@fmt
  2787  056A  3090               	movlw	high (STR_6| (0+32768))
  2788  056B  00E9               	movwf	printf@fmt+1
  2789  056C  0141               	movlb	1	; select bank1
  2790  056D  0857               	movf	(_elapsedTicks_fp32+1)^(0+128),w
  2791  056E  0140               	movlb	0	; select bank0
  2792  056F  00EB               	movwf	?_printf+3
  2793  0570  0141               	movlb	1	; select bank1
  2794  0571  0856               	movf	_elapsedTicks_fp32^(0+128),w
  2795  0572  0140               	movlb	0	; select bank0
  2796  0573  00EA               	movwf	?_printf+2
  2797  0574  318B  23F5  3183   	fcall	_printf
  2798                           
  2799                           ;main.c: 169:     printf("float64mul: %d cycles\r\n\r\n", elapsedTicks_fp64.Full);
  2800  0577  3049               	movlw	low (STR_7| (0+32768))
  2801  0578  0140               	movlb	0	; select bank0
  2802  0579  00E8               	movwf	printf@fmt
  2803  057A  3090               	movlw	high (STR_7| (0+32768))
  2804  057B  00E9               	movwf	printf@fmt+1
  2805  057C  0141               	movlb	1	; select bank1
  2806  057D  0855               	movf	(_elapsedTicks_fp64+1)^(0+128),w
  2807  057E  0140               	movlb	0	; select bank0
  2808  057F  00EB               	movwf	?_printf+3
  2809  0580  0141               	movlb	1	; select bank1
  2810  0581  0854               	movf	_elapsedTicks_fp64^(0+128),w
  2811  0582  0140               	movlb	0	; select bank0
  2812  0583  00EA               	movwf	?_printf+2
  2813  0584  318B  23F5  3183   	fcall	_printf
  2814  0587                     l115:	
  2815                           ;main.c: 171:     while(1);
  2816                           
  2817  0587                     l116:
  2818  0587  2D87               	goto	l115
  2819  0588  3180  2802         	ljmp	start
  2820  058A                     __end_of_main:
  2821                           
  2822                           	psect	text1
  2823  0BBA                     __ptext1:	
  2824 ;; *************** function _sum8 *****************
  2825 ;; Defined at:
  2826 ;;		line 516 in file "main.c"
  2827 ;; Parameters:    Size  Location     Type
  2828 ;;  a               1    wreg     char 
  2829 ;;  b               1    0[COMMON] char 
  2830 ;; Auto vars:     Size  Location     Type
  2831 ;;  a               1    1[COMMON] char 
  2832 ;; Return value:  Size  Location     Type
  2833 ;;                  1    wreg      char 
  2834 ;; Registers used:
  2835 ;;		wreg, status,2, status,0
  2836 ;; Tracked objects:
  2837 ;;		On entry : 0/0
  2838 ;;		On exit  : 0/0
  2839 ;;		Unchanged: 0/0
  2840 ;; Data sizes:     COMMON   BANK0   BANK1   BANK2   BANK3   BANK4   BANK5   BANK6   BANK7   BANK8   BANK9  BANK10  BANK1
      +1  BANK12  BANK13  BANK14  BANK15  BANK16  BANK17  BANK18  BANK19  BANK20  BANK21  BANK22  BANK23  BANK24  BANK25  BANK2
      +6  BANK27  BANK28  BANK29  BANK30  BANK31  BANK32  BANK33  BANK34  BANK35  BANK36  BANK37  BANK38  BANK39  BANK40  BANK4
      +1  BANK42  BANK43  BANK44  BANK45  BANK46  BANK47  BANK48  BANK49  BANK50
  2841 ;;      Params:         1       0       0       0       0       0       0       0       0       0       0       0       
      +0       0       0       0       0       0       0       0       0       0       0       0       0       0       0       
      +0       0       0       0       0       0       0       0       0       0       0       0       0       0       0       
      +0       0       0       0       0       0       0       0       0       0
  2842 ;;      Locals:         1       0       0       0       0       0       0       0       0       0       0       0       
      +0       0       0       0       0       0       0       0       0       0       0       0       0       0       0       
      +0       0       0       0       0       0       0       0       0       0       0       0       0       0       0       
      +0       0       0       0       0       0       0       0       0       0
  2843 ;;      Temps:          0       0       0       0       0       0       0       0       0       0       0       0       
      +0       0       0       0       0       0       0       0       0       0       0       0       0       0       0       
      +0       0       0       0       0       0       0       0       0       0       0       0       0       0       0       
      +0       0       0       0       0       0       0       0       0       0
  2844 ;;      Totals:         2       0       0       0       0       0       0       0       0       0       0       0       
      +0       0       0       0       0       0       0       0       0       0       0       0       0       0       0       
      +0       0       0       0       0       0       0       0       0       0       0       0       0       0       0       
      +0       0       0       0       0       0       0       0       0       0
  2845 ;;Total ram usage:        2 bytes
  2846 ;; Hardware stack levels used:    1
  2847 ;; This function calls:
  2848 ;;		Nothing
  2849 ;; This function is called by:
  2850 ;;		_main
  2851 ;; This function uses a non-reentrant model
  2852 ;;
  2853                           
  2854                           
  2855                           ;psect for function _sum8
  2856  0BBA                     _sum8:
  2857                           
  2858                           ;incstack = 0
  2859                           ; Regs used in _sum8: [wreg+status,2+status,0]
  2860                           ;sum8@a stored from wreg
  2861  0BBA  00F1               	movwf	sum8@a
  2862  0BBB                     l1937:
  2863                           
  2864                           ;main.c: 517:     return (a + b);
  2865  0BBB  0871               	movf	sum8@a,w
  2866  0BBC  0770               	addwf	sum8@b,w
  2867  0BBD                     l148:
  2868  0BBD  0008               	return
  2869  0BBE                     __end_of_sum8:
  2870                           
  2871                           	psect	text2
  2872  0C42                     __ptext2:	
  2873 ;; *************** function _sum32 *****************
  2874 ;; Defined at:
  2875 ;;		line 520 in file "main.c"
  2876 ;; Parameters:    Size  Location     Type
  2877 ;;  a               4    0[COMMON] long 
  2878 ;;  b               4    4[COMMON] long 
  2879 ;; Auto vars:     Size  Location     Type
  2880 ;;		None
  2881 ;; Return value:  Size  Location     Type
  2882 ;;                  4    0[COMMON] long 
  2883 ;; Registers used:
  2884 ;;		wreg
  2885 ;; Tracked objects:
  2886 ;;		On entry : 0/0
  2887 ;;		On exit  : 0/0
  2888 ;;		Unchanged: 0/0
  2889 ;; Data sizes:     COMMON   BANK0   BANK1   BANK2   BANK3   BANK4   BANK5   BANK6   BANK7   BANK8   BANK9  BANK10  BANK1
      +1  BANK12  BANK13  BANK14  BANK15  BANK16  BANK17  BANK18  BANK19  BANK20  BANK21  BANK22  BANK23  BANK24  BANK25  BANK2
      +6  BANK27  BANK28  BANK29  BANK30  BANK31  BANK32  BANK33  BANK34  BANK35  BANK36  BANK37  BANK38  BANK39  BANK40  BANK4
      +1  BANK42  BANK43  BANK44  BANK45  BANK46  BANK47  BANK48  BANK49  BANK50
  2890 ;;      Params:         8       0       0       0       0       0       0       0       0       0       0       0       
      +0       0       0       0       0       0       0       0       0       0       0       0       0       0       0       
      +0       0       0       0       0       0       0       0       0       0       0       0       0       0       0       
      +0       0       0       0       0       0       0       0       0       0
  2891 ;;      Locals:         0       0       0       0       0       0       0       0       0       0       0       0       
      +0       0       0       0       0       0       0       0       0       0       0       0       0       0       0       
      +0       0       0       0       0       0       0       0       0       0       0       0       0       0       0       
      +0       0       0       0       0       0       0       0       0       0
  2892 ;;      Temps:          4       0       0       0       0       0       0       0       0       0       0       0       
      +0       0       0       0       0       0       0       0       0       0       0       0       0       0       0       
      +0       0       0       0       0       0       0       0       0       0       0       0       0       0       0       
      +0       0       0       0       0       0       0       0       0       0
  2893 ;;      Totals:        12       0       0       0       0       0       0       0       0       0       0       0       
      +0       0       0       0       0       0       0       0       0       0       0       0       0       0       0       
      +0       0       0       0       0       0       0       0       0       0       0       0       0       0       0       
      +0       0       0       0       0       0       0       0       0       0
  2894 ;;Total ram usage:       12 bytes
  2895 ;; Hardware stack levels used:    1
  2896 ;; This function calls:
  2897 ;;		Nothing
  2898 ;; This function is called by:
  2899 ;;		_main
  2900 ;; This function uses a non-reentrant model
  2901 ;;
  2902                           
  2903                           
  2904                           ;psect for function _sum32
  2905  0C42                     _sum32:
  2906  0C42                     l1951:	
  2907                           ;incstack = 0
  2908                           ; Regs used in _sum32: [wreg]
  2909                           
  2910                           
  2911                           ;main.c: 521:   return (a + b);
  2912  0C42  0870               	movf	sum32@a,w
  2913  0C43  0774               	addwf	sum32@b,w
  2914  0C44  00F8               	movwf	??_sum32
  2915  0C45  0871               	movf	sum32@a+1,w
  2916  0C46  3D75               	addwfc	sum32@b+1,w
  2917  0C47  00F9               	movwf	??_sum32+1
  2918  0C48  0872               	movf	sum32@a+2,w
  2919  0C49  3D76               	addwfc	sum32@b+2,w
  2920  0C4A  00FA               	movwf	??_sum32+2
  2921  0C4B  0873               	movf	sum32@a+3,w
  2922  0C4C  3D77               	addwfc	sum32@b+3,w
  2923  0C4D  00FB               	movwf	??_sum32+3
  2924  0C4E  087B               	movf	??_sum32+3,w
  2925  0C4F  00F3               	movwf	?_sum32+3
  2926  0C50  087A               	movf	??_sum32+2,w
  2927  0C51  00F2               	movwf	?_sum32+2
  2928  0C52  0879               	movf	??_sum32+1,w
  2929  0C53  00F1               	movwf	?_sum32+1
  2930  0C54  0878               	movf	??_sum32,w
  2931  0C55  00F0               	movwf	?_sum32
  2932  0C56                     l151:
  2933  0C56  0008               	return
  2934  0C57                     __end_of_sum32:
  2935                           
  2936                           	psect	text3
  2937  0C1A                     __ptext3:	
  2938 ;; *************** function _mul8 *****************
  2939 ;; Defined at:
  2940 ;;		line 524 in file "main.c"
  2941 ;; Parameters:    Size  Location     Type
  2942 ;;  a               1    wreg     char 
  2943 ;;  b               1    6[COMMON] char 
  2944 ;; Auto vars:     Size  Location     Type
  2945 ;;  a               1    9[COMMON] char 
  2946 ;; Return value:  Size  Location     Type
  2947 ;;                  2    6[COMMON] short 
  2948 ;; Registers used:
  2949 ;;		wreg, status,2, status,0, pclath, cstack
  2950 ;; Tracked objects:
  2951 ;;		On entry : 0/0
  2952 ;;		On exit  : 0/0
  2953 ;;		Unchanged: 0/0
  2954 ;; Data sizes:     COMMON   BANK0   BANK1   BANK2   BANK3   BANK4   BANK5   BANK6   BANK7   BANK8   BANK9  BANK10  BANK1
      +1  BANK12  BANK13  BANK14  BANK15  BANK16  BANK17  BANK18  BANK19  BANK20  BANK21  BANK22  BANK23  BANK24  BANK25  BANK2
      +6  BANK27  BANK28  BANK29  BANK30  BANK31  BANK32  BANK33  BANK34  BANK35  BANK36  BANK37  BANK38  BANK39  BANK40  BANK4
      +1  BANK42  BANK43  BANK44  BANK45  BANK46  BANK47  BANK48  BANK49  BANK50
  2955 ;;      Params:         3       0       0       0       0       0       0       0       0       0       0       0       
      +0       0       0       0       0       0       0       0       0       0       0       0       0       0       0       
      +0       0       0       0       0       0       0       0       0       0       0       0       0       0       0       
      +0       0       0       0       0       0       0       0       0       0
  2956 ;;      Locals:         1       0       0       0       0       0       0       0       0       0       0       0       
      +0       0       0       0       0       0       0       0       0       0       0       0       0       0       0       
      +0       0       0       0       0       0       0       0       0       0       0       0       0       0       0       
      +0       0       0       0       0       0       0       0       0       0
  2957 ;;      Temps:          0       0       0       0       0       0       0       0       0       0       0       0       
      +0       0       0       0       0       0       0       0       0       0       0       0       0       0       0       
      +0       0       0       0       0       0       0       0       0       0       0       0       0       0       0       
      +0       0       0       0       0       0       0       0       0       0
  2958 ;;      Totals:         4       0       0       0       0       0       0       0       0       0       0       0       
      +0       0       0       0       0       0       0       0       0       0       0       0       0       0       0       
      +0       0       0       0       0       0       0       0       0       0       0       0       0       0       0       
      +0       0       0       0       0       0       0       0       0       0
  2959 ;;Total ram usage:        4 bytes
  2960 ;; Hardware stack levels used:    1
  2961 ;; Hardware stack levels required when called:    1
  2962 ;; This function calls:
  2963 ;;		___wmul
  2964 ;; This function is called by:
  2965 ;;		_main
  2966 ;; This function uses a non-reentrant model
  2967 ;;
  2968                           
  2969                           
  2970                           ;psect for function _mul8
  2971  0C1A                     _mul8:
  2972                           
  2973                           ;incstack = 0
  2974                           ; Regs used in _mul8: [wreg+status,2+status,0+pclath+cstack]
  2975                           ;mul8@a stored from wreg
  2976  0C1A  00F9               	movwf	mul8@a
  2977  0C1B                     l1947:
  2978                           
  2979                           ;main.c: 525:     return (a * b);
  2980  0C1B  0879               	movf	mul8@a,w
  2981  0C1C  00F0               	movwf	___wmul@multiplier
  2982  0C1D  01F1               	clrf	___wmul@multiplier+1
  2983  0C1E  1BF0               	btfsc	___wmul@multiplier,7
  2984  0C1F  03F1               	decf	___wmul@multiplier+1,f
  2985  0C20  0876               	movf	mul8@b,w
  2986  0C21  00F2               	movwf	___wmul@multiplicand
  2987  0C22  01F3               	clrf	___wmul@multiplicand+1
  2988  0C23  1BF2               	btfsc	___wmul@multiplicand,7
  2989  0C24  03F3               	decf	___wmul@multiplicand+1,f
  2990  0C25  3180  2006  318C   	fcall	___wmul
  2991  0C28  0871               	movf	?___wmul+1,w
  2992  0C29  00F7               	movwf	?_mul8+1
  2993  0C2A  0870               	movf	?___wmul,w
  2994  0C2B  00F6               	movwf	?_mul8
  2995  0C2C                     l154:
  2996  0C2C  0008               	return
  2997  0C2D                     __end_of_mul8:
  2998                           
  2999                           	psect	text4
  3000  0006                     __ptext4:	
  3001 ;; *************** function ___wmul *****************
  3002 ;; Defined at:
  3003 ;;		line 15 in file "/Applications/microchip/xc8/v2.20/pic/sources/c99/common/Umul16.c"
  3004 ;; Parameters:    Size  Location     Type
  3005 ;;  multiplier      2    0[COMMON] unsigned int 
  3006 ;;  multiplicand    2    2[COMMON] unsigned int 
  3007 ;; Auto vars:     Size  Location     Type
  3008 ;;  product         2    4[COMMON] unsigned int 
  3009 ;; Return value:  Size  Location     Type
  3010 ;;                  2    0[COMMON] unsigned int 
  3011 ;; Registers used:
  3012 ;;		wreg, status,2, status,0
  3013 ;; Tracked objects:
  3014 ;;		On entry : 0/0
  3015 ;;		On exit  : 0/0
  3016 ;;		Unchanged: 0/0
  3017 ;; Data sizes:     COMMON   BANK0   BANK1   BANK2   BANK3   BANK4   BANK5   BANK6   BANK7   BANK8   BANK9  BANK10  BANK1
      +1  BANK12  BANK13  BANK14  BANK15  BANK16  BANK17  BANK18  BANK19  BANK20  BANK21  BANK22  BANK23  BANK24  BANK25  BANK2
      +6  BANK27  BANK28  BANK29  BANK30  BANK31  BANK32  BANK33  BANK34  BANK35  BANK36  BANK37  BANK38  BANK39  BANK40  BANK4
      +1  BANK42  BANK43  BANK44  BANK45  BANK46  BANK47  BANK48  BANK49  BANK50
  3018 ;;      Params:         4       0       0       0       0       0       0       0       0       0       0       0       
      +0       0       0       0       0       0       0       0       0       0       0       0       0       0       0       
      +0       0       0       0       0       0       0       0       0       0       0       0       0       0       0       
      +0       0       0       0       0       0       0       0       0       0
  3019 ;;      Locals:         2       0       0       0       0       0       0       0       0       0       0       0       
      +0       0       0       0       0       0       0       0       0       0       0       0       0       0       0       
      +0       0       0       0       0       0       0       0       0       0       0       0       0       0       0       
      +0       0       0       0       0       0       0       0       0       0
  3020 ;;      Temps:          0       0       0       0       0       0       0       0       0       0       0       0       
      +0       0       0       0       0       0       0       0       0       0       0       0       0       0       0       
      +0       0       0       0       0       0       0       0       0       0       0       0       0       0       0       
      +0       0       0       0       0       0       0       0       0       0
  3021 ;;      Totals:         6       0       0       0       0       0       0       0       0       0       0       0       
      +0       0       0       0       0       0       0       0       0       0       0       0       0       0       0       
      +0       0       0       0       0       0       0       0       0       0       0       0       0       0       0       
      +0       0       0       0       0       0       0       0       0       0
  3022 ;;Total ram usage:        6 bytes
  3023 ;; Hardware stack levels used:    1
  3024 ;; This function calls:
  3025 ;;		Nothing
  3026 ;; This function is called by:
  3027 ;;		_mul8
  3028 ;; This function uses a non-reentrant model
  3029 ;;
  3030                           
  3031                           
  3032                           ;psect for function ___wmul
  3033  0006                     ___wmul:
  3034  0006                     l1873:	
  3035                           ;incstack = 0
  3036                           ; Regs used in ___wmul: [wreg+status,2+status,0]
  3037                           
  3038  0006  01F4               	clrf	___wmul@product
  3039  0007  01F5               	clrf	___wmul@product+1
  3040  0008                     l1875:
  3041  0008  1C70               	btfss	___wmul@multiplier,0
  3042  0009  280B               	goto	u1671
  3043  000A  280C               	goto	u1670
  3044  000B                     u1671:
  3045  000B  2810               	goto	l309
  3046  000C                     u1670:
  3047  000C                     l1877:
  3048  000C  0872               	movf	___wmul@multiplicand,w
  3049  000D  07F4               	addwf	___wmul@product,f
  3050  000E  0873               	movf	___wmul@multiplicand+1,w
  3051  000F  3DF5               	addwfc	___wmul@product+1,f
  3052  0010                     l309:
  3053  0010  3001               	movlw	1
  3054  0011                     u1685:
  3055  0011  35F2               	lslf	___wmul@multiplicand,f
  3056  0012  0DF3               	rlf	___wmul@multiplicand+1,f
  3057  0013  0B89               	decfsz	9,f
  3058  0014  2811               	goto	u1685
  3059  0015                     l1879:
  3060  0015  3001               	movlw	1
  3061  0016                     u1695:
  3062  0016  36F1               	lsrf	___wmul@multiplier+1,f
  3063  0017  0CF0               	rrf	___wmul@multiplier,f
  3064  0018  0B89               	decfsz	9,f
  3065  0019  2816               	goto	u1695
  3066  001A                     l1881:
  3067  001A  0870               	movf	___wmul@multiplier,w
  3068  001B  0471               	iorwf	___wmul@multiplier+1,w
  3069  001C  1D03               	btfss	3,2
  3070  001D  281F               	goto	u1701
  3071  001E  2820               	goto	u1700
  3072  001F                     u1701:
  3073  001F  2808               	goto	l1875
  3074  0020                     u1700:
  3075  0020                     l1883:
  3076  0020  0875               	movf	___wmul@product+1,w
  3077  0021  00F1               	movwf	?___wmul+1
  3078  0022  0874               	movf	___wmul@product,w
  3079  0023  00F0               	movwf	?___wmul
  3080  0024                     l311:
  3081  0024  0008               	return
  3082  0025                     __end_of___wmul:
  3083                           
  3084                           	psect	text5
  3085  0CAD                     __ptext5:	
  3086 ;; *************** function _mul32 *****************
  3087 ;; Defined at:
  3088 ;;		line 528 in file "main.c"
  3089 ;; Parameters:    Size  Location     Type
  3090 ;;  a               4    0[BANK0 ] long 
  3091 ;;  b               4    4[BANK0 ] long 
  3092 ;; Auto vars:     Size  Location     Type
  3093 ;;		None
  3094 ;; Return value:  Size  Location     Type
  3095 ;;                  8    0[BANK0 ] long long 
  3096 ;; Registers used:
  3097 ;;		wreg, status,2, status,0, pclath, cstack
  3098 ;; Tracked objects:
  3099 ;;		On entry : 0/0
  3100 ;;		On exit  : 0/0
  3101 ;;		Unchanged: 0/0
  3102 ;; Data sizes:     COMMON   BANK0   BANK1   BANK2   BANK3   BANK4   BANK5   BANK6   BANK7   BANK8   BANK9  BANK10  BANK1
      +1  BANK12  BANK13  BANK14  BANK15  BANK16  BANK17  BANK18  BANK19  BANK20  BANK21  BANK22  BANK23  BANK24  BANK25  BANK2
      +6  BANK27  BANK28  BANK29  BANK30  BANK31  BANK32  BANK33  BANK34  BANK35  BANK36  BANK37  BANK38  BANK39  BANK40  BANK4
      +1  BANK42  BANK43  BANK44  BANK45  BANK46  BANK47  BANK48  BANK49  BANK50
  3103 ;;      Params:         0       8       0       0       0       0       0       0       0       0       0       0       
      +0       0       0       0       0       0       0       0       0       0       0       0       0       0       0       
      +0       0       0       0       0       0       0       0       0       0       0       0       0       0       0       
      +0       0       0       0       0       0       0       0       0       0
  3104 ;;      Locals:         0       0       0       0       0       0       0       0       0       0       0       0       
      +0       0       0       0       0       0       0       0       0       0       0       0       0       0       0       
      +0       0       0       0       0       0       0       0       0       0       0       0       0       0       0       
      +0       0       0       0       0       0       0       0       0       0
  3105 ;;      Temps:          0       0       0       0       0       0       0       0       0       0       0       0       
      +0       0       0       0       0       0       0       0       0       0       0       0       0       0       0       
      +0       0       0       0       0       0       0       0       0       0       0       0       0       0       0       
      +0       0       0       0       0       0       0       0       0       0
  3106 ;;      Totals:         0       8       0       0       0       0       0       0       0       0       0       0       
      +0       0       0       0       0       0       0       0       0       0       0       0       0       0       0       
      +0       0       0       0       0       0       0       0       0       0       0       0       0       0       0       
      +0       0       0       0       0       0       0       0       0       0
  3107 ;;Total ram usage:        8 bytes
  3108 ;; Hardware stack levels used:    1
  3109 ;; Hardware stack levels required when called:    1
  3110 ;; This function calls:
  3111 ;;		___lmul
  3112 ;; This function is called by:
  3113 ;;		_main
  3114 ;; This function uses a non-reentrant model
  3115 ;;
  3116                           
  3117                           
  3118                           ;psect for function _mul32
  3119  0CAD                     _mul32:
  3120  0CAD                     l1955:	
  3121                           ;incstack = 0
  3122                           ; Regs used in _mul32: [wreg+status,2+status,0+pclath+cstack]
  3123                           
  3124                           
  3125                           ;main.c: 529:   return (a * b);
  3126  0CAD  0140               	movlb	0	; select bank0
  3127  0CAE  0823               	movf	mul32@a+3,w
  3128  0CAF  00F3               	movwf	___lmul@multiplier+3
  3129  0CB0  0822               	movf	mul32@a+2,w
  3130  0CB1  00F2               	movwf	___lmul@multiplier+2
  3131  0CB2  0821               	movf	mul32@a+1,w
  3132  0CB3  00F1               	movwf	___lmul@multiplier+1
  3133  0CB4  0820               	movf	mul32@a,w
  3134  0CB5  00F0               	movwf	___lmul@multiplier
  3135  0CB6  0827               	movf	mul32@b+3,w
  3136  0CB7  00F7               	movwf	___lmul@multiplicand+3
  3137  0CB8  0826               	movf	mul32@b+2,w
  3138  0CB9  00F6               	movwf	___lmul@multiplicand+2
  3139  0CBA  0825               	movf	mul32@b+1,w
  3140  0CBB  00F5               	movwf	___lmul@multiplicand+1
  3141  0CBC  0824               	movf	mul32@b,w
  3142  0CBD  00F4               	movwf	___lmul@multiplicand
  3143  0CBE  318D  252C  318C   	fcall	___lmul
  3144  0CC1  0870               	movf	?___lmul,w
  3145  0CC2  0140               	movlb	0	; select bank0
  3146  0CC3  00A0               	movwf	?_mul32
  3147  0CC4  0871               	movf	?___lmul+1,w
  3148  0CC5  00A1               	movwf	?_mul32+1
  3149  0CC6  0872               	movf	?___lmul+2,w
  3150  0CC7  00A2               	movwf	?_mul32+2
  3151  0CC8  0873               	movf	?___lmul+3,w
  3152  0CC9  00A3               	movwf	?_mul32+3
  3153  0CCA  3000               	movlw	0
  3154  0CCB  1BA3               	btfsc	?_mul32+3,7
  3155  0CCC  30FF               	movlw	255
  3156  0CCD  00A4               	movwf	?_mul32+4
  3157  0CCE  00A5               	movwf	?_mul32+5
  3158  0CCF  00A6               	movwf	?_mul32+6
  3159  0CD0  00A7               	movwf	?_mul32+7
  3160  0CD1                     l157:
  3161  0CD1  0008               	return
  3162  0CD2                     __end_of_mul32:
  3163                           
  3164                           	psect	text6
  3165  0D2C                     __ptext6:	
  3166 ;; *************** function ___lmul *****************
  3167 ;; Defined at:
  3168 ;;		line 15 in file "/Applications/microchip/xc8/v2.20/pic/sources/c99/common/Umul32.c"
  3169 ;; Parameters:    Size  Location     Type
  3170 ;;  multiplier      4    0[COMMON] unsigned long 
  3171 ;;  multiplicand    4    4[COMMON] unsigned long 
  3172 ;; Auto vars:     Size  Location     Type
  3173 ;;  product         4    8[COMMON] unsigned long 
  3174 ;; Return value:  Size  Location     Type
  3175 ;;                  4    0[COMMON] unsigned long 
  3176 ;; Registers used:
  3177 ;;		wreg, status,2, status,0
  3178 ;; Tracked objects:
  3179 ;;		On entry : 0/0
  3180 ;;		On exit  : 0/0
  3181 ;;		Unchanged: 0/0
  3182 ;; Data sizes:     COMMON   BANK0   BANK1   BANK2   BANK3   BANK4   BANK5   BANK6   BANK7   BANK8   BANK9  BANK10  BANK1
      +1  BANK12  BANK13  BANK14  BANK15  BANK16  BANK17  BANK18  BANK19  BANK20  BANK21  BANK22  BANK23  BANK24  BANK25  BANK2
      +6  BANK27  BANK28  BANK29  BANK30  BANK31  BANK32  BANK33  BANK34  BANK35  BANK36  BANK37  BANK38  BANK39  BANK40  BANK4
      +1  BANK42  BANK43  BANK44  BANK45  BANK46  BANK47  BANK48  BANK49  BANK50
  3183 ;;      Params:         8       0       0       0       0       0       0       0       0       0       0       0       
      +0       0       0       0       0       0       0       0       0       0       0       0       0       0       0       
      +0       0       0       0       0       0       0       0       0       0       0       0       0       0       0       
      +0       0       0       0       0       0       0       0       0       0
  3184 ;;      Locals:         4       0       0       0       0       0       0       0       0       0       0       0       
      +0       0       0       0       0       0       0       0       0       0       0       0       0       0       0       
      +0       0       0       0       0       0       0       0       0       0       0       0       0       0       0       
      +0       0       0       0       0       0       0       0       0       0
  3185 ;;      Temps:          0       0       0       0       0       0       0       0       0       0       0       0       
      +0       0       0       0       0       0       0       0       0       0       0       0       0       0       0       
      +0       0       0       0       0       0       0       0       0       0       0       0       0       0       0       
      +0       0       0       0       0       0       0       0       0       0
  3186 ;;      Totals:        12       0       0       0       0       0       0       0       0       0       0       0       
      +0       0       0       0       0       0       0       0       0       0       0       0       0       0       0       
      +0       0       0       0       0       0       0       0       0       0       0       0       0       0       0       
      +0       0       0       0       0       0       0       0       0       0
  3187 ;;Total ram usage:       12 bytes
  3188 ;; Hardware stack levels used:    1
  3189 ;; This function calls:
  3190 ;;		Nothing
  3191 ;; This function is called by:
  3192 ;;		_mul32
  3193 ;; This function uses a non-reentrant model
  3194 ;;
  3195                           
  3196                           
  3197                           ;psect for function ___lmul
  3198  0D2C                     ___lmul:
  3199  0D2C                     l1887:	
  3200                           ;incstack = 0
  3201                           ; Regs used in ___lmul: [wreg+status,2+status,0]
  3202                           
  3203  0D2C  3000               	movlw	0
  3204  0D2D  00FB               	movwf	___lmul@product+3
  3205  0D2E  3000               	movlw	0
  3206  0D2F  00FA               	movwf	___lmul@product+2
  3207  0D30  3000               	movlw	0
  3208  0D31  00F9               	movwf	___lmul@product+1
  3209  0D32  3000               	movlw	0
  3210  0D33  00F8               	movwf	___lmul@product
  3211  0D34                     l1889:
  3212  0D34  1C70               	btfss	___lmul@multiplier,0
  3213  0D35  2D37               	goto	u1711
  3214  0D36  2D38               	goto	u1710
  3215  0D37                     u1711:
  3216  0D37  2D40               	goto	l1893
  3217  0D38                     u1710:
  3218  0D38                     l1891:
  3219  0D38  0874               	movf	___lmul@multiplicand,w
  3220  0D39  07F8               	addwf	___lmul@product,f
  3221  0D3A  0875               	movf	___lmul@multiplicand+1,w
  3222  0D3B  3DF9               	addwfc	___lmul@product+1,f
  3223  0D3C  0876               	movf	___lmul@multiplicand+2,w
  3224  0D3D  3DFA               	addwfc	___lmul@product+2,f
  3225  0D3E  0877               	movf	___lmul@multiplicand+3,w
  3226  0D3F  3DFB               	addwfc	___lmul@product+3,f
  3227  0D40                     l1893:
  3228  0D40  3001               	movlw	1
  3229  0D41                     u1725:
  3230  0D41  35F4               	lslf	___lmul@multiplicand,f
  3231  0D42  0DF5               	rlf	___lmul@multiplicand+1,f
  3232  0D43  0DF6               	rlf	___lmul@multiplicand+2,f
  3233  0D44  0DF7               	rlf	___lmul@multiplicand+3,f
  3234  0D45  0B89               	decfsz	9,f
  3235  0D46  2D41               	goto	u1725
  3236  0D47                     l1895:
  3237  0D47  3001               	movlw	1
  3238  0D48                     u1735:
  3239  0D48  36F3               	lsrf	___lmul@multiplier+3,f
  3240  0D49  0CF2               	rrf	___lmul@multiplier+2,f
  3241  0D4A  0CF1               	rrf	___lmul@multiplier+1,f
  3242  0D4B  0CF0               	rrf	___lmul@multiplier,f
  3243  0D4C  0B89               	decfsz	9,f
  3244  0D4D  2D48               	goto	u1735
  3245  0D4E  0873               	movf	___lmul@multiplier+3,w
  3246  0D4F  0472               	iorwf	___lmul@multiplier+2,w
  3247  0D50  0471               	iorwf	___lmul@multiplier+1,w
  3248  0D51  0470               	iorwf	___lmul@multiplier,w
  3249  0D52  1D03               	skipz
  3250  0D53  2D55               	goto	u1741
  3251  0D54  2D56               	goto	u1740
  3252  0D55                     u1741:
  3253  0D55  2D34               	goto	l1889
  3254  0D56                     u1740:
  3255  0D56                     l1897:
  3256  0D56  087B               	movf	___lmul@product+3,w
  3257  0D57  00F3               	movwf	?___lmul+3
  3258  0D58  087A               	movf	___lmul@product+2,w
  3259  0D59  00F2               	movwf	?___lmul+2
  3260  0D5A  0879               	movf	___lmul@product+1,w
  3261  0D5B  00F1               	movwf	?___lmul+1
  3262  0D5C  0878               	movf	___lmul@product,w
  3263  0D5D  00F0               	movwf	?___lmul
  3264  0D5E                     l323:
  3265  0D5E  0008               	return
  3266  0D5F                     __end_of___lmul:
  3267                           
  3268                           	psect	text7
  3269  058A                     __ptext7:	
  3270 ;; *************** function ___flmul *****************
  3271 ;; Defined at:
  3272 ;;		line 8 in file "/Applications/microchip/xc8/v2.20/pic/sources/c99/common/sprcmul.c"
  3273 ;; Parameters:    Size  Location     Type
  3274 ;;  b               4    0[BANK0 ] unsigned long 
  3275 ;;  a               4    4[BANK0 ] unsigned long 
  3276 ;; Auto vars:     Size  Location     Type
  3277 ;;  prod            4   15[BANK0 ] struct .
  3278 ;;  grs             4    9[BANK0 ] unsigned long 
  3279 ;;  temp            2   19[BANK0 ] struct .
  3280 ;;  bexp            1   14[BANK0 ] unsigned char 
  3281 ;;  aexp            1   13[BANK0 ] unsigned char 
  3282 ;;  sign            1    8[BANK0 ] unsigned char 
  3283 ;; Return value:  Size  Location     Type
  3284 ;;                  4    0[BANK0 ] unsigned char 
  3285 ;; Registers used:
  3286 ;;		wreg, status,2, status,0, pclath, cstack
  3287 ;; Tracked objects:
  3288 ;;		On entry : 0/0
  3289 ;;		On exit  : 0/0
  3290 ;;		Unchanged: 0/0
  3291 ;; Data sizes:     COMMON   BANK0   BANK1   BANK2   BANK3   BANK4   BANK5   BANK6   BANK7   BANK8   BANK9  BANK10  BANK1
      +1  BANK12  BANK13  BANK14  BANK15  BANK16  BANK17  BANK18  BANK19  BANK20  BANK21  BANK22  BANK23  BANK24  BANK25  BANK2
      +6  BANK27  BANK28  BANK29  BANK30  BANK31  BANK32  BANK33  BANK34  BANK35  BANK36  BANK37  BANK38  BANK39  BANK40  BANK4
      +1  BANK42  BANK43  BANK44  BANK45  BANK46  BANK47  BANK48  BANK49  BANK50
  3292 ;;      Params:         0       8       0       0       0       0       0       0       0       0       0       0       
      +0       0       0       0       0       0       0       0       0       0       0       0       0       0       0       
      +0       0       0       0       0       0       0       0       0       0       0       0       0       0       0       
      +0       0       0       0       0       0       0       0       0       0
  3293 ;;      Locals:         0      13       0       0       0       0       0       0       0       0       0       0       
      +0       0       0       0       0       0       0       0       0       0       0       0       0       0       0       
      +0       0       0       0       0       0       0       0       0       0       0       0       0       0       0       
      +0       0       0       0       0       0       0       0       0       0
  3294 ;;      Temps:          5       0       0       0       0       0       0       0       0       0       0       0       
      +0       0       0       0       0       0       0       0       0       0       0       0       0       0       0       
      +0       0       0       0       0       0       0       0       0       0       0       0       0       0       0       
      +0       0       0       0       0       0       0       0       0       0
  3295 ;;      Totals:         5      21       0       0       0       0       0       0       0       0       0       0       
      +0       0       0       0       0       0       0       0       0       0       0       0       0       0       0       
      +0       0       0       0       0       0       0       0       0       0       0       0       0       0       0       
      +0       0       0       0       0       0       0       0       0       0
  3296 ;;Total ram usage:       26 bytes
  3297 ;; Hardware stack levels used:    1
  3298 ;; Hardware stack levels required when called:    1
  3299 ;; This function calls:
  3300 ;;		__Umul8_16
  3301 ;; This function is called by:
  3302 ;;		_main
  3303 ;; This function uses a non-reentrant model
  3304 ;;
  3305                           
  3306                           
  3307                           ;psect for function ___flmul
  3308  058A                     ___flmul:
  3309  058A                     l1959:	
  3310                           ;incstack = 0
  3311                           ; Regs used in ___flmul: [wreg+status,2+status,0+pclath+cstack]
  3312                           
  3313  058A  0140               	movlb	0	; select bank0
  3314  058B  0823               	movf	___flmul@b+3,w
  3315  058C  3980               	andlw	128
  3316  058D  00F9               	movwf	??___flmul
  3317  058E  0879               	movf	??___flmul,w
  3318  058F  00A8               	movwf	___flmul@sign
  3319  0590                     l1961:
  3320  0590  3523               	lslf	___flmul@b+3,w
  3321  0591  00F9               	movwf	??___flmul
  3322  0592  0879               	movf	??___flmul,w
  3323  0593  00AE               	movwf	___flmul@bexp
  3324  0594                     l1963:
  3325  0594  1FA2               	btfss	___flmul@b+2,7
  3326  0595  2D97               	goto	u1781
  3327  0596  2D98               	goto	u1780
  3328  0597                     u1781:
  3329  0597  2D99               	goto	l1967
  3330  0598                     u1780:
  3331  0598                     l1965:
  3332  0598  142E               	bsf	___flmul@bexp,0
  3333  0599                     l1967:
  3334  0599  082E               	movf	___flmul@bexp,w
  3335  059A  1903               	btfsc	3,2
  3336  059B  2D9D               	goto	u1791
  3337  059C  2D9E               	goto	u1790
  3338  059D                     u1791:
  3339  059D  2DAD               	goto	l1975
  3340  059E                     u1790:
  3341  059E                     l1969:
  3342  059E  0A2E               	incf	___flmul@bexp,w
  3343  059F  1D03               	btfss	3,2
  3344  05A0  2DA2               	goto	u1801
  3345  05A1  2DA3               	goto	u1800
  3346  05A2                     u1801:
  3347  05A2  2DAB               	goto	l1973
  3348  05A3                     u1800:
  3349  05A3                     l1971:
  3350  05A3  3000               	movlw	0
  3351  05A4  00A3               	movwf	___flmul@b+3
  3352  05A5  3000               	movlw	0
  3353  05A6  00A2               	movwf	___flmul@b+2
  3354  05A7  3000               	movlw	0
  3355  05A8  00A1               	movwf	___flmul@b+1
  3356  05A9  3000               	movlw	0
  3357  05AA  00A0               	movwf	___flmul@b
  3358  05AB                     l1973:
  3359  05AB  17A2               	bsf	___flmul@b+2,7
  3360  05AC  2DB5               	goto	l1977
  3361  05AD                     l1975:
  3362  05AD  3000               	movlw	0
  3363  05AE  00A3               	movwf	___flmul@b+3
  3364  05AF  3000               	movlw	0
  3365  05B0  00A2               	movwf	___flmul@b+2
  3366  05B1  3000               	movlw	0
  3367  05B2  00A1               	movwf	___flmul@b+1
  3368  05B3  3000               	movlw	0
  3369  05B4  00A0               	movwf	___flmul@b
  3370  05B5                     l1977:
  3371  05B5  0827               	movf	___flmul@a+3,w
  3372  05B6  3980               	andlw	128
  3373  05B7  00F9               	movwf	??___flmul
  3374  05B8  0879               	movf	??___flmul,w
  3375  05B9  06A8               	xorwf	___flmul@sign,f
  3376  05BA                     l1979:
  3377  05BA  3527               	lslf	___flmul@a+3,w
  3378  05BB  00F9               	movwf	??___flmul
  3379  05BC  0879               	movf	??___flmul,w
  3380  05BD  00AD               	movwf	___flmul@aexp
  3381  05BE                     l1981:
  3382  05BE  1FA6               	btfss	___flmul@a+2,7
  3383  05BF  2DC1               	goto	u1811
  3384  05C0  2DC2               	goto	u1810
  3385  05C1                     u1811:
  3386  05C1  2DC3               	goto	l1985
  3387  05C2                     u1810:
  3388  05C2                     l1983:
  3389  05C2  142D               	bsf	___flmul@aexp,0
  3390  05C3                     l1985:
  3391  05C3  082D               	movf	___flmul@aexp,w
  3392  05C4  1903               	btfsc	3,2
  3393  05C5  2DC7               	goto	u1821
  3394  05C6  2DC8               	goto	u1820
  3395  05C7                     u1821:
  3396  05C7  2DD7               	goto	l1993
  3397  05C8                     u1820:
  3398  05C8                     l1987:
  3399  05C8  0A2D               	incf	___flmul@aexp,w
  3400  05C9  1D03               	btfss	3,2
  3401  05CA  2DCC               	goto	u1831
  3402  05CB  2DCD               	goto	u1830
  3403  05CC                     u1831:
  3404  05CC  2DD5               	goto	l1991
  3405  05CD                     u1830:
  3406  05CD                     l1989:
  3407  05CD  3000               	movlw	0
  3408  05CE  00A7               	movwf	___flmul@a+3
  3409  05CF  3000               	movlw	0
  3410  05D0  00A6               	movwf	___flmul@a+2
  3411  05D1  3000               	movlw	0
  3412  05D2  00A5               	movwf	___flmul@a+1
  3413  05D3  3000               	movlw	0
  3414  05D4  00A4               	movwf	___flmul@a
  3415  05D5                     l1991:
  3416  05D5  17A6               	bsf	___flmul@a+2,7
  3417  05D6  2DDF               	goto	l1995
  3418  05D7                     l1993:
  3419  05D7  3000               	movlw	0
  3420  05D8  00A7               	movwf	___flmul@a+3
  3421  05D9  3000               	movlw	0
  3422  05DA  00A6               	movwf	___flmul@a+2
  3423  05DB  3000               	movlw	0
  3424  05DC  00A5               	movwf	___flmul@a+1
  3425  05DD  3000               	movlw	0
  3426  05DE  00A4               	movwf	___flmul@a
  3427  05DF                     l1995:
  3428  05DF  082D               	movf	___flmul@aexp,w
  3429  05E0  1903               	btfsc	3,2
  3430  05E1  2DE3               	goto	u1841
  3431  05E2  2DE4               	goto	u1840
  3432  05E3                     u1841:
  3433  05E3  2DE9               	goto	l1999
  3434  05E4                     u1840:
  3435  05E4                     l1997:
  3436  05E4  082E               	movf	___flmul@bexp,w
  3437  05E5  1D03               	btfss	3,2
  3438  05E6  2DE8               	goto	u1851
  3439  05E7  2DE9               	goto	u1850
  3440  05E8                     u1851:
  3441  05E8  2DF2               	goto	l2003
  3442  05E9                     u1850:
  3443  05E9                     l1999:
  3444  05E9  3000               	movlw	0
  3445  05EA  00A3               	movwf	?___flmul+3
  3446  05EB  3000               	movlw	0
  3447  05EC  00A2               	movwf	?___flmul+2
  3448  05ED  3000               	movlw	0
  3449  05EE  00A1               	movwf	?___flmul+1
  3450  05EF  3000               	movlw	0
  3451  05F0  00A0               	movwf	?___flmul
  3452  05F1  2FE0               	goto	l706
  3453  05F2                     l2003:
  3454  05F2  0820               	movf	___flmul@b,w
  3455  05F3  00F9               	movwf	??___flmul
  3456  05F4  0879               	movf	??___flmul,w
  3457  05F5  00F0               	movwf	__Umul8_16@multiplicand
  3458  05F6  0826               	movf	___flmul@a+2,w
  3459  05F7  318C  248A  3185   	fcall	__Umul8_16
  3460  05FA  0871               	movf	?__Umul8_16+1,w
  3461  05FB  0140               	movlb	0	; select bank0
  3462  05FC  00B4               	movwf	___flmul@temp+1
  3463  05FD  0870               	movf	?__Umul8_16,w
  3464  05FE  00B3               	movwf	___flmul@temp
  3465  05FF                     l2005:
  3466  05FF  0833               	movf	___flmul@temp,w
  3467  0600  00F9               	movwf	??___flmul
  3468  0601  01FA               	clrf	??___flmul+1
  3469  0602  01FB               	clrf	??___flmul+2
  3470  0603  01FC               	clrf	??___flmul+3
  3471  0604  087C               	movf	??___flmul+3,w
  3472  0605  00AC               	movwf	___flmul@grs+3
  3473  0606  087B               	movf	??___flmul+2,w
  3474  0607  00AB               	movwf	___flmul@grs+2
  3475  0608  087A               	movf	??___flmul+1,w
  3476  0609  00AA               	movwf	___flmul@grs+1
  3477  060A  0879               	movf	??___flmul,w
  3478  060B  00A9               	movwf	___flmul@grs
  3479  060C                     l2007:
  3480  060C  0834               	movf	___flmul@temp+1,w
  3481  060D  00F9               	movwf	??___flmul
  3482  060E  01FA               	clrf	??___flmul+1
  3483  060F  01FB               	clrf	??___flmul+2
  3484  0610  01FC               	clrf	??___flmul+3
  3485  0611  087C               	movf	??___flmul+3,w
  3486  0612  00B2               	movwf	___flmul@prod+3
  3487  0613  087B               	movf	??___flmul+2,w
  3488  0614  00B1               	movwf	___flmul@prod+2
  3489  0615  087A               	movf	??___flmul+1,w
  3490  0616  00B0               	movwf	___flmul@prod+1
  3491  0617  0879               	movf	??___flmul,w
  3492  0618  00AF               	movwf	___flmul@prod
  3493  0619  0821               	movf	___flmul@b+1,w
  3494  061A  00F9               	movwf	??___flmul
  3495  061B  0879               	movf	??___flmul,w
  3496  061C  00F0               	movwf	__Umul8_16@multiplicand
  3497  061D  0825               	movf	___flmul@a+1,w
  3498  061E  318C  248A  3185   	fcall	__Umul8_16
  3499  0621  0871               	movf	?__Umul8_16+1,w
  3500  0622  0140               	movlb	0	; select bank0
  3501  0623  00B4               	movwf	___flmul@temp+1
  3502  0624  0870               	movf	?__Umul8_16,w
  3503  0625  00B3               	movwf	___flmul@temp
  3504  0626                     l2009:
  3505  0626  0833               	movf	___flmul@temp,w
  3506  0627  00F9               	movwf	??___flmul
  3507  0628  01FA               	clrf	??___flmul+1
  3508  0629  01FB               	clrf	??___flmul+2
  3509  062A  01FC               	clrf	??___flmul+3
  3510  062B  0879               	movf	??___flmul,w
  3511  062C  07A9               	addwf	___flmul@grs,f
  3512  062D  087A               	movf	??___flmul+1,w
  3513  062E  3DAA               	addwfc	___flmul@grs+1,f
  3514  062F  087B               	movf	??___flmul+2,w
  3515  0630  3DAB               	addwfc	___flmul@grs+2,f
  3516  0631  087C               	movf	??___flmul+3,w
  3517  0632  3DAC               	addwfc	___flmul@grs+3,f
  3518  0633                     l2011:
  3519  0633  0834               	movf	___flmul@temp+1,w
  3520  0634  00F9               	movwf	??___flmul
  3521  0635  01FA               	clrf	??___flmul+1
  3522  0636  01FB               	clrf	??___flmul+2
  3523  0637  01FC               	clrf	??___flmul+3
  3524  0638  0879               	movf	??___flmul,w
  3525  0639  07AF               	addwf	___flmul@prod,f
  3526  063A  087A               	movf	??___flmul+1,w
  3527  063B  3DB0               	addwfc	___flmul@prod+1,f
  3528  063C  087B               	movf	??___flmul+2,w
  3529  063D  3DB1               	addwfc	___flmul@prod+2,f
  3530  063E  087C               	movf	??___flmul+3,w
  3531  063F  3DB2               	addwfc	___flmul@prod+3,f
  3532  0640  0822               	movf	___flmul@b+2,w
  3533  0641  00F9               	movwf	??___flmul
  3534  0642  0879               	movf	??___flmul,w
  3535  0643  00F0               	movwf	__Umul8_16@multiplicand
  3536  0644  0824               	movf	___flmul@a,w
  3537  0645  318C  248A  3185   	fcall	__Umul8_16
  3538  0648  0871               	movf	?__Umul8_16+1,w
  3539  0649  0140               	movlb	0	; select bank0
  3540  064A  00B4               	movwf	___flmul@temp+1
  3541  064B  0870               	movf	?__Umul8_16,w
  3542  064C  00B3               	movwf	___flmul@temp
  3543  064D                     l2013:
  3544  064D  0833               	movf	___flmul@temp,w
  3545  064E  00F9               	movwf	??___flmul
  3546  064F  01FA               	clrf	??___flmul+1
  3547  0650  01FB               	clrf	??___flmul+2
  3548  0651  01FC               	clrf	??___flmul+3
  3549  0652  0879               	movf	??___flmul,w
  3550  0653  07A9               	addwf	___flmul@grs,f
  3551  0654  087A               	movf	??___flmul+1,w
  3552  0655  3DAA               	addwfc	___flmul@grs+1,f
  3553  0656  087B               	movf	??___flmul+2,w
  3554  0657  3DAB               	addwfc	___flmul@grs+2,f
  3555  0658  087C               	movf	??___flmul+3,w
  3556  0659  3DAC               	addwfc	___flmul@grs+3,f
  3557  065A                     l2015:
  3558  065A  0834               	movf	___flmul@temp+1,w
  3559  065B  00F9               	movwf	??___flmul
  3560  065C  01FA               	clrf	??___flmul+1
  3561  065D  01FB               	clrf	??___flmul+2
  3562  065E  01FC               	clrf	??___flmul+3
  3563  065F  0879               	movf	??___flmul,w
  3564  0660  07AF               	addwf	___flmul@prod,f
  3565  0661  087A               	movf	??___flmul+1,w
  3566  0662  3DB0               	addwfc	___flmul@prod+1,f
  3567  0663  087B               	movf	??___flmul+2,w
  3568  0664  3DB1               	addwfc	___flmul@prod+2,f
  3569  0665  087C               	movf	??___flmul+3,w
  3570  0666  3DB2               	addwfc	___flmul@prod+3,f
  3571  0667                     l2017:
  3572  0667  3008               	movlw	8
  3573  0668                     u1865:
  3574  0668  35A9               	lslf	___flmul@grs,f
  3575  0669  0DAA               	rlf	___flmul@grs+1,f
  3576  066A  0DAB               	rlf	___flmul@grs+2,f
  3577  066B  0DAC               	rlf	___flmul@grs+3,f
  3578  066C  0B89               	decfsz	9,f
  3579  066D  2E68               	goto	u1865
  3580  066E                     l2019:
  3581  066E  0821               	movf	___flmul@b+1,w
  3582  066F  00F9               	movwf	??___flmul
  3583  0670  0879               	movf	??___flmul,w
  3584  0671  00F0               	movwf	__Umul8_16@multiplicand
  3585  0672  0824               	movf	___flmul@a,w
  3586  0673  318C  248A  3185   	fcall	__Umul8_16
  3587  0676  0871               	movf	?__Umul8_16+1,w
  3588  0677  0140               	movlb	0	; select bank0
  3589  0678  00B4               	movwf	___flmul@temp+1
  3590  0679  0870               	movf	?__Umul8_16,w
  3591  067A  00B3               	movwf	___flmul@temp
  3592  067B                     l2021:
  3593  067B  0833               	movf	___flmul@temp,w
  3594  067C  07A9               	addwf	___flmul@grs,f
  3595  067D  0834               	movf	___flmul@temp+1,w
  3596  067E  3DAA               	addwfc	___flmul@grs+1,f
  3597  067F  3000               	movlw	0
  3598  0680  3DAB               	addwfc	___flmul@grs+2,f
  3599  0681  3DAC               	addwfc	___flmul@grs+3,f
  3600  0682                     l2023:
  3601  0682  0820               	movf	___flmul@b,w
  3602  0683  00F9               	movwf	??___flmul
  3603  0684  0879               	movf	??___flmul,w
  3604  0685  00F0               	movwf	__Umul8_16@multiplicand
  3605  0686  0825               	movf	___flmul@a+1,w
  3606  0687  318C  248A  3185   	fcall	__Umul8_16
  3607  068A  0871               	movf	?__Umul8_16+1,w
  3608  068B  0140               	movlb	0	; select bank0
  3609  068C  00B4               	movwf	___flmul@temp+1
  3610  068D  0870               	movf	?__Umul8_16,w
  3611  068E  00B3               	movwf	___flmul@temp
  3612  068F                     l2025:
  3613  068F  0833               	movf	___flmul@temp,w
  3614  0690  07A9               	addwf	___flmul@grs,f
  3615  0691  0834               	movf	___flmul@temp+1,w
  3616  0692  3DAA               	addwfc	___flmul@grs+1,f
  3617  0693  3000               	movlw	0
  3618  0694  3DAB               	addwfc	___flmul@grs+2,f
  3619  0695  3DAC               	addwfc	___flmul@grs+3,f
  3620  0696                     l2027:
  3621  0696  3008               	movlw	8
  3622  0697                     u1875:
  3623  0697  35A9               	lslf	___flmul@grs,f
  3624  0698  0DAA               	rlf	___flmul@grs+1,f
  3625  0699  0DAB               	rlf	___flmul@grs+2,f
  3626  069A  0DAC               	rlf	___flmul@grs+3,f
  3627  069B  0B89               	decfsz	9,f
  3628  069C  2E97               	goto	u1875
  3629  069D  0820               	movf	___flmul@b,w
  3630  069E  00F9               	movwf	??___flmul
  3631  069F  0879               	movf	??___flmul,w
  3632  06A0  00F0               	movwf	__Umul8_16@multiplicand
  3633  06A1  0824               	movf	___flmul@a,w
  3634  06A2  318C  248A  3185   	fcall	__Umul8_16
  3635  06A5  0871               	movf	?__Umul8_16+1,w
  3636  06A6  0140               	movlb	0	; select bank0
  3637  06A7  00B4               	movwf	___flmul@temp+1
  3638  06A8  0870               	movf	?__Umul8_16,w
  3639  06A9  00B3               	movwf	___flmul@temp
  3640  06AA                     l2029:
  3641  06AA  0833               	movf	___flmul@temp,w
  3642  06AB  07A9               	addwf	___flmul@grs,f
  3643  06AC  0834               	movf	___flmul@temp+1,w
  3644  06AD  3DAA               	addwfc	___flmul@grs+1,f
  3645  06AE  3000               	movlw	0
  3646  06AF  3DAB               	addwfc	___flmul@grs+2,f
  3647  06B0  3DAC               	addwfc	___flmul@grs+3,f
  3648  06B1                     l2031:
  3649  06B1  0821               	movf	___flmul@b+1,w
  3650  06B2  00F9               	movwf	??___flmul
  3651  06B3  0879               	movf	??___flmul,w
  3652  06B4  00F0               	movwf	__Umul8_16@multiplicand
  3653  06B5  0826               	movf	___flmul@a+2,w
  3654  06B6  318C  248A  3185   	fcall	__Umul8_16
  3655  06B9  0871               	movf	?__Umul8_16+1,w
  3656  06BA  0140               	movlb	0	; select bank0
  3657  06BB  00B4               	movwf	___flmul@temp+1
  3658  06BC  0870               	movf	?__Umul8_16,w
  3659  06BD  00B3               	movwf	___flmul@temp
  3660  06BE  0833               	movf	___flmul@temp,w
  3661  06BF  07AF               	addwf	___flmul@prod,f
  3662  06C0  0834               	movf	___flmul@temp+1,w
  3663  06C1  3DB0               	addwfc	___flmul@prod+1,f
  3664  06C2  3000               	movlw	0
  3665  06C3  3DB1               	addwfc	___flmul@prod+2,f
  3666  06C4  3DB2               	addwfc	___flmul@prod+3,f
  3667  06C5                     l2033:
  3668  06C5  0822               	movf	___flmul@b+2,w
  3669  06C6  00F9               	movwf	??___flmul
  3670  06C7  0879               	movf	??___flmul,w
  3671  06C8  00F0               	movwf	__Umul8_16@multiplicand
  3672  06C9  0825               	movf	___flmul@a+1,w
  3673  06CA  318C  248A  3185   	fcall	__Umul8_16
  3674  06CD  0871               	movf	?__Umul8_16+1,w
  3675  06CE  0140               	movlb	0	; select bank0
  3676  06CF  00B4               	movwf	___flmul@temp+1
  3677  06D0  0870               	movf	?__Umul8_16,w
  3678  06D1  00B3               	movwf	___flmul@temp
  3679  06D2                     l2035:
  3680  06D2  0833               	movf	___flmul@temp,w
  3681  06D3  07AF               	addwf	___flmul@prod,f
  3682  06D4  0834               	movf	___flmul@temp+1,w
  3683  06D5  3DB0               	addwfc	___flmul@prod+1,f
  3684  06D6  3000               	movlw	0
  3685  06D7  3DB1               	addwfc	___flmul@prod+2,f
  3686  06D8  3DB2               	addwfc	___flmul@prod+3,f
  3687  06D9  0822               	movf	___flmul@b+2,w
  3688  06DA  00F9               	movwf	??___flmul
  3689  06DB  0879               	movf	??___flmul,w
  3690  06DC  00F0               	movwf	__Umul8_16@multiplicand
  3691  06DD  0826               	movf	___flmul@a+2,w
  3692  06DE  318C  248A  3185   	fcall	__Umul8_16
  3693  06E1  0871               	movf	?__Umul8_16+1,w
  3694  06E2  0140               	movlb	0	; select bank0
  3695  06E3  00B4               	movwf	___flmul@temp+1
  3696  06E4  0870               	movf	?__Umul8_16,w
  3697  06E5  00B3               	movwf	___flmul@temp
  3698  06E6                     l2037:
  3699  06E6  0833               	movf	___flmul@temp,w
  3700  06E7  00F9               	movwf	??___flmul
  3701  06E8  0834               	movf	___flmul@temp+1,w
  3702  06E9  00FA               	movwf	??___flmul+1
  3703  06EA  01FB               	clrf	??___flmul+2
  3704  06EB  01FC               	clrf	??___flmul+3
  3705  06EC  3008               	movlw	8
  3706  06ED                     u1885:
  3707  06ED  35F9               	lslf	??___flmul,f
  3708  06EE  0DFA               	rlf	??___flmul+1,f
  3709  06EF  0DFB               	rlf	??___flmul+2,f
  3710  06F0  0DFC               	rlf	??___flmul+3,f
  3711  06F1                     u1880:
  3712  06F1  0B89               	decfsz	9,f
  3713  06F2  2EED               	goto	u1885
  3714  06F3  0879               	movf	??___flmul,w
  3715  06F4  07AF               	addwf	___flmul@prod,f
  3716  06F5  087A               	movf	??___flmul+1,w
  3717  06F6  3DB0               	addwfc	___flmul@prod+1,f
  3718  06F7  087B               	movf	??___flmul+2,w
  3719  06F8  3DB1               	addwfc	___flmul@prod+2,f
  3720  06F9  087C               	movf	??___flmul+3,w
  3721  06FA  3DB2               	addwfc	___flmul@prod+3,f
  3722  06FB                     l2039:
  3723  06FB  0829               	movf	___flmul@grs,w
  3724  06FC  00F9               	movwf	??___flmul
  3725  06FD  082A               	movf	___flmul@grs+1,w
  3726  06FE  00FA               	movwf	??___flmul+1
  3727  06FF  082B               	movf	___flmul@grs+2,w
  3728  0700  00FB               	movwf	??___flmul+2
  3729  0701  082C               	movf	___flmul@grs+3,w
  3730  0702  00FC               	movwf	??___flmul+3
  3731  0703  3018               	movlw	24
  3732  0704                     u1895:
  3733  0704  36FC               	lsrf	??___flmul+3,f
  3734  0705  0CFB               	rrf	??___flmul+2,f
  3735  0706  0CFA               	rrf	??___flmul+1,f
  3736  0707  0CF9               	rrf	??___flmul,f
  3737  0708                     u1890:
  3738  0708  0B89               	decfsz	9,f
  3739  0709  2F04               	goto	u1895
  3740  070A  0879               	movf	??___flmul,w
  3741  070B  07AF               	addwf	___flmul@prod,f
  3742  070C  087A               	movf	??___flmul+1,w
  3743  070D  3DB0               	addwfc	___flmul@prod+1,f
  3744  070E  087B               	movf	??___flmul+2,w
  3745  070F  3DB1               	addwfc	___flmul@prod+2,f
  3746  0710  087C               	movf	??___flmul+3,w
  3747  0711  3DB2               	addwfc	___flmul@prod+3,f
  3748  0712                     l2041:
  3749  0712  3008               	movlw	8
  3750  0713                     u1905:
  3751  0713  35A9               	lslf	___flmul@grs,f
  3752  0714  0DAA               	rlf	___flmul@grs+1,f
  3753  0715  0DAB               	rlf	___flmul@grs+2,f
  3754  0716  0DAC               	rlf	___flmul@grs+3,f
  3755  0717  0B89               	decfsz	9,f
  3756  0718  2F13               	goto	u1905
  3757  0719                     l2043:
  3758  0719  082E               	movf	___flmul@bexp,w
  3759  071A  072D               	addwf	___flmul@aexp,w
  3760  071B  00F9               	movwf	??___flmul
  3761  071C  01FA               	clrf	??___flmul+1
  3762  071D  0DFA               	rlf	??___flmul+1,f
  3763  071E  0879               	movf	??___flmul,w
  3764  071F  3E82               	addlw	130
  3765  0720  00B3               	movwf	___flmul@temp
  3766  0721  30FF               	movlw	255
  3767  0722  3D7A               	addwfc	??___flmul+1,w
  3768  0723  00B4               	movwf	___flmul@temp+1
  3769  0724  2F3C               	goto	l2055
  3770  0725                     l2045:
  3771  0725  3001               	movlw	1
  3772  0726                     u1915:
  3773  0726  35AF               	lslf	___flmul@prod,f
  3774  0727  0DB0               	rlf	___flmul@prod+1,f
  3775  0728  0DB1               	rlf	___flmul@prod+2,f
  3776  0729  0DB2               	rlf	___flmul@prod+3,f
  3777  072A  0B89               	decfsz	9,f
  3778  072B  2F26               	goto	u1915
  3779  072C                     l2047:
  3780  072C  1FAC               	btfss	___flmul@grs+3,7
  3781  072D  2F2F               	goto	u1921
  3782  072E  2F30               	goto	u1920
  3783  072F                     u1921:
  3784  072F  2F31               	goto	l2051
  3785  0730                     u1920:
  3786  0730                     l2049:
  3787  0730  142F               	bsf	___flmul@prod,0
  3788  0731                     l2051:
  3789  0731  3001               	movlw	1
  3790  0732                     u1935:
  3791  0732  35A9               	lslf	___flmul@grs,f
  3792  0733  0DAA               	rlf	___flmul@grs+1,f
  3793  0734  0DAB               	rlf	___flmul@grs+2,f
  3794  0735  0DAC               	rlf	___flmul@grs+3,f
  3795  0736  0B89               	decfsz	9,f
  3796  0737  2F32               	goto	u1935
  3797  0738                     l2053:
  3798  0738  30FF               	movlw	255
  3799  0739  07B3               	addwf	___flmul@temp,f
  3800  073A  30FF               	movlw	255
  3801  073B  3DB4               	addwfc	___flmul@temp+1,f
  3802  073C                     l2055:
  3803  073C  1FB1               	btfss	___flmul@prod+2,7
  3804  073D  2F3F               	goto	u1941
  3805  073E  2F40               	goto	u1940
  3806  073F                     u1941:
  3807  073F  2F25               	goto	l2045
  3808  0740                     u1940:
  3809  0740                     l2057:
  3810  0740  01AD               	clrf	___flmul@aexp
  3811  0741                     l2059:
  3812  0741  1FAC               	btfss	___flmul@grs+3,7
  3813  0742  2F44               	goto	u1951
  3814  0743  2F45               	goto	u1950
  3815  0744                     u1951:
  3816  0744  2F61               	goto	l2067
  3817  0745                     u1950:
  3818  0745                     l2061:
  3819  0745  30FF               	movlw	255
  3820  0746  0529               	andwf	___flmul@grs,w
  3821  0747  00F9               	movwf	??___flmul
  3822  0748  30FF               	movlw	255
  3823  0749  052A               	andwf	___flmul@grs+1,w
  3824  074A  00FA               	movwf	??___flmul+1
  3825  074B  30FF               	movlw	255
  3826  074C  052B               	andwf	___flmul@grs+2,w
  3827  074D  00FB               	movwf	??___flmul+2
  3828  074E  307F               	movlw	127
  3829  074F  052C               	andwf	___flmul@grs+3,w
  3830  0750  00FC               	movwf	??___flmul+3
  3831  0751  087C               	movf	??___flmul+3,w
  3832  0752  047B               	iorwf	??___flmul+2,w
  3833  0753  047A               	iorwf	??___flmul+1,w
  3834  0754  0479               	iorwf	??___flmul,w
  3835  0755  1903               	skipnz
  3836  0756  2F58               	goto	u1961
  3837  0757  2F59               	goto	u1960
  3838  0758                     u1961:
  3839  0758  2F5C               	goto	l712
  3840  0759                     u1960:
  3841  0759                     l2063:
  3842  0759  01AD               	clrf	___flmul@aexp
  3843  075A  0AAD               	incf	___flmul@aexp,f
  3844  075B  2F61               	goto	l2067
  3845  075C                     l712:
  3846  075C  1C2F               	btfss	___flmul@prod,0
  3847  075D  2F5F               	goto	u1971
  3848  075E  2F60               	goto	u1970
  3849  075F                     u1971:
  3850  075F  2F61               	goto	l2067
  3851  0760                     u1970:
  3852  0760  2F59               	goto	l2063
  3853  0761                     l2067:
  3854  0761  082D               	movf	___flmul@aexp,w
  3855  0762  1903               	btfsc	3,2
  3856  0763  2F65               	goto	u1981
  3857  0764  2F66               	goto	u1980
  3858  0765                     u1981:
  3859  0765  2F8E               	goto	l2077
  3860  0766                     u1980:
  3861  0766                     l2069:
  3862  0766  3001               	movlw	1
  3863  0767  07AF               	addwf	___flmul@prod,f
  3864  0768  3000               	movlw	0
  3865  0769  3DB0               	addwfc	___flmul@prod+1,f
  3866  076A  3000               	movlw	0
  3867  076B  3DB1               	addwfc	___flmul@prod+2,f
  3868  076C  3000               	movlw	0
  3869  076D  3DB2               	addwfc	___flmul@prod+3,f
  3870  076E                     l2071:
  3871  076E  1C32               	btfss	___flmul@prod+3,0
  3872  076F  2F71               	goto	u1991
  3873  0770  2F72               	goto	u1990
  3874  0771                     u1991:
  3875  0771  2F8E               	goto	l2077
  3876  0772                     u1990:
  3877  0772                     l2073:
  3878  0772  082F               	movf	___flmul@prod,w
  3879  0773  00F9               	movwf	??___flmul
  3880  0774  0830               	movf	___flmul@prod+1,w
  3881  0775  00FA               	movwf	??___flmul+1
  3882  0776  0831               	movf	___flmul@prod+2,w
  3883  0777  00FB               	movwf	??___flmul+2
  3884  0778  0832               	movf	___flmul@prod+3,w
  3885  0779  00FC               	movwf	??___flmul+3
  3886  077A  3001               	movlw	1
  3887  077B  00FD               	movwf	??___flmul+4
  3888  077C                     u2005:
  3889  077C  37FC               	asrf	??___flmul+3,f
  3890  077D  0CFB               	rrf	??___flmul+2,f
  3891  077E  0CFA               	rrf	??___flmul+1,f
  3892  077F  0CF9               	rrf	??___flmul,f
  3893  0780                     u2000:
  3894  0780  0BFD               	decfsz	??___flmul+4,f
  3895  0781  2F7C               	goto	u2005
  3896  0782  087C               	movf	??___flmul+3,w
  3897  0783  00B2               	movwf	___flmul@prod+3
  3898  0784  087B               	movf	??___flmul+2,w
  3899  0785  00B1               	movwf	___flmul@prod+2
  3900  0786  087A               	movf	??___flmul+1,w
  3901  0787  00B0               	movwf	___flmul@prod+1
  3902  0788  0879               	movf	??___flmul,w
  3903  0789  00AF               	movwf	___flmul@prod
  3904  078A                     l2075:
  3905  078A  3001               	movlw	1
  3906  078B  07B3               	addwf	___flmul@temp,f
  3907  078C  3000               	movlw	0
  3908  078D  3DB4               	addwfc	___flmul@temp+1,f
  3909  078E                     l2077:
  3910  078E  0834               	movf	___flmul@temp+1,w
  3911  078F  3A80               	xorlw	128
  3912  0790  00F9               	movwf	??___flmul
  3913  0791  3080               	movlw	128
  3914  0792  0279               	subwf	??___flmul,w
  3915  0793  1D03               	skipz
  3916  0794  2F97               	goto	u2015
  3917  0795  30FF               	movlw	255
  3918  0796  0233               	subwf	___flmul@temp,w
  3919  0797                     u2015:
  3920  0797  1C03               	skipc
  3921  0798  2F9A               	goto	u2011
  3922  0799  2F9B               	goto	u2010
  3923  079A                     u2011:
  3924  079A  2FA5               	goto	l2081
  3925  079B                     u2010:
  3926  079B                     l2079:
  3927  079B  307F               	movlw	127
  3928  079C  0140               	movlb	0	; select bank0
  3929  079D  00B2               	movwf	___flmul@prod+3
  3930  079E  3080               	movlw	128
  3931  079F  00B1               	movwf	___flmul@prod+2
  3932  07A0  3000               	movlw	0
  3933  07A1  00B0               	movwf	___flmul@prod+1
  3934  07A2  3000               	movlw	0
  3935  07A3  00AF               	movwf	___flmul@prod
  3936  07A4  2FD4               	goto	l718
  3937  07A5                     l2081:
  3938  07A5  0140               	movlb	0	; select bank0
  3939  07A6  0834               	movf	___flmul@temp+1,w
  3940  07A7  3A80               	xorlw	128
  3941  07A8  00F9               	movwf	??___flmul
  3942  07A9  3080               	movlw	128
  3943  07AA  0279               	subwf	??___flmul,w
  3944  07AB  1D03               	skipz
  3945  07AC  2FAF               	goto	u2025
  3946  07AD  3001               	movlw	1
  3947  07AE  0233               	subwf	___flmul@temp,w
  3948  07AF                     u2025:
  3949  07AF  1803               	skipnc
  3950  07B0  2FB2               	goto	u2021
  3951  07B1  2FB3               	goto	u2020
  3952  07B2                     u2021:
  3953  07B2  2FBE               	goto	l2087
  3954  07B3                     u2020:
  3955  07B3                     l2083:
  3956  07B3  3000               	movlw	0
  3957  07B4  0140               	movlb	0	; select bank0
  3958  07B5  00B2               	movwf	___flmul@prod+3
  3959  07B6  3000               	movlw	0
  3960  07B7  00B1               	movwf	___flmul@prod+2
  3961  07B8  3000               	movlw	0
  3962  07B9  00B0               	movwf	___flmul@prod+1
  3963  07BA  3000               	movlw	0
  3964  07BB  00AF               	movwf	___flmul@prod
  3965  07BC                     l2085:
  3966  07BC  01A8               	clrf	___flmul@sign
  3967  07BD  2FD4               	goto	l718
  3968  07BE                     l2087:
  3969  07BE  0140               	movlb	0	; select bank0
  3970  07BF  0833               	movf	___flmul@temp,w
  3971  07C0  00F9               	movwf	??___flmul
  3972  07C1  0879               	movf	??___flmul,w
  3973  07C2  00AE               	movwf	___flmul@bexp
  3974  07C3  30FF               	movlw	255
  3975  07C4  05AF               	andwf	___flmul@prod,f
  3976  07C5  30FF               	movlw	255
  3977  07C6  05B0               	andwf	___flmul@prod+1,f
  3978  07C7  307F               	movlw	127
  3979  07C8  05B1               	andwf	___flmul@prod+2,f
  3980  07C9  3000               	movlw	0
  3981  07CA  05B2               	andwf	___flmul@prod+3,f
  3982  07CB                     l2089:
  3983  07CB  1C2E               	btfss	___flmul@bexp,0
  3984  07CC  2FCE               	goto	u2031
  3985  07CD  2FCF               	goto	u2030
  3986  07CE                     u2031:
  3987  07CE  2FD0               	goto	l2093
  3988  07CF                     u2030:
  3989  07CF                     l2091:
  3990  07CF  17B1               	bsf	___flmul@prod+2,7
  3991  07D0                     l2093:
  3992  07D0  362E               	lsrf	___flmul@bexp,w
  3993  07D1  00F9               	movwf	??___flmul
  3994  07D2  0879               	movf	??___flmul,w
  3995  07D3  00B2               	movwf	___flmul@prod+3
  3996  07D4                     l718:
  3997  07D4  0828               	movf	___flmul@sign,w
  3998  07D5  00F9               	movwf	??___flmul
  3999  07D6  0879               	movf	??___flmul,w
  4000  07D7  04B2               	iorwf	___flmul@prod+3,f
  4001  07D8                     l2095:
  4002  07D8  0832               	movf	___flmul@prod+3,w
  4003  07D9  00A3               	movwf	?___flmul+3
  4004  07DA  0831               	movf	___flmul@prod+2,w
  4005  07DB  00A2               	movwf	?___flmul+2
  4006  07DC  0830               	movf	___flmul@prod+1,w
  4007  07DD  00A1               	movwf	?___flmul+1
  4008  07DE  082F               	movf	___flmul@prod,w
  4009  07DF  00A0               	movwf	?___flmul
  4010  07E0                     l706:
  4011  07E0  0008               	return
  4012  07E1                     __end_of___flmul:
  4013                           
  4014                           	psect	text8
  4015  0C8A                     __ptext8:	
  4016 ;; *************** function __Umul8_16 *****************
  4017 ;; Defined at:
  4018 ;;		line 4 in file "/Applications/microchip/xc8/v2.20/pic/sources/c99/common/Umul8_16.c"
  4019 ;; Parameters:    Size  Location     Type
  4020 ;;  multiplier      1    wreg     unsigned char 
  4021 ;;  multiplicand    1    0[COMMON] unsigned char 
  4022 ;; Auto vars:     Size  Location     Type
  4023 ;;  multiplier      1    8[COMMON] unsigned char 
  4024 ;;  word_mpld       2    6[COMMON] unsigned int 
  4025 ;;  product         2    4[COMMON] unsigned int 
  4026 ;; Return value:  Size  Location     Type
  4027 ;;                  2    0[COMMON] unsigned int 
  4028 ;; Registers used:
  4029 ;;		wreg, status,2, status,0
  4030 ;; Tracked objects:
  4031 ;;		On entry : 0/0
  4032 ;;		On exit  : 0/0
  4033 ;;		Unchanged: 0/0
  4034 ;; Data sizes:     COMMON   BANK0   BANK1   BANK2   BANK3   BANK4   BANK5   BANK6   BANK7   BANK8   BANK9  BANK10  BANK1
      +1  BANK12  BANK13  BANK14  BANK15  BANK16  BANK17  BANK18  BANK19  BANK20  BANK21  BANK22  BANK23  BANK24  BANK25  BANK2
      +6  BANK27  BANK28  BANK29  BANK30  BANK31  BANK32  BANK33  BANK34  BANK35  BANK36  BANK37  BANK38  BANK39  BANK40  BANK4
      +1  BANK42  BANK43  BANK44  BANK45  BANK46  BANK47  BANK48  BANK49  BANK50
  4035 ;;      Params:         2       0       0       0       0       0       0       0       0       0       0       0       
      +0       0       0       0       0       0       0       0       0       0       0       0       0       0       0       
      +0       0       0       0       0       0       0       0       0       0       0       0       0       0       0       
      +0       0       0       0       0       0       0       0       0       0
  4036 ;;      Locals:         5       0       0       0       0       0       0       0       0       0       0       0       
      +0       0       0       0       0       0       0       0       0       0       0       0       0       0       0       
      +0       0       0       0       0       0       0       0       0       0       0       0       0       0       0       
      +0       0       0       0       0       0       0       0       0       0
  4037 ;;      Temps:          2       0       0       0       0       0       0       0       0       0       0       0       
      +0       0       0       0       0       0       0       0       0       0       0       0       0       0       0       
      +0       0       0       0       0       0       0       0       0       0       0       0       0       0       0       
      +0       0       0       0       0       0       0       0       0       0
  4038 ;;      Totals:         9       0       0       0       0       0       0       0       0       0       0       0       
      +0       0       0       0       0       0       0       0       0       0       0       0       0       0       0       
      +0       0       0       0       0       0       0       0       0       0       0       0       0       0       0       
      +0       0       0       0       0       0       0       0       0       0
  4039 ;;Total ram usage:        9 bytes
  4040 ;; Hardware stack levels used:    1
  4041 ;; This function calls:
  4042 ;;		Nothing
  4043 ;; This function is called by:
  4044 ;;		___flmul
  4045 ;; This function uses a non-reentrant model
  4046 ;;
  4047                           
  4048                           
  4049                           ;psect for function __Umul8_16
  4050  0C8A                     __Umul8_16:
  4051                           
  4052                           ;incstack = 0
  4053                           ; Regs used in __Umul8_16: [wreg+status,2+status,0]
  4054                           ;__Umul8_16@multiplier stored from wreg
  4055  0C8A  00F8               	movwf	__Umul8_16@multiplier
  4056  0C8B                     l1901:
  4057  0C8B  01F4               	clrf	__Umul8_16@product
  4058  0C8C  01F5               	clrf	__Umul8_16@product+1
  4059  0C8D                     l1903:
  4060  0C8D  0870               	movf	__Umul8_16@multiplicand,w
  4061  0C8E  00F2               	movwf	??__Umul8_16
  4062  0C8F  01F3               	clrf	??__Umul8_16+1
  4063  0C90  0872               	movf	??__Umul8_16,w
  4064  0C91  00F6               	movwf	__Umul8_16@word_mpld
  4065  0C92  0873               	movf	??__Umul8_16+1,w
  4066  0C93  00F7               	movwf	__Umul8_16@word_mpld+1
  4067  0C94                     l1905:
  4068  0C94  1C78               	btfss	__Umul8_16@multiplier,0
  4069  0C95  2C97               	goto	u1751
  4070  0C96  2C98               	goto	u1750
  4071  0C97                     u1751:
  4072  0C97  2C9C               	goto	l725
  4073  0C98                     u1750:
  4074  0C98                     l1907:
  4075  0C98  0876               	movf	__Umul8_16@word_mpld,w
  4076  0C99  07F4               	addwf	__Umul8_16@product,f
  4077  0C9A  0877               	movf	__Umul8_16@word_mpld+1,w
  4078  0C9B  3DF5               	addwfc	__Umul8_16@product+1,f
  4079  0C9C                     l725:
  4080  0C9C  3001               	movlw	1
  4081  0C9D                     u1765:
  4082  0C9D  35F6               	lslf	__Umul8_16@word_mpld,f
  4083  0C9E  0DF7               	rlf	__Umul8_16@word_mpld+1,f
  4084  0C9F  0B89               	decfsz	9,f
  4085  0CA0  2C9D               	goto	u1765
  4086  0CA1  1003               	clrc
  4087  0CA2  0CF8               	rrf	__Umul8_16@multiplier,f
  4088  0CA3                     l1909:
  4089  0CA3  0878               	movf	__Umul8_16@multiplier,w
  4090  0CA4  1D03               	btfss	3,2
  4091  0CA5  2CA7               	goto	u1771
  4092  0CA6  2CA8               	goto	u1770
  4093  0CA7                     u1771:
  4094  0CA7  2C94               	goto	l1905
  4095  0CA8                     u1770:
  4096  0CA8                     l1911:
  4097  0CA8  0875               	movf	__Umul8_16@product+1,w
  4098  0CA9  00F1               	movwf	?__Umul8_16+1
  4099  0CAA  0874               	movf	__Umul8_16@product,w
  4100  0CAB  00F0               	movwf	?__Umul8_16
  4101  0CAC                     l727:
  4102  0CAC  0008               	return
  4103  0CAD                     __end_of__Umul8_16:
  4104                           
  4105                           	psect	text9
  4106  0BBE                     __ptext9:	
  4107 ;; *************** function _StopwatchRestart *****************
  4108 ;; Defined at:
  4109 ;;		line 467 in file "main.c"
  4110 ;; Parameters:    Size  Location     Type
  4111 ;;		None
  4112 ;; Auto vars:     Size  Location     Type
  4113 ;;		None
  4114 ;; Return value:  Size  Location     Type
  4115 ;;                  1    wreg      void 
  4116 ;; Registers used:
  4117 ;;		status,2
  4118 ;; Tracked objects:
  4119 ;;		On entry : 0/0
  4120 ;;		On exit  : 0/0
  4121 ;;		Unchanged: 0/0
  4122 ;; Data sizes:     COMMON   BANK0   BANK1   BANK2   BANK3   BANK4   BANK5   BANK6   BANK7   BANK8   BANK9  BANK10  BANK1
      +1  BANK12  BANK13  BANK14  BANK15  BANK16  BANK17  BANK18  BANK19  BANK20  BANK21  BANK22  BANK23  BANK24  BANK25  BANK2
      +6  BANK27  BANK28  BANK29  BANK30  BANK31  BANK32  BANK33  BANK34  BANK35  BANK36  BANK37  BANK38  BANK39  BANK40  BANK4
      +1  BANK42  BANK43  BANK44  BANK45  BANK46  BANK47  BANK48  BANK49  BANK50
  4123 ;;      Params:         0       0       0       0       0       0       0       0       0       0       0       0       
      +0       0       0       0       0       0       0       0       0       0       0       0       0       0       0       
      +0       0       0       0       0       0       0       0       0       0       0       0       0       0       0       
      +0       0       0       0       0       0       0       0       0       0
  4124 ;;      Locals:         0       0       0       0       0       0       0       0       0       0       0       0       
      +0       0       0       0       0       0       0       0       0       0       0       0       0       0       0       
      +0       0       0       0       0       0       0       0       0       0       0       0       0       0       0       
      +0       0       0       0       0       0       0       0       0       0
  4125 ;;      Temps:          0       0       0       0       0       0       0       0       0       0       0       0       
      +0       0       0       0       0       0       0       0       0       0       0       0       0       0       0       
      +0       0       0       0       0       0       0       0       0       0       0       0       0       0       0       
      +0       0       0       0       0       0       0       0       0       0
  4126 ;;      Totals:         0       0       0       0       0       0       0       0       0       0       0       0       
      +0       0       0       0       0       0       0       0       0       0       0       0       0       0       0       
      +0       0       0       0       0       0       0       0       0       0       0       0       0       0       0       
      +0       0       0       0       0       0       0       0       0       0
  4127 ;;Total ram usage:        0 bytes
  4128 ;; Hardware stack levels used:    1
  4129 ;; This function calls:
  4130 ;;		Nothing
  4131 ;; This function is called by:
  4132 ;;		_main
  4133 ;; This function uses a non-reentrant model
  4134 ;;
  4135                           
  4136                           
  4137                           ;psect for function _StopwatchRestart
  4138  0BBE                     _StopwatchRestart:
  4139  0BBE                     l1933:	
  4140                           ;incstack = 0
  4141                           ; Regs used in _StopwatchRestart: [status,2]
  4142                           
  4143                           
  4144                           ;main.c: 471:     TMR1H = 0;
  4145  0BBE  0144               	movlb	4	; select bank4
  4146  0BBF  018D               	clrf	13	;volatile
  4147                           
  4148                           ;main.c: 472:     TMR1L = 0;
  4149  0BC0  018C               	clrf	12	;volatile
  4150  0BC1                     l1935:
  4151                           
  4152                           ;main.c: 473:     T1CONbits.ON = 1;
  4153  0BC1  140E               	bsf	14,0	;volatile
  4154  0BC2                     l142:
  4155  0BC2  0008               	return
  4156  0BC3                     __end_of_StopwatchRestart:
  4157                           
  4158                           	psect	text10
  4159  0BE6                     __ptext10:	
  4160 ;; *************** function _StopwatchRead *****************
  4161 ;; Defined at:
  4162 ;;		line 490 in file "main.c"
  4163 ;; Parameters:    Size  Location     Type
  4164 ;;		None
  4165 ;; Auto vars:     Size  Location     Type
  4166 ;;  tmp             2    3[COMMON] struct .
  4167 ;; Return value:  Size  Location     Type
  4168 ;;                  2    0[COMMON] unsigned short 
  4169 ;; Registers used:
  4170 ;;		wreg
  4171 ;; Tracked objects:
  4172 ;;		On entry : 0/0
  4173 ;;		On exit  : 0/0
  4174 ;;		Unchanged: 0/0
  4175 ;; Data sizes:     COMMON   BANK0   BANK1   BANK2   BANK3   BANK4   BANK5   BANK6   BANK7   BANK8   BANK9  BANK10  BANK1
      +1  BANK12  BANK13  BANK14  BANK15  BANK16  BANK17  BANK18  BANK19  BANK20  BANK21  BANK22  BANK23  BANK24  BANK25  BANK2
      +6  BANK27  BANK28  BANK29  BANK30  BANK31  BANK32  BANK33  BANK34  BANK35  BANK36  BANK37  BANK38  BANK39  BANK40  BANK4
      +1  BANK42  BANK43  BANK44  BANK45  BANK46  BANK47  BANK48  BANK49  BANK50
  4176 ;;      Params:         2       0       0       0       0       0       0       0       0       0       0       0       
      +0       0       0       0       0       0       0       0       0       0       0       0       0       0       0       
      +0       0       0       0       0       0       0       0       0       0       0       0       0       0       0       
      +0       0       0       0       0       0       0       0       0       0
  4177 ;;      Locals:         2       0       0       0       0       0       0       0       0       0       0       0       
      +0       0       0       0       0       0       0       0       0       0       0       0       0       0       0       
      +0       0       0       0       0       0       0       0       0       0       0       0       0       0       0       
      +0       0       0       0       0       0       0       0       0       0
  4178 ;;      Temps:          1       0       0       0       0       0       0       0       0       0       0       0       
      +0       0       0       0       0       0       0       0       0       0       0       0       0       0       0       
      +0       0       0       0       0       0       0       0       0       0       0       0       0       0       0       
      +0       0       0       0       0       0       0       0       0       0
  4179 ;;      Totals:         5       0       0       0       0       0       0       0       0       0       0       0       
      +0       0       0       0       0       0       0       0       0       0       0       0       0       0       0       
      +0       0       0       0       0       0       0       0       0       0       0       0       0       0       0       
      +0       0       0       0       0       0       0       0       0       0
  4180 ;;Total ram usage:        5 bytes
  4181 ;; Hardware stack levels used:    1
  4182 ;; This function calls:
  4183 ;;		Nothing
  4184 ;; This function is called by:
  4185 ;;		_main
  4186 ;; This function uses a non-reentrant model
  4187 ;;
  4188                           
  4189                           
  4190                           ;psect for function _StopwatchRead
  4191  0BE6                     _StopwatchRead:
  4192  0BE6                     l1941:	
  4193                           ;incstack = 0
  4194                           ; Regs used in _StopwatchRead: [wreg]
  4195                           
  4196                           
  4197                           ;main.c: 492:     elapsedTime tmp;;main.c: 496:     T1CONbits.ON = 0;
  4198  0BE6  0144               	movlb	4	; select bank4
  4199  0BE7  100E               	bcf	14,0	;volatile
  4200  0BE8                     l1943:
  4201                           
  4202                           ;main.c: 497:     tmp.Low = TMR1L;
  4203  0BE8  080C               	movf	12,w	;volatile
  4204  0BE9  00F2               	movwf	??_StopwatchRead
  4205  0BEA  0872               	movf	??_StopwatchRead,w
  4206  0BEB  00F3               	movwf	StopwatchRead@tmp
  4207                           
  4208                           ;main.c: 498:     tmp.High = TMR1H;
  4209  0BEC  080D               	movf	13,w	;volatile
  4210  0BED  00F2               	movwf	??_StopwatchRead
  4211  0BEE  0872               	movf	??_StopwatchRead,w
  4212  0BEF  00F4               	movwf	StopwatchRead@tmp+1
  4213                           
  4214                           ;main.c: 499:     return tmp.Full;
  4215  0BF0  0874               	movf	StopwatchRead@tmp+1,w
  4216  0BF1  00F1               	movwf	?_StopwatchRead+1
  4217  0BF2  0873               	movf	StopwatchRead@tmp,w
  4218  0BF3  00F0               	movwf	?_StopwatchRead
  4219  0BF4                     l145:
  4220  0BF4  0008               	return
  4221  0BF5                     __end_of_StopwatchRead:
  4222                           
  4223                           	psect	text11
  4224  0D9E                     __ptext11:	
  4225 ;; *************** function _Initiallize *****************
  4226 ;; Defined at:
  4227 ;;		line 175 in file "main.c"
  4228 ;; Parameters:    Size  Location     Type
  4229 ;;		None
  4230 ;; Auto vars:     Size  Location     Type
  4231 ;;		None
  4232 ;; Return value:  Size  Location     Type
  4233 ;;                  1    wreg      void 
  4234 ;; Registers used:
  4235 ;;		wreg, fsr0l, fsr0h, fsr1l, fsr1h, status,2, status,0, pclath, cstack
  4236 ;; Tracked objects:
  4237 ;;		On entry : 0/0
  4238 ;;		On exit  : 0/0
  4239 ;;		Unchanged: 0/0
  4240 ;; Data sizes:     COMMON   BANK0   BANK1   BANK2   BANK3   BANK4   BANK5   BANK6   BANK7   BANK8   BANK9  BANK10  BANK1
      +1  BANK12  BANK13  BANK14  BANK15  BANK16  BANK17  BANK18  BANK19  BANK20  BANK21  BANK22  BANK23  BANK24  BANK25  BANK2
      +6  BANK27  BANK28  BANK29  BANK30  BANK31  BANK32  BANK33  BANK34  BANK35  BANK36  BANK37  BANK38  BANK39  BANK40  BANK4
      +1  BANK42  BANK43  BANK44  BANK45  BANK46  BANK47  BANK48  BANK49  BANK50
  4241 ;;      Params:         0       0       0       0       0       0       0       0       0       0       0       0       
      +0       0       0       0       0       0       0       0       0       0       0       0       0       0       0       
      +0       0       0       0       0       0       0       0       0       0       0       0       0       0       0       
      +0       0       0       0       0       0       0       0       0       0
  4242 ;;      Locals:         0       0       0       0       0       0       0       0       0       0       0       0       
      +0       0       0       0       0       0       0       0       0       0       0       0       0       0       0       
      +0       0       0       0       0       0       0       0       0       0       0       0       0       0       0       
      +0       0       0       0       0       0       0       0       0       0
  4243 ;;      Temps:          0       0       0       0       0       0       0       0       0       0       0       0       
      +0       0       0       0       0       0       0       0       0       0       0       0       0       0       0       
      +0       0       0       0       0       0       0       0       0       0       0       0       0       0       0       
      +0       0       0       0       0       0       0       0       0       0
  4244 ;;      Totals:         0       0       0       0       0       0       0       0       0       0       0       0       
      +0       0       0       0       0       0       0       0       0       0       0       0       0       0       0       
      +0       0       0       0       0       0       0       0       0       0       0       0       0       0       0       
      +0       0       0       0       0       0       0       0       0       0
  4245 ;;Total ram usage:        0 bytes
  4246 ;; Hardware stack levels used:    1
  4247 ;; Hardware stack levels required when called:    8
  4248 ;; This function calls:
  4249 ;;		_PinConfig
  4250 ;;		_SetPerformanceMode
  4251 ;;		_StopwatchConfig
  4252 ;;		_UartConfig
  4253 ;;		_printf
  4254 ;; This function is called by:
  4255 ;;		_main
  4256 ;; This function uses a non-reentrant model
  4257 ;;
  4258                           
  4259                           
  4260                           ;psect for function _Initiallize
  4261  0D9E                     _Initiallize:
  4262  0D9E                     l1915:	
  4263                           ;incstack = 0
  4264                           ; Regs used in _Initiallize: [wreg-fsr1h+status,2+status,0+pclath+cstack]
  4265                           
  4266                           
  4267                           ;main.c: 178:     SetPerformanceMode();
  4268  0D9E  3180  2005  318D   	fcall	_SetPerformanceMode
  4269  0DA1                     l1917:
  4270                           
  4271                           ;main.c: 181:     PinConfig();
  4272  0DA1  318C  242D  318D   	fcall	_PinConfig
  4273  0DA4                     l1919:
  4274                           
  4275                           ;main.c: 184:     UartConfig();
  4276  0DA4  318C  2407  318D   	fcall	_UartConfig
  4277  0DA7                     l1921:
  4278                           
  4279                           ;main.c: 186:     printf("Cool-MCU.com\r\n");
  4280  0DA7  3007               	movlw	low (STR_8| (0+32768))
  4281  0DA8  0140               	movlb	0	; select bank0
  4282  0DA9  00E8               	movwf	printf@fmt
  4283  0DAA  3091               	movlw	high (STR_8| (0+32768))
  4284  0DAB  00E9               	movwf	printf@fmt+1
  4285  0DAC  318B  23F5  318D   	fcall	_printf
  4286  0DAF                     l1923:
  4287                           
  4288                           ;main.c: 187:     printf("Project: %s\r\n", Project);
  4289  0DAF  3024               	movlw	low (STR_9| (0+32768))
  4290  0DB0  0140               	movlb	0	; select bank0
  4291  0DB1  00E8               	movwf	printf@fmt
  4292  0DB2  3091               	movlw	high (STR_9| (0+32768))
  4293  0DB3  00E9               	movwf	printf@fmt+1
  4294  0DB4  30CF               	movlw	low (_Project| (0+32768))
  4295  0DB5  00EA               	movwf	low ((?_printf| 0+2))
  4296  0DB6  3090               	movlw	high (_Project| (0+32768))
  4297  0DB7  00EB               	movwf	(low ((?_printf| 0+2))+1)
  4298  0DB8  318B  23F5  318D   	fcall	_printf
  4299  0DBB                     l1925:
  4300                           
  4301                           ;main.c: 188:     printf("Version: %s\r\n", Version);
  4302  0DBB  3016               	movlw	low (STR_10| (0+32768))
  4303  0DBC  0140               	movlb	0	; select bank0
  4304  0DBD  00E8               	movwf	printf@fmt
  4305  0DBE  3091               	movlw	high (STR_10| (0+32768))
  4306  0DBF  00E9               	movwf	printf@fmt+1
  4307  0DC0  3000               	movlw	low (_Version| (0+32768))
  4308  0DC1  00EA               	movwf	low ((?_printf| 0+2))
  4309  0DC2  3090               	movlw	high (_Version| (0+32768))
  4310  0DC3  00EB               	movwf	(low ((?_printf| 0+2))+1)
  4311  0DC4  318B  23F5  318D   	fcall	_printf
  4312  0DC7                     l1927:
  4313                           
  4314                           ;main.c: 189:     printf("Build date: %s\r\n", CompileDate);
  4315  0DC7  30F6               	movlw	low (STR_11| (0+32768))
  4316  0DC8  0140               	movlb	0	; select bank0
  4317  0DC9  00E8               	movwf	printf@fmt
  4318  0DCA  3090               	movlw	high (STR_11| (0+32768))
  4319  0DCB  00E9               	movwf	printf@fmt+1
  4320  0DCC  3032               	movlw	low (_CompileDate| (0+32768))
  4321  0DCD  00EA               	movwf	low ((?_printf| 0+2))
  4322  0DCE  3091               	movlw	high (_CompileDate| (0+32768))
  4323  0DCF  00EB               	movwf	(low ((?_printf| 0+2))+1)
  4324  0DD0  318B  23F5  318D   	fcall	_printf
  4325  0DD3                     l1929:
  4326                           
  4327                           ;main.c: 190:     printf("Build time: %s\r\n\r\n", CompileTime);
  4328  0DD3  30E3               	movlw	low (STR_12| (0+32768))
  4329  0DD4  0140               	movlb	0	; select bank0
  4330  0DD5  00E8               	movwf	printf@fmt
  4331  0DD6  3090               	movlw	high (STR_12| (0+32768))
  4332  0DD7  00E9               	movwf	printf@fmt+1
  4333  0DD8  303E               	movlw	low (_CompileTime| (0+32768))
  4334  0DD9  00EA               	movwf	low ((?_printf| 0+2))
  4335  0DDA  3091               	movlw	high (_CompileTime| (0+32768))
  4336  0DDB  00EB               	movwf	(low ((?_printf| 0+2))+1)
  4337  0DDC  318B  23F5  318D   	fcall	_printf
  4338  0DDF                     l1931:
  4339                           
  4340                           ;main.c: 193:     StopwatchConfig();
  4341  0DDF  318B  23CF  318D   	fcall	_StopwatchConfig
  4342  0DE2                     l121:
  4343  0DE2  0008               	return
  4344  0DE3                     __end_of_Initiallize:
  4345                           
  4346                           	psect	text12
  4347  0BF5                     __ptext12:	
  4348 ;; *************** function _printf *****************
  4349 ;; Defined at:
  4350 ;;		line 5 in file "/Applications/microchip/xc8/v2.20/pic/sources/c99/common/printf.c"
  4351 ;; Parameters:    Size  Location     Type
  4352 ;;  fmt             2   72[BANK0 ] PTR const unsigned char 
  4353 ;;		 -> STR_12(19), STR_11(17), STR_10(14), STR_9(14), 
  4354 ;;		 -> STR_8(15), STR_7(26), STR_6(24), STR_5(21), 
  4355 ;;		 -> STR_4(21), STR_3(21), STR_2(21), STR_1(67), 
  4356 ;; Auto vars:     Size  Location     Type
  4357 ;;  ret             2    0        int 
  4358 ;;  ap              1   79[BANK0 ] PTR void [1]
  4359 ;;		 -> ?_printf(2), 
  4360 ;; Return value:  Size  Location     Type
  4361 ;;                  2   72[BANK0 ] int 
  4362 ;; Registers used:
  4363 ;;		wreg, fsr0l, fsr0h, fsr1l, fsr1h, status,2, status,0, pclath, cstack
  4364 ;; Tracked objects:
  4365 ;;		On entry : 0/0
  4366 ;;		On exit  : 0/0
  4367 ;;		Unchanged: 0/0
  4368 ;; Data sizes:     COMMON   BANK0   BANK1   BANK2   BANK3   BANK4   BANK5   BANK6   BANK7   BANK8   BANK9  BANK10  BANK1
      +1  BANK12  BANK13  BANK14  BANK15  BANK16  BANK17  BANK18  BANK19  BANK20  BANK21  BANK22  BANK23  BANK24  BANK25  BANK2
      +6  BANK27  BANK28  BANK29  BANK30  BANK31  BANK32  BANK33  BANK34  BANK35  BANK36  BANK37  BANK38  BANK39  BANK40  BANK4
      +1  BANK42  BANK43  BANK44  BANK45  BANK46  BANK47  BANK48  BANK49  BANK50
  4369 ;;      Params:         0       4       0       0       0       0       0       0       0       0       0       0       
      +0       0       0       0       0       0       0       0       0       0       0       0       0       0       0       
      +0       0       0       0       0       0       0       0       0       0       0       0       0       0       0       
      +0       0       0       0       0       0       0       0       0       0
  4370 ;;      Locals:         0       3       0       0       0       0       0       0       0       0       0       0       
      +0       0       0       0       0       0       0       0       0       0       0       0       0       0       0       
      +0       0       0       0       0       0       0       0       0       0       0       0       0       0       0       
      +0       0       0       0       0       0       0       0       0       0
  4371 ;;      Temps:          0       1       0       0       0       0       0       0       0       0       0       0       
      +0       0       0       0       0       0       0       0       0       0       0       0       0       0       0       
      +0       0       0       0       0       0       0       0       0       0       0       0       0       0       0       
      +0       0       0       0       0       0       0       0       0       0
  4372 ;;      Totals:         0       8       0       0       0       0       0       0       0       0       0       0       
      +0       0       0       0       0       0       0       0       0       0       0       0       0       0       0       
      +0       0       0       0       0       0       0       0       0       0       0       0       0       0       0       
      +0       0       0       0       0       0       0       0       0       0
  4373 ;;Total ram usage:        8 bytes
  4374 ;; Hardware stack levels used:    1
  4375 ;; Hardware stack levels required when called:    7
  4376 ;; This function calls:
  4377 ;;		_vfprintf
  4378 ;; This function is called by:
  4379 ;;		_main
  4380 ;;		_Initiallize
  4381 ;; This function uses a non-reentrant model
  4382 ;;
  4383                           
  4384                           
  4385                           ;psect for function _printf
  4386  0BF5                     _printf:
  4387  0BF5                     l1845:	
  4388                           ;incstack = 0
  4389                           ; Regs used in _printf: [wreg-fsr1h+status,2+status,0+pclath+cstack]
  4390                           
  4391  0BF5  306A               	movlw	(low ((?_printf| 0+2)))& (0+255)
  4392  0BF6  0140               	movlb	0	; select bank0
  4393  0BF7  00EC               	movwf	??_printf
  4394  0BF8  086C               	movf	??_printf,w
  4395  0BF9  00EF               	movwf	printf@ap
  4396  0BFA                     l1847:
  4397  0BFA  0869               	movf	printf@fmt+1,w
  4398  0BFB  00E1               	movwf	vfprintf@fmt+1
  4399  0BFC  0868               	movf	printf@fmt,w
  4400  0BFD  00E0               	movwf	vfprintf@fmt
  4401  0BFE  306F               	movlw	(low (printf@ap| 0))& (0+255)
  4402  0BFF  00EC               	movwf	??_printf
  4403  0C00  086C               	movf	??_printf,w
  4404  0C01  00E2               	movwf	vfprintf@ap
  4405  0C02  3000               	movlw	0
  4406  0C03  318C  24FB  318B   	fcall	_vfprintf
  4407  0C06                     l772:
  4408  0C06  0008               	return
  4409  0C07                     __end_of_printf:
  4410                           
  4411                           	psect	text13
  4412  0CFB                     __ptext13:	
  4413 ;; *************** function _vfprintf *****************
  4414 ;; Defined at:
  4415 ;;		line 1368 in file "/Applications/microchip/xc8/v2.20/pic/sources/c99/common/doprnt.c"
  4416 ;; Parameters:    Size  Location     Type
  4417 ;;  fp              1    wreg     PTR struct _IO_FILE
  4418 ;;		 -> NULL(0), 
  4419 ;;  fmt             2   64[BANK0 ] PTR const unsigned char 
  4420 ;;		 -> STR_12(19), STR_11(17), STR_10(14), STR_9(14), 
  4421 ;;		 -> STR_8(15), STR_7(26), STR_6(24), STR_5(21), 
  4422 ;;		 -> STR_4(21), STR_3(21), STR_2(21), STR_1(67), 
  4423 ;;  ap              1   66[BANK0 ] PTR PTR void 
  4424 ;;		 -> printf@ap(1), 
  4425 ;; Auto vars:     Size  Location     Type
  4426 ;;  fp              1   69[BANK0 ] PTR struct _IO_FILE
  4427 ;;		 -> NULL(0), 
  4428 ;;  cfmt            2   70[BANK0 ] PTR unsigned char 
  4429 ;;		 -> STR_12(19), STR_11(17), STR_10(14), STR_9(14), 
  4430 ;;		 -> STR_8(15), STR_7(26), STR_6(24), STR_5(21), 
  4431 ;;		 -> STR_4(21), STR_3(21), STR_2(21), STR_1(67), 
  4432 ;; Return value:  Size  Location     Type
  4433 ;;                  2   64[BANK0 ] int 
  4434 ;; Registers used:
  4435 ;;		wreg, fsr0l, fsr0h, fsr1l, fsr1h, status,2, status,0, pclath, cstack
  4436 ;; Tracked objects:
  4437 ;;		On entry : 0/0
  4438 ;;		On exit  : 0/0
  4439 ;;		Unchanged: 0/0
  4440 ;; Data sizes:     COMMON   BANK0   BANK1   BANK2   BANK3   BANK4   BANK5   BANK6   BANK7   BANK8   BANK9  BANK10  BANK1
      +1  BANK12  BANK13  BANK14  BANK15  BANK16  BANK17  BANK18  BANK19  BANK20  BANK21  BANK22  BANK23  BANK24  BANK25  BANK2
      +6  BANK27  BANK28  BANK29  BANK30  BANK31  BANK32  BANK33  BANK34  BANK35  BANK36  BANK37  BANK38  BANK39  BANK40  BANK4
      +1  BANK42  BANK43  BANK44  BANK45  BANK46  BANK47  BANK48  BANK49  BANK50
  4441 ;;      Params:         0       3       0       0       0       0       0       0       0       0       0       0       
      +0       0       0       0       0       0       0       0       0       0       0       0       0       0       0       
      +0       0       0       0       0       0       0       0       0       0       0       0       0       0       0       
      +0       0       0       0       0       0       0       0       0       0
  4442 ;;      Locals:         0       3       0       0       0       0       0       0       0       0       0       0       
      +0       0       0       0       0       0       0       0       0       0       0       0       0       0       0       
      +0       0       0       0       0       0       0       0       0       0       0       0       0       0       0       
      +0       0       0       0       0       0       0       0       0       0
  4443 ;;      Temps:          0       2       0       0       0       0       0       0       0       0       0       0       
      +0       0       0       0       0       0       0       0       0       0       0       0       0       0       0       
      +0       0       0       0       0       0       0       0       0       0       0       0       0       0       0       
      +0       0       0       0       0       0       0       0       0       0
  4444 ;;      Totals:         0       8       0       0       0       0       0       0       0       0       0       0       
      +0       0       0       0       0       0       0       0       0       0       0       0       0       0       0       
      +0       0       0       0       0       0       0       0       0       0       0       0       0       0       0       
      +0       0       0       0       0       0       0       0       0       0
  4445 ;;Total ram usage:        8 bytes
  4446 ;; Hardware stack levels used:    1
  4447 ;; Hardware stack levels required when called:    6
  4448 ;; This function calls:
  4449 ;;		_vfpfcnvrt
  4450 ;; This function is called by:
  4451 ;;		_printf
  4452 ;; This function uses a non-reentrant model
  4453 ;;
  4454                           
  4455                           
  4456                           ;psect for function _vfprintf
  4457  0CFB                     _vfprintf:
  4458                           
  4459                           ;incstack = 0
  4460                           ; Regs used in _vfprintf: [wreg-fsr1h+status,2+status,0+pclath+cstack]
  4461                           ;vfprintf@fp stored from wreg
  4462  0CFB  0140               	movlb	0	; select bank0
  4463  0CFC  00E5               	movwf	vfprintf@fp
  4464  0CFD                     l1833:
  4465                           
  4466                           ;/Applications/microchip/xc8/v2.20/pic/sources/c99/common/doprnt.c: 1368: int vfprintf(F
      +                          ILE *fp, const char *fmt, va_list ap);/Applications/microchip/xc8/v2.20/pic/sources/c99/
      +                          common/doprnt.c: 1369: {;/Applications/microchip/xc8/v2.20/pic/sources/c99/common/doprnt
      +                          .c: 1371:     char *cfmt;;/Applications/microchip/xc8/v2.20/pic/sources/c99/common/doprn
      +                          t.c: 1373:     cfmt = (char *)fmt;
  4467  0CFD  0861               	movf	vfprintf@fmt+1,w
  4468  0CFE  00E7               	movwf	vfprintf@cfmt+1
  4469  0CFF  0860               	movf	vfprintf@fmt,w
  4470  0D00  00E6               	movwf	vfprintf@cfmt
  4471  0D01                     l1835:
  4472                           
  4473                           ;/Applications/microchip/xc8/v2.20/pic/sources/c99/common/doprnt.c: 1374:     nout = 0;
  4474  0D01  0141               	movlb	1	; select bank1
  4475  0D02  01CC               	clrf	_nout^(0+128)
  4476  0D03  01CD               	clrf	(_nout+1)^(0+128)
  4477                           
  4478                           ;/Applications/microchip/xc8/v2.20/pic/sources/c99/common/doprnt.c: 1375:     while (*cf
      +                          mt) {
  4479  0D04  2D19               	goto	l1839
  4480  0D05                     l1837:
  4481                           
  4482                           ;/Applications/microchip/xc8/v2.20/pic/sources/c99/common/doprnt.c: 1376:         nout +
      +                          = vfpfcnvrt(fp, &cfmt, ap);
  4483  0D05  3066               	movlw	(low (vfprintf@cfmt| 0))& (0+255)
  4484  0D06  00E3               	movwf	??_vfprintf
  4485  0D07  0863               	movf	??_vfprintf,w
  4486  0D08  00CE               	movwf	vfpfcnvrt@fmt
  4487  0D09  0862               	movf	vfprintf@ap,w
  4488  0D0A  00E4               	movwf	??_vfprintf+1
  4489  0D0B  0864               	movf	??_vfprintf+1,w
  4490  0D0C  00CF               	movwf	vfpfcnvrt@ap
  4491  0D0D  0865               	movf	vfprintf@fp,w
  4492  0D0E  3181  2126  318C   	fcall	_vfpfcnvrt
  4493  0D11  0140               	movlb	0	; select bank0
  4494  0D12  084E               	movf	?_vfpfcnvrt,w
  4495  0D13  0141               	movlb	1	; select bank1
  4496  0D14  07CC               	addwf	_nout^(0+128),f
  4497  0D15  0140               	movlb	0	; select bank0
  4498  0D16  084F               	movf	?_vfpfcnvrt+1,w
  4499  0D17  0141               	movlb	1	; select bank1
  4500  0D18  3DCD               	addwfc	(_nout+1)^(0+128),f
  4501  0D19                     l1839:
  4502                           
  4503                           ;/Applications/microchip/xc8/v2.20/pic/sources/c99/common/doprnt.c: 1375:     while (*cf
      +                          mt) {
  4504  0D19  0140               	movlb	0	; select bank0
  4505  0D1A  0866               	movf	vfprintf@cfmt,w
  4506  0D1B  0084               	movwf	4
  4507  0D1C  0867               	movf	vfprintf@cfmt+1,w
  4508  0D1D  0085               	movwf	5
  4509  0D1E  0012               	moviw fsr0++
  4510  0D1F  1D03               	btfss	3,2
  4511  0D20  2D22               	goto	u1661
  4512  0D21  2D23               	goto	u1660
  4513  0D22                     u1661:
  4514  0D22  2D05               	goto	l1837
  4515  0D23                     u1660:
  4516  0D23                     l1841:
  4517                           
  4518                           ;/Applications/microchip/xc8/v2.20/pic/sources/c99/common/doprnt.c: 1378:     return nou
      +                          t;
  4519  0D23  0141               	movlb	1	; select bank1
  4520  0D24  084D               	movf	(_nout+1)^(0+128),w
  4521  0D25  0140               	movlb	0	; select bank0
  4522  0D26  00E1               	movwf	?_vfprintf+1
  4523  0D27  0141               	movlb	1	; select bank1
  4524  0D28  084C               	movf	_nout^(0+128),w
  4525  0D29  0140               	movlb	0	; select bank0
  4526  0D2A  00E0               	movwf	?_vfprintf
  4527  0D2B                     l868:
  4528  0D2B  0008               	return
  4529  0D2C                     __end_of_vfprintf:
  4530                           
  4531                           	psect	text14
  4532  0126                     __ptext14:	
  4533 ;; *************** function _vfpfcnvrt *****************
  4534 ;; Defined at:
  4535 ;;		line 670 in file "/Applications/microchip/xc8/v2.20/pic/sources/c99/common/doprnt.c"
  4536 ;; Parameters:    Size  Location     Type
  4537 ;;  fp              1    wreg     PTR struct _IO_FILE
  4538 ;;		 -> NULL(0), 
  4539 ;;  fmt             1   46[BANK0 ] PTR PTR unsigned char 
  4540 ;;		 -> vfprintf@cfmt(2), 
  4541 ;;  ap              1   47[BANK0 ] PTR PTR void 
  4542 ;;		 -> printf@ap(1), 
  4543 ;; Auto vars:     Size  Location     Type
  4544 ;;  fp              1   63[BANK0 ] PTR struct _IO_FILE
  4545 ;;		 -> NULL(0), 
  4546 ;;  ll              8   53[BANK0 ] long long 
  4547 ;;  llu             8    0        unsigned long long 
  4548 ;;  f               4    0        unsigned long long 
  4549 ;;  ct              3    0        unsigned char [3]
  4550 ;;  cp              2   61[BANK0 ] PTR unsigned char 
  4551 ;;		 -> ?_printf(2), CompileTime(9), CompileDate(12), Version(6), 
  4552 ;;		 -> Project(20), 
  4553 ;;  vp              2    0        PTR void 
  4554 ;;  i               2    0        int 
  4555 ;;  done            2    0        int 
  4556 ;;  c               1    0        unsigned char 
  4557 ;; Return value:  Size  Location     Type
  4558 ;;                  2   46[BANK0 ] int 
  4559 ;; Registers used:
  4560 ;;		wreg, fsr0l, fsr0h, fsr1l, fsr1h, status,2, status,0, pclath, cstack
  4561 ;; Tracked objects:
  4562 ;;		On entry : 0/0
  4563 ;;		On exit  : 0/0
  4564 ;;		Unchanged: 0/0
  4565 ;; Data sizes:     COMMON   BANK0   BANK1   BANK2   BANK3   BANK4   BANK5   BANK6   BANK7   BANK8   BANK9  BANK10  BANK1
      +1  BANK12  BANK13  BANK14  BANK15  BANK16  BANK17  BANK18  BANK19  BANK20  BANK21  BANK22  BANK23  BANK24  BANK25  BANK2
      +6  BANK27  BANK28  BANK29  BANK30  BANK31  BANK32  BANK33  BANK34  BANK35  BANK36  BANK37  BANK38  BANK39  BANK40  BANK4
      +1  BANK42  BANK43  BANK44  BANK45  BANK46  BANK47  BANK48  BANK49  BANK50
  4566 ;;      Params:         0       2       0       0       0       0       0       0       0       0       0       0       
      +0       0       0       0       0       0       0       0       0       0       0       0       0       0       0       
      +0       0       0       0       0       0       0       0       0       0       0       0       0       0       0       
      +0       0       0       0       0       0       0       0       0       0
  4567 ;;      Locals:         0      11       0       0       0       0       0       0       0       0       0       0       
      +0       0       0       0       0       0       0       0       0       0       0       0       0       0       0       
      +0       0       0       0       0       0       0       0       0       0       0       0       0       0       0       
      +0       0       0       0       0       0       0       0       0       0
  4568 ;;      Temps:          0       5       0       0       0       0       0       0       0       0       0       0       
      +0       0       0       0       0       0       0       0       0       0       0       0       0       0       0       
      +0       0       0       0       0       0       0       0       0       0       0       0       0       0       0       
      +0       0       0       0       0       0       0       0       0       0
  4569 ;;      Totals:         0      18       0       0       0       0       0       0       0       0       0       0       
      +0       0       0       0       0       0       0       0       0       0       0       0       0       0       0       
      +0       0       0       0       0       0       0       0       0       0       0       0       0       0       0       
      +0       0       0       0       0       0       0       0       0       0
  4570 ;;Total ram usage:       18 bytes
  4571 ;; Hardware stack levels used:    1
  4572 ;; Hardware stack levels required when called:    5
  4573 ;; This function calls:
  4574 ;;		_dtoa
  4575 ;;		_fputc
  4576 ;;		_stoa
  4577 ;; This function is called by:
  4578 ;;		_vfprintf
  4579 ;; This function uses a non-reentrant model
  4580 ;;
  4581                           
  4582                           
  4583                           ;psect for function _vfpfcnvrt
  4584  0126                     _vfpfcnvrt:
  4585                           
  4586                           ;incstack = 0
  4587                           ; Regs used in _vfpfcnvrt: [wreg-fsr1h+status,2+status,0+pclath+cstack]
  4588                           ;vfpfcnvrt@fp stored from wreg
  4589  0126  0140               	movlb	0	; select bank0
  4590  0127  00DF               	movwf	vfpfcnvrt@fp
  4591  0128                     l1779:
  4592                           
  4593                           ;/Applications/microchip/xc8/v2.20/pic/sources/c99/common/doprnt.c: 670: static int vfpf
      +                          cnvrt(FILE *fp, char *fmt[], va_list ap);/Applications/microchip/xc8/v2.20/pic/sources/c
      +                          99/common/doprnt.c: 671: {;/Applications/microchip/xc8/v2.20/pic/sources/c99/common/dopr
      +                          nt.c: 672:     char c, *cp, ct[3];;/Applications/microchip/xc8/v2.20/pic/sources/c99/com
      +                          mon/doprnt.c: 673:     int done, i;;/Applications/microchip/xc8/v2.20/pic/sources/c99/co
      +                          mmon/doprnt.c: 674:     long long ll;;/Applications/microchip/xc8/v2.20/pic/sources/c99/
      +                          common/doprnt.c: 675:     unsigned long long llu;
  4594  0128  084E               	movf	vfpfcnvrt@fmt,w
  4595  0129  0086               	movwf	6
  4596  012A  0187               	clrf	7
  4597  012B  3F40               	moviw [0]fsr1
  4598  012C  00D0               	movwf	??_vfpfcnvrt
  4599  012D  3F41               	moviw [1]fsr1
  4600  012E  00D1               	movwf	??_vfpfcnvrt+1
  4601  012F  0850               	movf	??_vfpfcnvrt,w
  4602  0130  0084               	movwf	4
  4603  0131  0851               	movf	??_vfpfcnvrt+1,w
  4604  0132  0085               	movwf	5
  4605  0133  0012               	moviw fsr0++
  4606  0134  3A25               	xorlw	37
  4607  0135  1D03               	btfss	3,2
  4608  0136  2938               	goto	u1611
  4609  0137  2939               	goto	u1610
  4610  0138                     u1611:
  4611  0138  2A10               	goto	l1825
  4612  0139                     u1610:
  4613  0139                     l1781:
  4614                           
  4615                           ;/Applications/microchip/xc8/v2.20/pic/sources/c99/common/doprnt.c: 681:         ++*fmt;
  4616  0139  084E               	movf	vfpfcnvrt@fmt,w
  4617  013A  0086               	movwf	6
  4618  013B  0187               	clrf	7
  4619  013C  3001               	movlw	1
  4620  013D  0781               	addwf	1,f
  4621  013E  3141               	addfsr 1,1
  4622  013F  1803               	skipnc
  4623  0140  0A81               	incf	1,f
  4624  0141                     l1783:
  4625                           
  4626                           ;/Applications/microchip/xc8/v2.20/pic/sources/c99/common/doprnt.c: 683:         flags =
      +                           width = 0;
  4627  0141  0141               	movlb	1	; select bank1
  4628  0142  01CE               	clrf	_width^(0+128)
  4629  0143  01CF               	clrf	(_width+1)^(0+128)
  4630  0144  01D2               	clrf	_flags^(0+128)
  4631  0145  01D3               	clrf	(_flags+1)^(0+128)
  4632  0146                     l1785:
  4633                           
  4634                           ;/Applications/microchip/xc8/v2.20/pic/sources/c99/common/doprnt.c: 684:         prec = 
      +                          -1;
  4635  0146  30FF               	movlw	255
  4636  0147  00D0               	movwf	_prec^(0+128)
  4637  0148  30FF               	movlw	255
  4638  0149  00D1               	movwf	(_prec^(0+128)+1)
  4639  014A                     l1787:
  4640                           
  4641                           ;/Applications/microchip/xc8/v2.20/pic/sources/c99/common/doprnt.c: 825:         if ((*f
      +                          mt[0] == 'd') || (*fmt[0] == 'i')) {
  4642  014A  0140               	movlb	0	; select bank0
  4643  014B  084E               	movf	vfpfcnvrt@fmt,w
  4644  014C  0086               	movwf	6
  4645  014D  0187               	clrf	7
  4646  014E  3F40               	moviw [0]fsr1
  4647  014F  00D0               	movwf	??_vfpfcnvrt
  4648  0150  3F41               	moviw [1]fsr1
  4649  0151  00D1               	movwf	??_vfpfcnvrt+1
  4650  0152  0850               	movf	??_vfpfcnvrt,w
  4651  0153  0084               	movwf	4
  4652  0154  0851               	movf	??_vfpfcnvrt+1,w
  4653  0155  0085               	movwf	5
  4654  0156  0012               	moviw fsr0++
  4655  0157  3A64               	xorlw	100
  4656  0158  1903               	btfsc	3,2
  4657  0159  295B               	goto	u1621
  4658  015A  295C               	goto	u1620
  4659  015B                     u1621:
  4660  015B  296D               	goto	l1791
  4661  015C                     u1620:
  4662  015C                     l1789:
  4663  015C  084E               	movf	vfpfcnvrt@fmt,w
  4664  015D  0086               	movwf	6
  4665  015E  0187               	clrf	7
  4666  015F  3F40               	moviw [0]fsr1
  4667  0160  00D0               	movwf	??_vfpfcnvrt
  4668  0161  3F41               	moviw [1]fsr1
  4669  0162  00D1               	movwf	??_vfpfcnvrt+1
  4670  0163  0850               	movf	??_vfpfcnvrt,w
  4671  0164  0084               	movwf	4
  4672  0165  0851               	movf	??_vfpfcnvrt+1,w
  4673  0166  0085               	movwf	5
  4674  0167  0012               	moviw fsr0++
  4675  0168  3A69               	xorlw	105
  4676  0169  1D03               	btfss	3,2
  4677  016A  296C               	goto	u1631
  4678  016B  296D               	goto	u1630
  4679  016C                     u1631:
  4680  016C  29A8               	goto	l1799
  4681  016D                     u1630:
  4682  016D                     l1791:
  4683                           
  4684                           ;/Applications/microchip/xc8/v2.20/pic/sources/c99/common/doprnt.c: 827:             ++*
      +                          fmt;
  4685  016D  084E               	movf	vfpfcnvrt@fmt,w
  4686  016E  0086               	movwf	6
  4687  016F  0187               	clrf	7
  4688  0170  3001               	movlw	1
  4689  0171  0781               	addwf	1,f
  4690  0172  3141               	addfsr 1,1
  4691  0173  1803               	skipnc
  4692  0174  0A81               	incf	1,f
  4693  0175                     l1793:
  4694                           
  4695                           ;/Applications/microchip/xc8/v2.20/pic/sources/c99/common/doprnt.c: 828:             ll 
      +                          = (long long)(*(int *)__va_arg(*(int **)ap, (int)0));
  4696  0175  084F               	movf	vfpfcnvrt@ap,w
  4697  0176  0086               	movwf	6
  4698  0177  0187               	clrf	7
  4699  0178  0801               	movf	1,w
  4700  0179  0084               	movwf	4
  4701  017A  0185               	clrf	5
  4702  017B  3002               	movlw	2
  4703  017C  0781               	addwf	1,f
  4704  017D  3F00               	moviw [0]fsr0
  4705  017E  00D0               	movwf	??_vfpfcnvrt
  4706  017F  3F01               	moviw [1]fsr0
  4707  0180  00D1               	movwf	??_vfpfcnvrt+1
  4708  0181  0850               	movf	??_vfpfcnvrt,w
  4709  0182  00D5               	movwf	vfpfcnvrt@ll
  4710  0183  0851               	movf	??_vfpfcnvrt+1,w
  4711  0184  00D6               	movwf	vfpfcnvrt@ll+1
  4712  0185  0D89               	rlf	9,f
  4713  0186  3B89               	subwfb	9,f
  4714  0187  0989               	comf	9,f
  4715  0188  00D7               	movwf	vfpfcnvrt@ll+2
  4716  0189  00D8               	movwf	vfpfcnvrt@ll+3
  4717  018A  00D9               	movwf	vfpfcnvrt@ll+4
  4718  018B  00DA               	movwf	vfpfcnvrt@ll+5
  4719  018C  00DB               	movwf	vfpfcnvrt@ll+6
  4720  018D  00DC               	movwf	vfpfcnvrt@ll+7
  4721  018E                     l1795:
  4722                           
  4723                           ;/Applications/microchip/xc8/v2.20/pic/sources/c99/common/doprnt.c: 830:             ret
      +                          urn dtoa(fp, ll);
  4724  018E  0855               	movf	vfpfcnvrt@ll,w
  4725  018F  00B0               	movwf	dtoa@d
  4726  0190  0856               	movf	vfpfcnvrt@ll+1,w
  4727  0191  00B1               	movwf	dtoa@d+1
  4728  0192  0857               	movf	vfpfcnvrt@ll+2,w
  4729  0193  00B2               	movwf	dtoa@d+2
  4730  0194  0858               	movf	vfpfcnvrt@ll+3,w
  4731  0195  00B3               	movwf	dtoa@d+3
  4732  0196  0859               	movf	vfpfcnvrt@ll+4,w
  4733  0197  00B4               	movwf	dtoa@d+4
  4734  0198  085A               	movf	vfpfcnvrt@ll+5,w
  4735  0199  00B5               	movwf	dtoa@d+5
  4736  019A  085B               	movf	vfpfcnvrt@ll+6,w
  4737  019B  00B6               	movwf	dtoa@d+6
  4738  019C  085C               	movf	vfpfcnvrt@ll+7,w
  4739  019D  00B7               	movwf	dtoa@d+7
  4740  019E  085F               	movf	vfpfcnvrt@fp,w
  4741  019F  3182  2234  3181   	fcall	_dtoa
  4742  01A2  0140               	movlb	0	; select bank0
  4743  01A3  0831               	movf	?_dtoa+1,w
  4744  01A4  00CF               	movwf	?_vfpfcnvrt+1
  4745  01A5  0830               	movf	?_dtoa,w
  4746  01A6  00CE               	movwf	?_vfpfcnvrt
  4747  01A7  2A33               	goto	l860
  4748  01A8                     l1799:
  4749                           
  4750                           ;/Applications/microchip/xc8/v2.20/pic/sources/c99/common/doprnt.c: 1149:         if (*f
      +                          mt[0] == 's') {
  4751  01A8  084E               	movf	vfpfcnvrt@fmt,w
  4752  01A9  0086               	movwf	6
  4753  01AA  0187               	clrf	7
  4754  01AB  3F40               	moviw [0]fsr1
  4755  01AC  00D0               	movwf	??_vfpfcnvrt
  4756  01AD  3F41               	moviw [1]fsr1
  4757  01AE  00D1               	movwf	??_vfpfcnvrt+1
  4758  01AF  0850               	movf	??_vfpfcnvrt,w
  4759  01B0  0084               	movwf	4
  4760  01B1  0851               	movf	??_vfpfcnvrt+1,w
  4761  01B2  0085               	movwf	5
  4762  01B3  0012               	moviw fsr0++
  4763  01B4  3A73               	xorlw	115
  4764  01B5  1D03               	btfss	3,2
  4765  01B6  29B8               	goto	u1641
  4766  01B7  29B9               	goto	u1640
  4767  01B8                     u1641:
  4768  01B8  29DB               	goto	l1809
  4769  01B9                     u1640:
  4770  01B9                     l1801:
  4771                           
  4772                           ;/Applications/microchip/xc8/v2.20/pic/sources/c99/common/doprnt.c: 1151:             ++
      +                          *fmt;
  4773  01B9  084E               	movf	vfpfcnvrt@fmt,w
  4774  01BA  0086               	movwf	6
  4775  01BB  0187               	clrf	7
  4776  01BC  3001               	movlw	1
  4777  01BD  0781               	addwf	1,f
  4778  01BE  3141               	addfsr 1,1
  4779  01BF  1803               	skipnc
  4780  01C0  0A81               	incf	1,f
  4781  01C1                     l1803:
  4782                           
  4783                           ;/Applications/microchip/xc8/v2.20/pic/sources/c99/common/doprnt.c: 1152:             cp
      +                           = (*(char * *)__va_arg(*(char * **)ap, (char *)0));
  4784  01C1  084F               	movf	vfpfcnvrt@ap,w
  4785  01C2  0086               	movwf	6
  4786  01C3  0187               	clrf	7
  4787  01C4  0801               	movf	1,w
  4788  01C5  0084               	movwf	4
  4789  01C6  0185               	clrf	5
  4790  01C7  3002               	movlw	2
  4791  01C8  0781               	addwf	1,f
  4792  01C9  3F00               	moviw [0]fsr0
  4793  01CA  00DD               	movwf	vfpfcnvrt@cp
  4794  01CB  3F01               	moviw [1]fsr0
  4795  01CC  00DE               	movwf	vfpfcnvrt@cp+1
  4796  01CD                     l1805:
  4797                           
  4798                           ;/Applications/microchip/xc8/v2.20/pic/sources/c99/common/doprnt.c: 1154:             re
      +                          turn stoa(fp, cp);
  4799  01CD  085E               	movf	vfpfcnvrt@cp+1,w
  4800  01CE  00FA               	movwf	stoa@s+1
  4801  01CF  085D               	movf	vfpfcnvrt@cp,w
  4802  01D0  00F9               	movwf	stoa@s
  4803  01D1  085F               	movf	vfpfcnvrt@fp,w
  4804  01D2  318E  263F  3181   	fcall	_stoa
  4805  01D5  087A               	movf	?_stoa+1,w
  4806  01D6  0140               	movlb	0	; select bank0
  4807  01D7  00CF               	movwf	?_vfpfcnvrt+1
  4808  01D8  0879               	movf	?_stoa,w
  4809  01D9  00CE               	movwf	?_vfpfcnvrt
  4810  01DA  2A33               	goto	l860
  4811  01DB                     l1809:
  4812                           
  4813                           ;/Applications/microchip/xc8/v2.20/pic/sources/c99/common/doprnt.c: 1350:         if ((*
      +                          fmt)[0] == '%') {
  4814  01DB  084E               	movf	vfpfcnvrt@fmt,w
  4815  01DC  0086               	movwf	6
  4816  01DD  0187               	clrf	7
  4817  01DE  3F40               	moviw [0]fsr1
  4818  01DF  00D0               	movwf	??_vfpfcnvrt
  4819  01E0  3F41               	moviw [1]fsr1
  4820  01E1  00D1               	movwf	??_vfpfcnvrt+1
  4821  01E2  0850               	movf	??_vfpfcnvrt,w
  4822  01E3  0084               	movwf	4
  4823  01E4  0851               	movf	??_vfpfcnvrt+1,w
  4824  01E5  0085               	movwf	5
  4825  01E6  0012               	moviw fsr0++
  4826  01E7  3A25               	xorlw	37
  4827  01E8  1D03               	btfss	3,2
  4828  01E9  29EB               	goto	u1651
  4829  01EA  29EC               	goto	u1650
  4830  01EB                     u1651:
  4831  01EB  2A05               	goto	l1819
  4832  01EC                     u1650:
  4833  01EC                     l1811:
  4834                           
  4835                           ;/Applications/microchip/xc8/v2.20/pic/sources/c99/common/doprnt.c: 1351:             ++
      +                          *fmt;
  4836  01EC  084E               	movf	vfpfcnvrt@fmt,w
  4837  01ED  0086               	movwf	6
  4838  01EE  0187               	clrf	7
  4839  01EF  3001               	movlw	1
  4840  01F0  0781               	addwf	1,f
  4841  01F1  3141               	addfsr 1,1
  4842  01F2  1803               	skipnc
  4843  01F3  0A81               	incf	1,f
  4844  01F4                     l1813:
  4845                           
  4846                           ;/Applications/microchip/xc8/v2.20/pic/sources/c99/common/doprnt.c: 1352:             fp
      +                          utc((int)'%', fp);
  4847  01F4  3025               	movlw	37
  4848  01F5  00F1               	movwf	fputc@c
  4849  01F6  3000               	movlw	0
  4850  01F7  00F2               	movwf	fputc@c+1
  4851  01F8  085F               	movf	vfpfcnvrt@fp,w
  4852  01F9  00D0               	movwf	??_vfpfcnvrt
  4853  01FA  0850               	movf	??_vfpfcnvrt,w
  4854  01FB  00F3               	movwf	fputc@fp
  4855  01FC  318D  255F  3181   	fcall	_fputc
  4856  01FF                     l1815:
  4857                           
  4858                           ;/Applications/microchip/xc8/v2.20/pic/sources/c99/common/doprnt.c: 1353:             re
      +                          turn 1;
  4859  01FF  3001               	movlw	1
  4860  0200  0140               	movlb	0	; select bank0
  4861  0201  00CE               	movwf	?_vfpfcnvrt
  4862  0202  3000               	movlw	0
  4863  0203  00CF               	movwf	?_vfpfcnvrt+1
  4864  0204  2A33               	goto	l860
  4865  0205                     l1819:
  4866                           
  4867                           ;/Applications/microchip/xc8/v2.20/pic/sources/c99/common/doprnt.c: 1357:         ++*fmt
      +                          ;
  4868  0205  084E               	movf	vfpfcnvrt@fmt,w
  4869  0206  0086               	movwf	6
  4870  0207  0187               	clrf	7
  4871  0208  3001               	movlw	1
  4872  0209  0781               	addwf	1,f
  4873  020A  3141               	addfsr 1,1
  4874  020B  1803               	skipnc
  4875  020C  0A81               	incf	1,f
  4876  020D                     l1821:
  4877                           
  4878                           ;/Applications/microchip/xc8/v2.20/pic/sources/c99/common/doprnt.c: 1358:         return
      +                           0;
  4879  020D  01CE               	clrf	?_vfpfcnvrt
  4880  020E  01CF               	clrf	?_vfpfcnvrt+1
  4881  020F  2A33               	goto	l860
  4882  0210                     l1825:
  4883                           
  4884                           ;/Applications/microchip/xc8/v2.20/pic/sources/c99/common/doprnt.c: 1362:     fputc((int
      +                          )(*fmt)[0], fp);
  4885  0210  084E               	movf	vfpfcnvrt@fmt,w
  4886  0211  0086               	movwf	6
  4887  0212  0187               	clrf	7
  4888  0213  3F40               	moviw [0]fsr1
  4889  0214  00D0               	movwf	??_vfpfcnvrt
  4890  0215  3F41               	moviw [1]fsr1
  4891  0216  00D1               	movwf	??_vfpfcnvrt+1
  4892  0217  0850               	movf	??_vfpfcnvrt,w
  4893  0218  0084               	movwf	4
  4894  0219  0851               	movf	??_vfpfcnvrt+1,w
  4895  021A  0085               	movwf	5
  4896  021B  0800               	movf	0,w	;code access
  4897  021C  00D2               	movwf	??_vfpfcnvrt+2
  4898  021D  01D3               	clrf	??_vfpfcnvrt+3
  4899  021E  0852               	movf	??_vfpfcnvrt+2,w
  4900  021F  00F1               	movwf	fputc@c
  4901  0220  0853               	movf	??_vfpfcnvrt+3,w
  4902  0221  00F2               	movwf	fputc@c+1
  4903  0222  085F               	movf	vfpfcnvrt@fp,w
  4904  0223  00D4               	movwf	??_vfpfcnvrt+4
  4905  0224  0854               	movf	??_vfpfcnvrt+4,w
  4906  0225  00F3               	movwf	fputc@fp
  4907  0226  318D  255F  3181   	fcall	_fputc
  4908  0229                     l1827:
  4909                           
  4910                           ;/Applications/microchip/xc8/v2.20/pic/sources/c99/common/doprnt.c: 1363:     ++*fmt;
  4911  0229  0140               	movlb	0	; select bank0
  4912  022A  084E               	movf	vfpfcnvrt@fmt,w
  4913  022B  0086               	movwf	6
  4914  022C  0187               	clrf	7
  4915  022D  3001               	movlw	1
  4916  022E  0781               	addwf	1,f
  4917  022F  3141               	addfsr 1,1
  4918  0230  1803               	skipnc
  4919  0231  0A81               	incf	1,f
  4920  0232  29FF               	goto	l1815
  4921  0233                     l860:
  4922  0233  0008               	return
  4923  0234                     __end_of_vfpfcnvrt:
  4924                           
  4925                           	psect	text15
  4926  0E3F                     __ptext15:	
  4927 ;; *************** function _stoa *****************
  4928 ;; Defined at:
  4929 ;;		line 546 in file "/Applications/microchip/xc8/v2.20/pic/sources/c99/common/doprnt.c"
  4930 ;; Parameters:    Size  Location     Type
  4931 ;;  fp              1    wreg     PTR struct _IO_FILE
  4932 ;;		 -> NULL(0), 
  4933 ;;  s               2    9[COMMON] PTR unsigned char 
  4934 ;;		 -> ?_printf(2), CompileTime(9), CompileDate(12), Version(6), 
  4935 ;;		 -> Project(20), 
  4936 ;; Auto vars:     Size  Location     Type
  4937 ;;  fp              1   13[BANK0 ] PTR struct _IO_FILE
  4938 ;;		 -> NULL(0), 
  4939 ;;  nuls            7    0[BANK0 ] unsigned char [7]
  4940 ;;  l               2   16[BANK0 ] int 
  4941 ;;  p               2   14[BANK0 ] int 
  4942 ;;  cp              2   11[BANK0 ] PTR unsigned char 
  4943 ;;		 -> stoa@nuls(7), ?_printf(2), CompileTime(9), CompileDate(12), 
  4944 ;;		 -> Version(6), Project(20), 
  4945 ;;  w               2    9[BANK0 ] int 
  4946 ;;  i               2    7[BANK0 ] int 
  4947 ;; Return value:  Size  Location     Type
  4948 ;;                  2    9[COMMON] int 
  4949 ;; Registers used:
  4950 ;;		wreg, fsr0l, fsr0h, fsr1l, fsr1h, status,2, status,0, pclath, cstack
  4951 ;; Tracked objects:
  4952 ;;		On entry : 0/0
  4953 ;;		On exit  : 0/0
  4954 ;;		Unchanged: 0/0
  4955 ;; Data sizes:     COMMON   BANK0   BANK1   BANK2   BANK3   BANK4   BANK5   BANK6   BANK7   BANK8   BANK9  BANK10  BANK1
      +1  BANK12  BANK13  BANK14  BANK15  BANK16  BANK17  BANK18  BANK19  BANK20  BANK21  BANK22  BANK23  BANK24  BANK25  BANK2
      +6  BANK27  BANK28  BANK29  BANK30  BANK31  BANK32  BANK33  BANK34  BANK35  BANK36  BANK37  BANK38  BANK39  BANK40  BANK4
      +1  BANK42  BANK43  BANK44  BANK45  BANK46  BANK47  BANK48  BANK49  BANK50
  4956 ;;      Params:         2       0       0       0       0       0       0       0       0       0       0       0       
      +0       0       0       0       0       0       0       0       0       0       0       0       0       0       0       
      +0       0       0       0       0       0       0       0       0       0       0       0       0       0       0       
      +0       0       0       0       0       0       0       0       0       0
  4957 ;;      Locals:         0      18       0       0       0       0       0       0       0       0       0       0       
      +0       0       0       0       0       0       0       0       0       0       0       0       0       0       0       
      +0       0       0       0       0       0       0       0       0       0       0       0       0       0       0       
      +0       0       0       0       0       0       0       0       0       0
  4958 ;;      Temps:          3       0       0       0       0       0       0       0       0       0       0       0       
      +0       0       0       0       0       0       0       0       0       0       0       0       0       0       0       
      +0       0       0       0       0       0       0       0       0       0       0       0       0       0       0       
      +0       0       0       0       0       0       0       0       0       0
  4959 ;;      Totals:         5      18       0       0       0       0       0       0       0       0       0       0       
      +0       0       0       0       0       0       0       0       0       0       0       0       0       0       0       
      +0       0       0       0       0       0       0       0       0       0       0       0       0       0       0       
      +0       0       0       0       0       0       0       0       0       0
  4960 ;;Total ram usage:       23 bytes
  4961 ;; Hardware stack levels used:    1
  4962 ;; Hardware stack levels required when called:    2
  4963 ;; This function calls:
  4964 ;;		_fputc
  4965 ;;		_strlen
  4966 ;; This function is called by:
  4967 ;;		_vfpfcnvrt
  4968 ;; This function uses a non-reentrant model
  4969 ;;
  4970                           
  4971                           
  4972                           ;psect for function _stoa
  4973  0E3F                     _stoa:
  4974                           
  4975                           ;incstack = 0
  4976                           ; Regs used in _stoa: [wreg-fsr1h+status,2+status,0+pclath+cstack]
  4977                           ;stoa@fp stored from wreg
  4978  0E3F  0140               	movlb	0	; select bank0
  4979  0E40  00AD               	movwf	stoa@fp
  4980  0E41                     l1729:
  4981                           
  4982                           ;/Applications/microchip/xc8/v2.20/pic/sources/c99/common/doprnt.c: 546: static int stoa
      +                          (FILE *fp, char *s);/Applications/microchip/xc8/v2.20/pic/sources/c99/common/doprnt.c: 5
      +                          47: {;/Applications/microchip/xc8/v2.20/pic/sources/c99/common/doprnt.c: 548:     char *
      +                          cp, nuls[] = "(null)";
  4983  0E41  30E5               	movlw	low stoa@F1139
  4984  0E42  0086               	movwf	6
  4985  0E43  3000               	movlw	high stoa@F1139
  4986  0E44  0087               	movwf	7
  4987  0E45  3020               	movlw	low stoa@nuls
  4988  0E46  0084               	movwf	4
  4989  0E47  3000               	movlw	high stoa@nuls
  4990  0E48  0085               	movwf	5
  4991  0E49  3007               	movlw	7
  4992  0E4A  00FB               	movwf	??_stoa
  4993  0E4B                     u1520:
  4994  0E4B  0016               	moviw fsr1++
  4995  0E4C  001A               	movwi fsr0++
  4996  0E4D  0BFB               	decfsz	??_stoa,f
  4997  0E4E  2E4B               	goto	u1520
  4998  0E4F                     l1731:
  4999                           
  5000                           ;/Applications/microchip/xc8/v2.20/pic/sources/c99/common/doprnt.c: 549:     int i, l, p
      +                          , w;;/Applications/microchip/xc8/v2.20/pic/sources/c99/common/doprnt.c: 552:     cp = s;
  5001  0E4F  087A               	movf	stoa@s+1,w
  5002  0E50  00AC               	movwf	stoa@cp+1
  5003  0E51  0879               	movf	stoa@s,w
  5004  0E52  00AB               	movwf	stoa@cp
  5005  0E53                     l1733:
  5006                           
  5007                           ;/Applications/microchip/xc8/v2.20/pic/sources/c99/common/doprnt.c: 553:     if (!cp) {
  5008  0E53  082B               	movf	stoa@cp,w
  5009  0E54  042C               	iorwf	stoa@cp+1,w
  5010  0E55  1D03               	btfss	3,2
  5011  0E56  2E58               	goto	u1531
  5012  0E57  2E59               	goto	u1530
  5013  0E58                     u1531:
  5014  0E58  2E5D               	goto	l1737
  5015  0E59                     u1530:
  5016  0E59                     l1735:
  5017                           
  5018                           ;/Applications/microchip/xc8/v2.20/pic/sources/c99/common/doprnt.c: 554:         cp = nu
      +                          ls;
  5019  0E59  3020               	movlw	low stoa@nuls
  5020  0E5A  00AB               	movwf	stoa@cp
  5021  0E5B  3000               	movlw	high stoa@nuls
  5022  0E5C  00AC               	movwf	stoa@cp+1
  5023  0E5D                     l1737:
  5024                           
  5025                           ;/Applications/microchip/xc8/v2.20/pic/sources/c99/common/doprnt.c: 558:     l = strlen(
      +                          cp);
  5026  0E5D  082C               	movf	stoa@cp+1,w
  5027  0E5E  00F1               	movwf	strlen@s+1
  5028  0E5F  082B               	movf	stoa@cp,w
  5029  0E60  00F0               	movwf	strlen@s
  5030  0E61  318C  2457  318E   	fcall	_strlen
  5031  0E64  0871               	movf	?_strlen+1,w
  5032  0E65  0140               	movlb	0	; select bank0
  5033  0E66  00B1               	movwf	stoa@l+1
  5034  0E67  0870               	movf	?_strlen,w
  5035  0E68  00B0               	movwf	stoa@l
  5036  0E69                     l1739:
  5037                           
  5038                           ;/Applications/microchip/xc8/v2.20/pic/sources/c99/common/doprnt.c: 559:     p = prec;
  5039  0E69  0141               	movlb	1	; select bank1
  5040  0E6A  0851               	movf	(_prec+1)^(0+128),w
  5041  0E6B  0140               	movlb	0	; select bank0
  5042  0E6C  00AF               	movwf	stoa@p+1
  5043  0E6D  0141               	movlb	1	; select bank1
  5044  0E6E  0850               	movf	_prec^(0+128),w
  5045  0E6F  0140               	movlb	0	; select bank0
  5046  0E70  00AE               	movwf	stoa@p
  5047  0E71                     l1741:
  5048                           
  5049                           ;/Applications/microchip/xc8/v2.20/pic/sources/c99/common/doprnt.c: 560:     l = (!(p < 
      +                          0) && (p < l)) ? p : l;
  5050  0E71  1BAF               	btfsc	stoa@p+1,7
  5051  0E72  2E74               	goto	u1541
  5052  0E73  2E75               	goto	u1540
  5053  0E74                     u1541:
  5054  0E74  2E89               	goto	l839
  5055  0E75                     u1540:
  5056  0E75                     l1743:
  5057  0E75  082F               	movf	stoa@p+1,w
  5058  0E76  3A80               	xorlw	128
  5059  0E77  00FB               	movwf	??_stoa
  5060  0E78  0831               	movf	stoa@l+1,w
  5061  0E79  3A80               	xorlw	128
  5062  0E7A  027B               	subwf	??_stoa,w
  5063  0E7B  1D03               	skipz
  5064  0E7C  2E7F               	goto	u1555
  5065  0E7D  0830               	movf	stoa@l,w
  5066  0E7E  022E               	subwf	stoa@p,w
  5067  0E7F                     u1555:
  5068  0E7F  1C03               	skipc
  5069  0E80  2E82               	goto	u1551
  5070  0E81  2E83               	goto	u1550
  5071  0E82                     u1551:
  5072  0E82  2E84               	goto	l1745
  5073  0E83                     u1550:
  5074  0E83  2E89               	goto	l839
  5075  0E84                     l1745:
  5076  0E84  0140               	movlb	0	; select bank0
  5077  0E85  082F               	movf	stoa@p+1,w
  5078  0E86  00B1               	movwf	stoa@l+1
  5079  0E87  082E               	movf	stoa@p,w
  5080  0E88  00B0               	movwf	stoa@l
  5081  0E89                     l839:
  5082                           
  5083                           ;/Applications/microchip/xc8/v2.20/pic/sources/c99/common/doprnt.c: 561:     p = l;
  5084  0E89  0140               	movlb	0	; select bank0
  5085  0E8A  0831               	movf	stoa@l+1,w
  5086  0E8B  00AF               	movwf	stoa@p+1
  5087  0E8C  0830               	movf	stoa@l,w
  5088  0E8D  00AE               	movwf	stoa@p
  5089                           
  5090                           ;/Applications/microchip/xc8/v2.20/pic/sources/c99/common/doprnt.c: 562:     w = width;
  5091  0E8E  0141               	movlb	1	; select bank1
  5092  0E8F  084F               	movf	(_width+1)^(0+128),w
  5093  0E90  0140               	movlb	0	; select bank0
  5094  0E91  00AA               	movwf	stoa@w+1
  5095  0E92  0141               	movlb	1	; select bank1
  5096  0E93  084E               	movf	_width^(0+128),w
  5097  0E94  0140               	movlb	0	; select bank0
  5098  0E95  00A9               	movwf	stoa@w
  5099  0E96                     l1747:
  5100                           
  5101                           ;/Applications/microchip/xc8/v2.20/pic/sources/c99/common/doprnt.c: 565:     if (!(flags
      +                           & (1 << 0))) {
  5102  0E96  0141               	movlb	1	; select bank1
  5103  0E97  1852               	btfsc	_flags^(0+128),0
  5104  0E98  2E9A               	goto	u1561
  5105  0E99  2E9B               	goto	u1560
  5106  0E9A                     u1561:
  5107  0E9A  2EBC               	goto	l1757
  5108  0E9B                     u1560:
  5109  0E9B  2EAD               	goto	l1755
  5110  0E9C                     l1751:
  5111                           
  5112                           ;/Applications/microchip/xc8/v2.20/pic/sources/c99/common/doprnt.c: 567:             fpu
      +                          tc(' ', fp);
  5113  0E9C  3020               	movlw	32
  5114  0E9D  00F1               	movwf	fputc@c
  5115  0E9E  3000               	movlw	0
  5116  0E9F  00F2               	movwf	fputc@c+1
  5117  0EA0  0140               	movlb	0	; select bank0
  5118  0EA1  082D               	movf	stoa@fp,w
  5119  0EA2  00FB               	movwf	??_stoa
  5120  0EA3  087B               	movf	??_stoa,w
  5121  0EA4  00F3               	movwf	fputc@fp
  5122  0EA5  318D  255F  318E   	fcall	_fputc
  5123  0EA8                     l1753:
  5124                           
  5125                           ;/Applications/microchip/xc8/v2.20/pic/sources/c99/common/doprnt.c: 568:             ++l
      +                          ;
  5126  0EA8  3001               	movlw	1
  5127  0EA9  0140               	movlb	0	; select bank0
  5128  0EAA  07B0               	addwf	stoa@l,f
  5129  0EAB  3000               	movlw	0
  5130  0EAC  3DB1               	addwfc	stoa@l+1,f
  5131  0EAD                     l1755:
  5132                           
  5133                           ;/Applications/microchip/xc8/v2.20/pic/sources/c99/common/doprnt.c: 566:         while (
      +                          l < w) {
  5134  0EAD  0140               	movlb	0	; select bank0
  5135  0EAE  0831               	movf	stoa@l+1,w
  5136  0EAF  3A80               	xorlw	128
  5137  0EB0  00FB               	movwf	??_stoa
  5138  0EB1  082A               	movf	stoa@w+1,w
  5139  0EB2  3A80               	xorlw	128
  5140  0EB3  027B               	subwf	??_stoa,w
  5141  0EB4  1D03               	skipz
  5142  0EB5  2EB8               	goto	u1575
  5143  0EB6  0829               	movf	stoa@w,w
  5144  0EB7  0230               	subwf	stoa@l,w
  5145  0EB8                     u1575:
  5146  0EB8  1C03               	skipc
  5147  0EB9  2EBB               	goto	u1571
  5148  0EBA  2EBC               	goto	u1570
  5149  0EBB                     u1571:
  5150  0EBB  2E9C               	goto	l1751
  5151  0EBC                     u1570:
  5152  0EBC                     l1757:
  5153                           
  5154                           ;/Applications/microchip/xc8/v2.20/pic/sources/c99/common/doprnt.c: 573:     i = 0;
  5155  0EBC  0140               	movlb	0	; select bank0
  5156  0EBD  01A7               	clrf	stoa@i
  5157  0EBE  01A8               	clrf	stoa@i+1
  5158                           
  5159                           ;/Applications/microchip/xc8/v2.20/pic/sources/c99/common/doprnt.c: 574:     while (i < 
      +                          p) {
  5160  0EBF  2EDC               	goto	l1765
  5161  0EC0                     l1759:
  5162                           
  5163                           ;/Applications/microchip/xc8/v2.20/pic/sources/c99/common/doprnt.c: 575:         fputc(*
      +                          cp, fp);
  5164  0EC0  0140               	movlb	0	; select bank0
  5165  0EC1  082B               	movf	stoa@cp,w
  5166  0EC2  0084               	movwf	4
  5167  0EC3  082C               	movf	stoa@cp+1,w
  5168  0EC4  0085               	movwf	5
  5169  0EC5  0800               	movf	0,w	;code access
  5170  0EC6  00FB               	movwf	??_stoa
  5171  0EC7  01FC               	clrf	??_stoa+1
  5172  0EC8  087B               	movf	??_stoa,w
  5173  0EC9  00F1               	movwf	fputc@c
  5174  0ECA  087C               	movf	??_stoa+1,w
  5175  0ECB  00F2               	movwf	fputc@c+1
  5176  0ECC  082D               	movf	stoa@fp,w
  5177  0ECD  00FD               	movwf	??_stoa+2
  5178  0ECE  087D               	movf	??_stoa+2,w
  5179  0ECF  00F3               	movwf	fputc@fp
  5180  0ED0  318D  255F  318E   	fcall	_fputc
  5181  0ED3                     l1761:
  5182                           
  5183                           ;/Applications/microchip/xc8/v2.20/pic/sources/c99/common/doprnt.c: 576:         ++cp;
  5184  0ED3  3001               	movlw	1
  5185  0ED4  0140               	movlb	0	; select bank0
  5186  0ED5  07AB               	addwf	stoa@cp,f
  5187  0ED6  3000               	movlw	0
  5188  0ED7  3DAC               	addwfc	stoa@cp+1,f
  5189  0ED8                     l1763:
  5190                           
  5191                           ;/Applications/microchip/xc8/v2.20/pic/sources/c99/common/doprnt.c: 577:         ++i;
  5192  0ED8  3001               	movlw	1
  5193  0ED9  07A7               	addwf	stoa@i,f
  5194  0EDA  3000               	movlw	0
  5195  0EDB  3DA8               	addwfc	stoa@i+1,f
  5196  0EDC                     l1765:
  5197                           
  5198                           ;/Applications/microchip/xc8/v2.20/pic/sources/c99/common/doprnt.c: 574:     while (i < 
      +                          p) {
  5199  0EDC  0828               	movf	stoa@i+1,w
  5200  0EDD  3A80               	xorlw	128
  5201  0EDE  00FB               	movwf	??_stoa
  5202  0EDF  082F               	movf	stoa@p+1,w
  5203  0EE0  3A80               	xorlw	128
  5204  0EE1  027B               	subwf	??_stoa,w
  5205  0EE2  1D03               	skipz
  5206  0EE3  2EE6               	goto	u1585
  5207  0EE4  082E               	movf	stoa@p,w
  5208  0EE5  0227               	subwf	stoa@i,w
  5209  0EE6                     u1585:
  5210  0EE6  1C03               	skipc
  5211  0EE7  2EE9               	goto	u1581
  5212  0EE8  2EEA               	goto	u1580
  5213  0EE9                     u1581:
  5214  0EE9  2EC0               	goto	l1759
  5215  0EEA                     u1580:
  5216  0EEA                     l848:
  5217                           
  5218                           ;/Applications/microchip/xc8/v2.20/pic/sources/c99/common/doprnt.c: 581:     if (flags &
      +                           (1 << 0)) {
  5219  0EEA  0141               	movlb	1	; select bank1
  5220  0EEB  1C52               	btfss	_flags^(0+128),0
  5221  0EEC  2EEE               	goto	u1591
  5222  0EED  2EEF               	goto	u1590
  5223  0EEE                     u1591:
  5224  0EEE  2F10               	goto	l1775
  5225  0EEF                     u1590:
  5226  0EEF  2F01               	goto	l1773
  5227  0EF0                     l1769:
  5228                           
  5229                           ;/Applications/microchip/xc8/v2.20/pic/sources/c99/common/doprnt.c: 583:             fpu
      +                          tc(' ', fp);
  5230  0EF0  3020               	movlw	32
  5231  0EF1  00F1               	movwf	fputc@c
  5232  0EF2  3000               	movlw	0
  5233  0EF3  00F2               	movwf	fputc@c+1
  5234  0EF4  0140               	movlb	0	; select bank0
  5235  0EF5  082D               	movf	stoa@fp,w
  5236  0EF6  00FB               	movwf	??_stoa
  5237  0EF7  087B               	movf	??_stoa,w
  5238  0EF8  00F3               	movwf	fputc@fp
  5239  0EF9  318D  255F  318E   	fcall	_fputc
  5240  0EFC                     l1771:
  5241                           
  5242                           ;/Applications/microchip/xc8/v2.20/pic/sources/c99/common/doprnt.c: 584:             ++l
      +                          ;
  5243  0EFC  3001               	movlw	1
  5244  0EFD  0140               	movlb	0	; select bank0
  5245  0EFE  07B0               	addwf	stoa@l,f
  5246  0EFF  3000               	movlw	0
  5247  0F00  3DB1               	addwfc	stoa@l+1,f
  5248  0F01                     l1773:
  5249                           
  5250                           ;/Applications/microchip/xc8/v2.20/pic/sources/c99/common/doprnt.c: 582:         while (
      +                          l < w) {
  5251  0F01  0140               	movlb	0	; select bank0
  5252  0F02  0831               	movf	stoa@l+1,w
  5253  0F03  3A80               	xorlw	128
  5254  0F04  00FB               	movwf	??_stoa
  5255  0F05  082A               	movf	stoa@w+1,w
  5256  0F06  3A80               	xorlw	128
  5257  0F07  027B               	subwf	??_stoa,w
  5258  0F08  1D03               	skipz
  5259  0F09  2F0C               	goto	u1605
  5260  0F0A  0829               	movf	stoa@w,w
  5261  0F0B  0230               	subwf	stoa@l,w
  5262  0F0C                     u1605:
  5263  0F0C  1C03               	skipc
  5264  0F0D  2F0F               	goto	u1601
  5265  0F0E  2F10               	goto	u1600
  5266  0F0F                     u1601:
  5267  0F0F  2EF0               	goto	l1769
  5268  0F10                     u1600:
  5269  0F10                     l1775:
  5270                           
  5271                           ;/Applications/microchip/xc8/v2.20/pic/sources/c99/common/doprnt.c: 588:     return l;
  5272  0F10  0140               	movlb	0	; select bank0
  5273  0F11  0831               	movf	stoa@l+1,w
  5274  0F12  00FA               	movwf	?_stoa+1
  5275  0F13  0830               	movf	stoa@l,w
  5276  0F14  00F9               	movwf	?_stoa
  5277  0F15                     l853:
  5278  0F15  0008               	return
  5279  0F16                     __end_of_stoa:
  5280                           
  5281                           	psect	text16
  5282  0234                     __ptext16:	
  5283 ;; *************** function _dtoa *****************
  5284 ;; Defined at:
  5285 ;;		line 274 in file "/Applications/microchip/xc8/v2.20/pic/sources/c99/common/doprnt.c"
  5286 ;; Parameters:    Size  Location     Type
  5287 ;;  fp              1    wreg     PTR struct _IO_FILE
  5288 ;;		 -> NULL(0), 
  5289 ;;  d               8   16[BANK0 ] long long 
  5290 ;; Auto vars:     Size  Location     Type
  5291 ;;  fp              1   31[BANK0 ] PTR struct _IO_FILE
  5292 ;;		 -> NULL(0), 
  5293 ;;  n               8   36[BANK0 ] long long 
  5294 ;;  i               2   44[BANK0 ] int 
  5295 ;;  s               2   34[BANK0 ] int 
  5296 ;;  w               2   32[BANK0 ] int 
  5297 ;;  p               2   29[BANK0 ] int 
  5298 ;; Return value:  Size  Location     Type
  5299 ;;                  2   16[BANK0 ] int 
  5300 ;; Registers used:
  5301 ;;		wreg, fsr0l, fsr0h, fsr1l, fsr1h, status,2, status,0, pclath, cstack
  5302 ;; Tracked objects:
  5303 ;;		On entry : 0/0
  5304 ;;		On exit  : 0/0
  5305 ;;		Unchanged: 0/0
  5306 ;; Data sizes:     COMMON   BANK0   BANK1   BANK2   BANK3   BANK4   BANK5   BANK6   BANK7   BANK8   BANK9  BANK10  BANK1
      +1  BANK12  BANK13  BANK14  BANK15  BANK16  BANK17  BANK18  BANK19  BANK20  BANK21  BANK22  BANK23  BANK24  BANK25  BANK2
      +6  BANK27  BANK28  BANK29  BANK30  BANK31  BANK32  BANK33  BANK34  BANK35  BANK36  BANK37  BANK38  BANK39  BANK40  BANK4
      +1  BANK42  BANK43  BANK44  BANK45  BANK46  BANK47  BANK48  BANK49  BANK50
  5307 ;;      Params:         0       8       0       0       0       0       0       0       0       0       0       0       
      +0       0       0       0       0       0       0       0       0       0       0       0       0       0       0       
      +0       0       0       0       0       0       0       0       0       0       0       0       0       0       0       
      +0       0       0       0       0       0       0       0       0       0
  5308 ;;      Locals:         0      19       0       0       0       0       0       0       0       0       0       0       
      +0       0       0       0       0       0       0       0       0       0       0       0       0       0       0       
      +0       0       0       0       0       0       0       0       0       0       0       0       0       0       0       
      +0       0       0       0       0       0       0       0       0       0
  5309 ;;      Temps:          0       3       0       0       0       0       0       0       0       0       0       0       
      +0       0       0       0       0       0       0       0       0       0       0       0       0       0       0       
      +0       0       0       0       0       0       0       0       0       0       0       0       0       0       0       
      +0       0       0       0       0       0       0       0       0       0
  5310 ;;      Totals:         0      30       0       0       0       0       0       0       0       0       0       0       
      +0       0       0       0       0       0       0       0       0       0       0       0       0       0       0       
      +0       0       0       0       0       0       0       0       0       0       0       0       0       0       0       
      +0       0       0       0       0       0       0       0       0       0
  5311 ;;Total ram usage:       30 bytes
  5312 ;; Hardware stack levels used:    1
  5313 ;; Hardware stack levels required when called:    4
  5314 ;; This function calls:
  5315 ;;		___aodiv
  5316 ;;		___aomod
  5317 ;;		_abs
  5318 ;;		_pad
  5319 ;; This function is called by:
  5320 ;;		_vfpfcnvrt
  5321 ;; This function uses a non-reentrant model
  5322 ;;
  5323                           
  5324                           
  5325                           ;psect for function _dtoa
  5326  0234                     _dtoa:
  5327                           
  5328                           ;incstack = 0
  5329                           ; Regs used in _dtoa: [wreg-fsr1h+status,2+status,0+pclath+cstack]
  5330                           ;dtoa@fp stored from wreg
  5331  0234  0140               	movlb	0	; select bank0
  5332  0235  00BF               	movwf	dtoa@fp
  5333  0236                     l1671:
  5334                           
  5335                           ;/Applications/microchip/xc8/v2.20/pic/sources/c99/common/doprnt.c: 274: static int dtoa
      +                          (FILE *fp, long long d);/Applications/microchip/xc8/v2.20/pic/sources/c99/common/doprnt.
      +                          c: 275: {;/Applications/microchip/xc8/v2.20/pic/sources/c99/common/doprnt.c: 276:     in
      +                          t i, p, s, w;;/Applications/microchip/xc8/v2.20/pic/sources/c99/common/doprnt.c: 277:   
      +                            long long n;;/Applications/microchip/xc8/v2.20/pic/sources/c99/common/doprnt.c: 280:  
      +                             n = d;
  5336  0236  0830               	movf	dtoa@d,w
  5337  0237  00C4               	movwf	dtoa@n
  5338  0238  0831               	movf	dtoa@d+1,w
  5339  0239  00C5               	movwf	dtoa@n+1
  5340  023A  0832               	movf	dtoa@d+2,w
  5341  023B  00C6               	movwf	dtoa@n+2
  5342  023C  0833               	movf	dtoa@d+3,w
  5343  023D  00C7               	movwf	dtoa@n+3
  5344  023E  0834               	movf	dtoa@d+4,w
  5345  023F  00C8               	movwf	dtoa@n+4
  5346  0240  0835               	movf	dtoa@d+5,w
  5347  0241  00C9               	movwf	dtoa@n+5
  5348  0242  0836               	movf	dtoa@d+6,w
  5349  0243  00CA               	movwf	dtoa@n+6
  5350  0244  0837               	movf	dtoa@d+7,w
  5351  0245  00CB               	movwf	dtoa@n+7
  5352  0246                     l1673:
  5353                           
  5354                           ;/Applications/microchip/xc8/v2.20/pic/sources/c99/common/doprnt.c: 281:     s = n < 0 ?
      +                           1 : 0;
  5355  0246  3044               	movlw	low dtoa@n
  5356  0247  0086               	movwf	6
  5357  0248  3000               	movlw	high dtoa@n
  5358  0249  0087               	movwf	7
  5359  024A  3F47               	moviw [7]fsr1
  5360  024B  00B8               	movwf	??_dtoa
  5361  024C  1BB8               	btfsc	??_dtoa,7
  5362  024D  2A4F               	goto	u1361
  5363  024E  2A51               	goto	u1360
  5364  024F                     u1361:
  5365  024F  3001               	movlw	1
  5366  0250  2A52               	goto	u1370
  5367  0251                     u1360:
  5368  0251  3000               	movlw	0
  5369  0252                     u1370:
  5370  0252  0140               	movlb	0	; select bank0
  5371  0253  00B9               	movwf	??_dtoa+1
  5372  0254  01BA               	clrf	??_dtoa+2
  5373  0255  0839               	movf	??_dtoa+1,w
  5374  0256  00C2               	movwf	dtoa@s
  5375  0257  083A               	movf	??_dtoa+2,w
  5376  0258  00C3               	movwf	dtoa@s+1
  5377  0259                     l1675:
  5378                           
  5379                           ;/Applications/microchip/xc8/v2.20/pic/sources/c99/common/doprnt.c: 282:     if (s) {
  5380  0259  0842               	movf	dtoa@s,w
  5381  025A  0443               	iorwf	dtoa@s+1,w
  5382  025B  1903               	btfsc	3,2
  5383  025C  2A5E               	goto	u1381
  5384  025D  2A5F               	goto	u1380
  5385  025E                     u1381:
  5386  025E  2A7D               	goto	l807
  5387  025F                     u1380:
  5388  025F                     l1677:
  5389                           
  5390                           ;/Applications/microchip/xc8/v2.20/pic/sources/c99/common/doprnt.c: 283:         n = -n;
  5391  025F  09C4               	comf	dtoa@n,f
  5392  0260  09C5               	comf	dtoa@n+1,f
  5393  0261  09C6               	comf	dtoa@n+2,f
  5394  0262  09C7               	comf	dtoa@n+3,f
  5395  0263  09C8               	comf	dtoa@n+4,f
  5396  0264  09C9               	comf	dtoa@n+5,f
  5397  0265  09CA               	comf	dtoa@n+6,f
  5398  0266  09CB               	comf	dtoa@n+7,f
  5399  0267  0AC4               	incf	dtoa@n,f
  5400  0268  1D03               	skipz
  5401  0269  2A7D               	goto	u139lld
  5402  026A  0AC5               	incf	dtoa@n+1,f
  5403  026B  1D03               	skipz
  5404  026C  2A7D               	goto	u139lld
  5405  026D  0AC6               	incf	dtoa@n+2,f
  5406  026E  1D03               	skipz
  5407  026F  2A7D               	goto	u139lld
  5408  0270  0AC7               	incf	dtoa@n+3,f
  5409  0271  1D03               	skipz
  5410  0272  2A7D               	goto	u139lld
  5411  0273  0AC8               	incf	dtoa@n+4,f
  5412  0274  1D03               	skipz
  5413  0275  2A7D               	goto	u139lld
  5414  0276  0AC9               	incf	dtoa@n+5,f
  5415  0277  1D03               	skipz
  5416  0278  2A7D               	goto	u139lld
  5417  0279  0ACA               	incf	dtoa@n+6,f
  5418  027A  1D03               	skipz
  5419  027B  2A7D               	goto	u139lld
  5420  027C  0ACB               	incf	dtoa@n+7,f
  5421  027D                     u139lld:
  5422  027D                     l807:	
  5423                           ;/Applications/microchip/xc8/v2.20/pic/sources/c99/common/doprnt.c: 284:     }
  5424                           
  5425                           
  5426                           ;/Applications/microchip/xc8/v2.20/pic/sources/c99/common/doprnt.c: 287:     if (!(prec 
      +                          < 0)) {
  5427  027D  0141               	movlb	1	; select bank1
  5428  027E  1BD1               	btfsc	(_prec+1)^(0+128),7
  5429  027F  2A81               	goto	u1401
  5430  0280  2A82               	goto	u1400
  5431  0281                     u1401:
  5432  0281  2A86               	goto	l808
  5433  0282                     u1400:
  5434  0282                     l1679:
  5435                           
  5436                           ;/Applications/microchip/xc8/v2.20/pic/sources/c99/common/doprnt.c: 288:         flags &
      +                          = ~(1 << 1);
  5437  0282  30FD               	movlw	253
  5438  0283  05D2               	andwf	_flags^(0+128),f
  5439  0284  30FF               	movlw	255
  5440  0285  05D3               	andwf	(_flags+1)^(0+128),f
  5441  0286                     l808:	
  5442                           ;/Applications/microchip/xc8/v2.20/pic/sources/c99/common/doprnt.c: 289:     }
  5443                           
  5444                           
  5445                           ;/Applications/microchip/xc8/v2.20/pic/sources/c99/common/doprnt.c: 290:     p = (0 < pr
      +                          ec) ? prec : 1;
  5446  0286  0851               	movf	(_prec+1)^(0+128),w
  5447  0287  3A80               	xorlw	128
  5448  0288  0140               	movlb	0	; select bank0
  5449  0289  00B8               	movwf	??_dtoa
  5450  028A  3080               	movlw	128
  5451  028B  0238               	subwf	??_dtoa,w
  5452  028C  1D03               	skipz
  5453  028D  2A91               	goto	u1415
  5454  028E  3001               	movlw	1
  5455  028F  0141               	movlb	1	; select bank1
  5456  0290  0250               	subwf	_prec^(0+128),w
  5457  0291                     u1415:
  5458  0291  1803               	skipnc
  5459  0292  2A94               	goto	u1411
  5460  0293  2A95               	goto	u1410
  5461  0294                     u1411:
  5462  0294  2A9B               	goto	l1683
  5463  0295                     u1410:
  5464  0295                     l1681:
  5465  0295  3001               	movlw	1
  5466  0296  0140               	movlb	0	; select bank0
  5467  0297  00BD               	movwf	dtoa@p
  5468  0298  3000               	movlw	0
  5469  0299  00BE               	movwf	dtoa@p+1
  5470  029A  2AA3               	goto	l812
  5471  029B                     l1683:
  5472  029B  0141               	movlb	1	; select bank1
  5473  029C  0851               	movf	(_prec+1)^(0+128),w
  5474  029D  0140               	movlb	0	; select bank0
  5475  029E  00BE               	movwf	dtoa@p+1
  5476  029F  0141               	movlb	1	; select bank1
  5477  02A0  0850               	movf	_prec^(0+128),w
  5478  02A1  0140               	movlb	0	; select bank0
  5479  02A2  00BD               	movwf	dtoa@p
  5480  02A3                     l812:
  5481                           
  5482                           ;/Applications/microchip/xc8/v2.20/pic/sources/c99/common/doprnt.c: 291:     w = width;
  5483  02A3  0141               	movlb	1	; select bank1
  5484  02A4  084F               	movf	(_width+1)^(0+128),w
  5485  02A5  0140               	movlb	0	; select bank0
  5486  02A6  00C1               	movwf	dtoa@w+1
  5487  02A7  0141               	movlb	1	; select bank1
  5488  02A8  084E               	movf	_width^(0+128),w
  5489  02A9  0140               	movlb	0	; select bank0
  5490  02AA  00C0               	movwf	dtoa@w
  5491  02AB                     l1685:
  5492                           
  5493                           ;/Applications/microchip/xc8/v2.20/pic/sources/c99/common/doprnt.c: 292:     if (s || (f
      +                          lags & (1 << 2))) {
  5494  02AB  0842               	movf	dtoa@s,w
  5495  02AC  0443               	iorwf	dtoa@s+1,w
  5496  02AD  1D03               	btfss	3,2
  5497  02AE  2AB0               	goto	u1421
  5498  02AF  2AB1               	goto	u1420
  5499  02B0                     u1421:
  5500  02B0  2AB6               	goto	l1689
  5501  02B1                     u1420:
  5502  02B1                     l1687:
  5503  02B1  0141               	movlb	1	; select bank1
  5504  02B2  1D52               	btfss	_flags^(0+128),2
  5505  02B3  2AB5               	goto	u1431
  5506  02B4  2AB6               	goto	u1430
  5507  02B5                     u1431:
  5508  02B5  2ABB               	goto	l813
  5509  02B6                     u1430:
  5510  02B6                     l1689:
  5511                           
  5512                           ;/Applications/microchip/xc8/v2.20/pic/sources/c99/common/doprnt.c: 293:         --w;
  5513  02B6  30FF               	movlw	255
  5514  02B7  0140               	movlb	0	; select bank0
  5515  02B8  07C0               	addwf	dtoa@w,f
  5516  02B9  30FF               	movlw	255
  5517  02BA  3DC1               	addwfc	dtoa@w+1,f
  5518  02BB                     l813:	
  5519                           ;/Applications/microchip/xc8/v2.20/pic/sources/c99/common/doprnt.c: 294:     }
  5520                           
  5521                           
  5522                           ;/Applications/microchip/xc8/v2.20/pic/sources/c99/common/doprnt.c: 297:     i = sizeof(
      +                          dbuf) - 1;
  5523  02BB  301F               	movlw	31
  5524  02BC  0140               	movlb	0	; select bank0
  5525  02BD  00CC               	movwf	dtoa@i
  5526  02BE  3000               	movlw	0
  5527  02BF  00CD               	movwf	dtoa@i+1
  5528  02C0                     l1691:
  5529                           
  5530                           ;/Applications/microchip/xc8/v2.20/pic/sources/c99/common/doprnt.c: 298:     dbuf[i] = '
      +                          \0';
  5531  02C0  0142               	movlb	2	; select bank2
  5532  02C1  01BF               	clrf	(_dbuf^(0+256)+31)
  5533                           
  5534                           ;/Applications/microchip/xc8/v2.20/pic/sources/c99/common/doprnt.c: 299:     while (!(i 
      +                          < 1) && (n || (0 < p) || ((0 < w) && (flags & (1 << 1))))) {
  5535  02C2  2B2C               	goto	l816
  5536  02C3                     l1693:
  5537                           
  5538                           ;/Applications/microchip/xc8/v2.20/pic/sources/c99/common/doprnt.c: 300:         --i;
  5539  02C3  30FF               	movlw	255
  5540  02C4  0140               	movlb	0	; select bank0
  5541  02C5  07CC               	addwf	dtoa@i,f
  5542  02C6  30FF               	movlw	255
  5543  02C7  3DCD               	addwfc	dtoa@i+1,f
  5544  02C8                     l1695:
  5545                           
  5546                           ;/Applications/microchip/xc8/v2.20/pic/sources/c99/common/doprnt.c: 301:         dbuf[i]
      +                           = '0' + abs(n % 10);
  5547  02C8  300A               	movlw	10
  5548  02C9  00A0               	movwf	___aomod@divisor
  5549  02CA  01A1               	clrf	___aomod@divisor+1
  5550  02CB  01A2               	clrf	___aomod@divisor+2
  5551  02CC  01A3               	clrf	___aomod@divisor+3
  5552  02CD  01A4               	clrf	___aomod@divisor+4
  5553  02CE  01A5               	clrf	___aomod@divisor+5
  5554  02CF  01A6               	clrf	___aomod@divisor+6
  5555  02D0  01A7               	clrf	___aomod@divisor+7
  5556  02D1  0844               	movf	dtoa@n,w
  5557  02D2  00A8               	movwf	___aomod@dividend
  5558  02D3  0845               	movf	dtoa@n+1,w
  5559  02D4  00A9               	movwf	___aomod@dividend+1
  5560  02D5  0846               	movf	dtoa@n+2,w
  5561  02D6  00AA               	movwf	___aomod@dividend+2
  5562  02D7  0847               	movf	dtoa@n+3,w
  5563  02D8  00AB               	movwf	___aomod@dividend+3
  5564  02D9  0848               	movf	dtoa@n+4,w
  5565  02DA  00AC               	movwf	___aomod@dividend+4
  5566  02DB  0849               	movf	dtoa@n+5,w
  5567  02DC  00AD               	movwf	___aomod@dividend+5
  5568  02DD  084A               	movf	dtoa@n+6,w
  5569  02DE  00AE               	movwf	___aomod@dividend+6
  5570  02DF  084B               	movf	dtoa@n+7,w
  5571  02E0  00AF               	movwf	___aomod@dividend+7
  5572  02E1  318F  2716  3182   	fcall	___aomod
  5573  02E4  0140               	movlb	0	; select bank0
  5574  02E5  0821               	movf	?___aomod+1,w
  5575  02E6  00F4               	movwf	abs@a+1
  5576  02E7  0820               	movf	?___aomod,w
  5577  02E8  00F3               	movwf	abs@a
  5578  02E9  318C  2470  3182   	fcall	_abs
  5579  02EC  0873               	movf	?_abs,w
  5580  02ED  3E30               	addlw	48
  5581  02EE  0140               	movlb	0	; select bank0
  5582  02EF  00B8               	movwf	??_dtoa
  5583  02F0  084C               	movf	dtoa@i,w
  5584  02F1  3E20               	addlw	(low (_dbuf| (0+256)))& (0+255)
  5585  02F2  0086               	movwf	6
  5586  02F3  3001               	movlw	1	; select bank2/3
  5587  02F4  0087               	movwf	7
  5588  02F5  0838               	movf	??_dtoa,w
  5589  02F6  0081               	movwf	1
  5590  02F7                     l1697:
  5591                           
  5592                           ;/Applications/microchip/xc8/v2.20/pic/sources/c99/common/doprnt.c: 302:         --p;
  5593  02F7  30FF               	movlw	255
  5594  02F8  07BD               	addwf	dtoa@p,f
  5595  02F9  30FF               	movlw	255
  5596  02FA  3DBE               	addwfc	dtoa@p+1,f
  5597  02FB                     l1699:
  5598                           
  5599                           ;/Applications/microchip/xc8/v2.20/pic/sources/c99/common/doprnt.c: 303:         --w;
  5600  02FB  30FF               	movlw	255
  5601  02FC  07C0               	addwf	dtoa@w,f
  5602  02FD  30FF               	movlw	255
  5603  02FE  3DC1               	addwfc	dtoa@w+1,f
  5604  02FF                     l1701:
  5605                           
  5606                           ;/Applications/microchip/xc8/v2.20/pic/sources/c99/common/doprnt.c: 304:         n = n /
      +                           10;
  5607  02FF  300A               	movlw	10
  5608  0300  00A0               	movwf	___aodiv@divisor
  5609  0301  01A1               	clrf	___aodiv@divisor+1
  5610  0302  01A2               	clrf	___aodiv@divisor+2
  5611  0303  01A3               	clrf	___aodiv@divisor+3
  5612  0304  01A4               	clrf	___aodiv@divisor+4
  5613  0305  01A5               	clrf	___aodiv@divisor+5
  5614  0306  01A6               	clrf	___aodiv@divisor+6
  5615  0307  01A7               	clrf	___aodiv@divisor+7
  5616  0308  0844               	movf	dtoa@n,w
  5617  0309  00A8               	movwf	___aodiv@dividend
  5618  030A  0845               	movf	dtoa@n+1,w
  5619  030B  00A9               	movwf	___aodiv@dividend+1
  5620  030C  0846               	movf	dtoa@n+2,w
  5621  030D  00AA               	movwf	___aodiv@dividend+2
  5622  030E  0847               	movf	dtoa@n+3,w
  5623  030F  00AB               	movwf	___aodiv@dividend+3
  5624  0310  0848               	movf	dtoa@n+4,w
  5625  0311  00AC               	movwf	___aodiv@dividend+4
  5626  0312  0849               	movf	dtoa@n+5,w
  5627  0313  00AD               	movwf	___aodiv@dividend+5
  5628  0314  084A               	movf	dtoa@n+6,w
  5629  0315  00AE               	movwf	___aodiv@dividend+6
  5630  0316  084B               	movf	dtoa@n+7,w
  5631  0317  00AF               	movwf	___aodiv@dividend+7
  5632  0318  3180  2025  3182   	fcall	___aodiv
  5633  031B  0140               	movlb	0	; select bank0
  5634  031C  0820               	movf	?___aodiv,w
  5635  031D  00C4               	movwf	dtoa@n
  5636  031E  0821               	movf	?___aodiv+1,w
  5637  031F  00C5               	movwf	dtoa@n+1
  5638  0320  0822               	movf	?___aodiv+2,w
  5639  0321  00C6               	movwf	dtoa@n+2
  5640  0322  0823               	movf	?___aodiv+3,w
  5641  0323  00C7               	movwf	dtoa@n+3
  5642  0324  0824               	movf	?___aodiv+4,w
  5643  0325  00C8               	movwf	dtoa@n+4
  5644  0326  0825               	movf	?___aodiv+5,w
  5645  0327  00C9               	movwf	dtoa@n+5
  5646  0328  0826               	movf	?___aodiv+6,w
  5647  0329  00CA               	movwf	dtoa@n+6
  5648  032A  0827               	movf	?___aodiv+7,w
  5649  032B  00CB               	movwf	dtoa@n+7
  5650  032C                     l816:	
  5651                           ;/Applications/microchip/xc8/v2.20/pic/sources/c99/common/doprnt.c: 305:     }
  5652                           
  5653                           
  5654                           ;/Applications/microchip/xc8/v2.20/pic/sources/c99/common/doprnt.c: 299:     while (!(i 
      +                          < 1) && (n || (0 < p) || ((0 < w) && (flags & (1 << 1))))) {
  5655  032C  0140               	movlb	0	; select bank0
  5656  032D  084D               	movf	dtoa@i+1,w
  5657  032E  3A80               	xorlw	128
  5658  032F  00B8               	movwf	??_dtoa
  5659  0330  3080               	movlw	128
  5660  0331  0238               	subwf	??_dtoa,w
  5661  0332  1D03               	skipz
  5662  0333  2B36               	goto	u1445
  5663  0334  3001               	movlw	1
  5664  0335  024C               	subwf	dtoa@i,w
  5665  0336                     u1445:
  5666  0336  1C03               	skipc
  5667  0337  2B39               	goto	u1441
  5668  0338  2B3A               	goto	u1440
  5669  0339                     u1441:
  5670  0339  2B67               	goto	l1711
  5671  033A                     u1440:
  5672  033A                     l1703:
  5673  033A  0140               	movlb	0	; select bank0
  5674  033B  0844               	movf	dtoa@n,w
  5675  033C  0445               	iorwf	dtoa@n+1,w
  5676  033D  0446               	iorwf	dtoa@n+2,w
  5677  033E  0447               	iorwf	dtoa@n+3,w
  5678  033F  0448               	iorwf	dtoa@n+4,w
  5679  0340  0449               	iorwf	dtoa@n+5,w
  5680  0341  044A               	iorwf	dtoa@n+6,w
  5681  0342  044B               	iorwf	dtoa@n+7,w
  5682  0343  1D03               	skipz
  5683  0344  2B46               	goto	u1451
  5684  0345  2B47               	goto	u1450
  5685  0346                     u1451:
  5686  0346  2AC3               	goto	l1693
  5687  0347                     u1450:
  5688  0347                     l1705:
  5689  0347  083E               	movf	dtoa@p+1,w
  5690  0348  3A80               	xorlw	128
  5691  0349  00B8               	movwf	??_dtoa
  5692  034A  3080               	movlw	128
  5693  034B  0238               	subwf	??_dtoa,w
  5694  034C  1D03               	skipz
  5695  034D  2B50               	goto	u1465
  5696  034E  3001               	movlw	1
  5697  034F  023D               	subwf	dtoa@p,w
  5698  0350                     u1465:
  5699  0350  1803               	skipnc
  5700  0351  2B53               	goto	u1461
  5701  0352  2B54               	goto	u1460
  5702  0353                     u1461:
  5703  0353  2AC3               	goto	l1693
  5704  0354                     u1460:
  5705  0354                     l1707:
  5706  0354  0140               	movlb	0	; select bank0
  5707  0355  0841               	movf	dtoa@w+1,w
  5708  0356  3A80               	xorlw	128
  5709  0357  00B8               	movwf	??_dtoa
  5710  0358  3080               	movlw	128
  5711  0359  0238               	subwf	??_dtoa,w
  5712  035A  1D03               	skipz
  5713  035B  2B5E               	goto	u1475
  5714  035C  3001               	movlw	1
  5715  035D  0240               	subwf	dtoa@w,w
  5716  035E                     u1475:
  5717  035E  1C03               	skipc
  5718  035F  2B61               	goto	u1471
  5719  0360  2B62               	goto	u1470
  5720  0361                     u1471:
  5721  0361  2B67               	goto	l1711
  5722  0362                     u1470:
  5723  0362                     l1709:
  5724  0362  0141               	movlb	1	; select bank1
  5725  0363  18D2               	btfsc	_flags^(0+128),1
  5726  0364  2B66               	goto	u1481
  5727  0365  2B67               	goto	u1480
  5728  0366                     u1481:
  5729  0366  2AC3               	goto	l1693
  5730  0367                     u1480:
  5731  0367                     l1711:
  5732                           
  5733                           ;/Applications/microchip/xc8/v2.20/pic/sources/c99/common/doprnt.c: 308:     if (s || (f
      +                          lags & (1 << 2))) {
  5734  0367  0140               	movlb	0	; select bank0
  5735  0368  0842               	movf	dtoa@s,w
  5736  0369  0443               	iorwf	dtoa@s+1,w
  5737  036A  1D03               	btfss	3,2
  5738  036B  2B6D               	goto	u1491
  5739  036C  2B6E               	goto	u1490
  5740  036D                     u1491:
  5741  036D  2B73               	goto	l1715
  5742  036E                     u1490:
  5743  036E                     l1713:
  5744  036E  0141               	movlb	1	; select bank1
  5745  036F  1D52               	btfss	_flags^(0+128),2
  5746  0370  2B72               	goto	u1501
  5747  0371  2B73               	goto	u1500
  5748  0372                     u1501:
  5749  0372  2B90               	goto	l1725
  5750  0373                     u1500:
  5751  0373                     l1715:
  5752                           
  5753                           ;/Applications/microchip/xc8/v2.20/pic/sources/c99/common/doprnt.c: 309:         --i;
  5754  0373  30FF               	movlw	255
  5755  0374  0140               	movlb	0	; select bank0
  5756  0375  07CC               	addwf	dtoa@i,f
  5757  0376  30FF               	movlw	255
  5758  0377  3DCD               	addwfc	dtoa@i+1,f
  5759  0378                     l1717:
  5760                           
  5761                           ;/Applications/microchip/xc8/v2.20/pic/sources/c99/common/doprnt.c: 310:         dbuf[i]
      +                           = s ? '-' : '+';
  5762  0378  0842               	movf	dtoa@s,w
  5763  0379  0443               	iorwf	dtoa@s+1,w
  5764  037A  1D03               	btfss	3,2
  5765  037B  2B7D               	goto	u1511
  5766  037C  2B7E               	goto	u1510
  5767  037D                     u1511:
  5768  037D  2B83               	goto	l1721
  5769  037E                     u1510:
  5770  037E                     l1719:
  5771  037E  302B               	movlw	43
  5772  037F  00BB               	movwf	_dtoa$957
  5773  0380  3000               	movlw	0
  5774  0381  00BC               	movwf	_dtoa$957+1
  5775  0382  2B87               	goto	l1723
  5776  0383                     l1721:
  5777  0383  302D               	movlw	45
  5778  0384  00BB               	movwf	_dtoa$957
  5779  0385  3000               	movlw	0
  5780  0386  00BC               	movwf	_dtoa$957+1
  5781  0387                     l1723:
  5782  0387  083B               	movf	_dtoa$957,w
  5783  0388  00B8               	movwf	??_dtoa
  5784  0389  084C               	movf	dtoa@i,w
  5785  038A  3E20               	addlw	(low (_dbuf| (0+256)))& (0+255)
  5786  038B  0086               	movwf	6
  5787  038C  3001               	movlw	1	; select bank2/3
  5788  038D  0087               	movwf	7
  5789  038E  0838               	movf	??_dtoa,w
  5790  038F  0081               	movwf	1
  5791  0390                     l1725:
  5792                           
  5793                           ;/Applications/microchip/xc8/v2.20/pic/sources/c99/common/doprnt.c: 314:     return pad(
      +                          fp, &dbuf[i], w);
  5794  0390  0140               	movlb	0	; select bank0
  5795  0391  084C               	movf	dtoa@i,w
  5796  0392  3E20               	addlw	(low (_dbuf| (0+256)))& (0+255)
  5797  0393  00B8               	movwf	??_dtoa
  5798  0394  0838               	movf	??_dtoa,w
  5799  0395  00A4               	movwf	pad@buf
  5800  0396  0841               	movf	dtoa@w+1,w
  5801  0397  00A6               	movwf	pad@p+1
  5802  0398  0840               	movf	dtoa@w,w
  5803  0399  00A5               	movwf	pad@p
  5804  039A  083F               	movf	dtoa@fp,w
  5805  039B  318D  25E3  3182   	fcall	_pad
  5806  039E  0140               	movlb	0	; select bank0
  5807  039F  0825               	movf	?_pad+1,w
  5808  03A0  00B1               	movwf	?_dtoa+1
  5809  03A1  0824               	movf	?_pad,w
  5810  03A2  00B0               	movwf	?_dtoa
  5811  03A3                     l830:
  5812  03A3  0008               	return
  5813  03A4                     __end_of_dtoa:
  5814                           
  5815                           	psect	text17
  5816  0DE3                     __ptext17:	
  5817 ;; *************** function _pad *****************
  5818 ;; Defined at:
  5819 ;;		line 72 in file "/Applications/microchip/xc8/v2.20/pic/sources/c99/common/doprnt.c"
  5820 ;; Parameters:    Size  Location     Type
  5821 ;;  fp              1    wreg     PTR struct _IO_FILE
  5822 ;;		 -> NULL(0), 
  5823 ;;  buf             1    4[BANK0 ] PTR unsigned char 
  5824 ;;		 -> dbuf(32), 
  5825 ;;  p               2    5[BANK0 ] int 
  5826 ;; Auto vars:     Size  Location     Type
  5827 ;;  fp              1   11[BANK0 ] PTR struct _IO_FILE
  5828 ;;		 -> NULL(0), 
  5829 ;;  w               2    9[BANK0 ] int 
  5830 ;;  i               2    7[BANK0 ] int 
  5831 ;; Return value:  Size  Location     Type
  5832 ;;                  2    4[BANK0 ] int 
  5833 ;; Registers used:
  5834 ;;		wreg, fsr0l, fsr0h, fsr1l, fsr1h, status,2, status,0, pclath, cstack
  5835 ;; Tracked objects:
  5836 ;;		On entry : 0/0
  5837 ;;		On exit  : 0/0
  5838 ;;		Unchanged: 0/0
  5839 ;; Data sizes:     COMMON   BANK0   BANK1   BANK2   BANK3   BANK4   BANK5   BANK6   BANK7   BANK8   BANK9  BANK10  BANK1
      +1  BANK12  BANK13  BANK14  BANK15  BANK16  BANK17  BANK18  BANK19  BANK20  BANK21  BANK22  BANK23  BANK24  BANK25  BANK2
      +6  BANK27  BANK28  BANK29  BANK30  BANK31  BANK32  BANK33  BANK34  BANK35  BANK36  BANK37  BANK38  BANK39  BANK40  BANK4
      +1  BANK42  BANK43  BANK44  BANK45  BANK46  BANK47  BANK48  BANK49  BANK50
  5840 ;;      Params:         0       3       0       0       0       0       0       0       0       0       0       0       
      +0       0       0       0       0       0       0       0       0       0       0       0       0       0       0       
      +0       0       0       0       0       0       0       0       0       0       0       0       0       0       0       
      +0       0       0       0       0       0       0       0       0       0
  5841 ;;      Locals:         0       5       0       0       0       0       0       0       0       0       0       0       
      +0       0       0       0       0       0       0       0       0       0       0       0       0       0       0       
      +0       0       0       0       0       0       0       0       0       0       0       0       0       0       0       
      +0       0       0       0       0       0       0       0       0       0
  5842 ;;      Temps:          1       0       0       0       0       0       0       0       0       0       0       0       
      +0       0       0       0       0       0       0       0       0       0       0       0       0       0       0       
      +0       0       0       0       0       0       0       0       0       0       0       0       0       0       0       
      +0       0       0       0       0       0       0       0       0       0
  5843 ;;      Totals:         1       8       0       0       0       0       0       0       0       0       0       0       
      +0       0       0       0       0       0       0       0       0       0       0       0       0       0       0       
      +0       0       0       0       0       0       0       0       0       0       0       0       0       0       0       
      +0       0       0       0       0       0       0       0       0       0
  5844 ;;Total ram usage:        9 bytes
  5845 ;; Hardware stack levels used:    1
  5846 ;; Hardware stack levels required when called:    3
  5847 ;; This function calls:
  5848 ;;		_fputc
  5849 ;;		_fputs
  5850 ;;		_strlen
  5851 ;; This function is called by:
  5852 ;;		_dtoa
  5853 ;; This function uses a non-reentrant model
  5854 ;;
  5855                           
  5856                           
  5857                           ;psect for function _pad
  5858  0DE3                     _pad:
  5859                           
  5860                           ;incstack = 0
  5861                           ; Regs used in _pad: [wreg-fsr1h+status,2+status,0+pclath+cstack]
  5862                           ;pad@fp stored from wreg
  5863  0DE3  0140               	movlb	0	; select bank0
  5864  0DE4  00AB               	movwf	pad@fp
  5865  0DE5                     l1645:
  5866                           
  5867                           ;/Applications/microchip/xc8/v2.20/pic/sources/c99/common/doprnt.c: 72: static int pad(F
      +                          ILE *fp, char *buf, int p);/Applications/microchip/xc8/v2.20/pic/sources/c99/common/dopr
      +                          nt.c: 73: {;/Applications/microchip/xc8/v2.20/pic/sources/c99/common/doprnt.c: 74:     i
      +                          nt i, w;;/Applications/microchip/xc8/v2.20/pic/sources/c99/common/doprnt.c: 77:     if (
      +                          flags & (1 << 0)) {
  5868  0DE5  0141               	movlb	1	; select bank1
  5869  0DE6  1C52               	btfss	_flags^(0+128),0
  5870  0DE7  2DE9               	goto	u1311
  5871  0DE8  2DEA               	goto	u1310
  5872  0DE9                     u1311:
  5873  0DE9  2DF3               	goto	l1649
  5874  0DEA                     u1310:
  5875  0DEA                     l1647:
  5876                           
  5877                           ;/Applications/microchip/xc8/v2.20/pic/sources/c99/common/doprnt.c: 78:         fputs((c
      +                          onst char *)buf, fp);
  5878  0DEA  0140               	movlb	0	; select bank0
  5879  0DEB  082B               	movf	pad@fp,w
  5880  0DEC  00FD               	movwf	??_pad
  5881  0DED  087D               	movf	??_pad,w
  5882  0DEE  00F9               	movwf	fputs@fp
  5883  0DEF  0824               	movf	pad@buf,w
  5884  0DF0  318C  24D2  318D   	fcall	_fputs
  5885  0DF3                     l1649:
  5886                           
  5887                           ;/Applications/microchip/xc8/v2.20/pic/sources/c99/common/doprnt.c: 82:     w = (p < 0) 
      +                          ? 0 : p;
  5888  0DF3  0140               	movlb	0	; select bank0
  5889  0DF4  1BA6               	btfsc	pad@p+1,7
  5890  0DF5  2DF7               	goto	u1321
  5891  0DF6  2DF8               	goto	u1320
  5892  0DF7                     u1321:
  5893  0DF7  2DFD               	goto	l1653
  5894  0DF8                     u1320:
  5895  0DF8                     l1651:
  5896  0DF8  0826               	movf	pad@p+1,w
  5897  0DF9  00AA               	movwf	pad@w+1
  5898  0DFA  0825               	movf	pad@p,w
  5899  0DFB  00A9               	movwf	pad@w
  5900  0DFC  2DFF               	goto	l799
  5901  0DFD                     l1653:
  5902  0DFD  01A9               	clrf	pad@w
  5903  0DFE  01AA               	clrf	pad@w+1
  5904  0DFF                     l799:
  5905                           
  5906                           ;/Applications/microchip/xc8/v2.20/pic/sources/c99/common/doprnt.c: 83:     i = 0;
  5907  0DFF  01A7               	clrf	pad@i
  5908  0E00  01A8               	clrf	pad@i+1
  5909                           
  5910                           ;/Applications/microchip/xc8/v2.20/pic/sources/c99/common/doprnt.c: 84:     while (i < w
      +                          ) {
  5911  0E01  2E13               	goto	l1659
  5912  0E02                     l1655:
  5913                           
  5914                           ;/Applications/microchip/xc8/v2.20/pic/sources/c99/common/doprnt.c: 85:         fputc(' 
      +                          ', fp);
  5915  0E02  3020               	movlw	32
  5916  0E03  00F1               	movwf	fputc@c
  5917  0E04  3000               	movlw	0
  5918  0E05  00F2               	movwf	fputc@c+1
  5919  0E06  0140               	movlb	0	; select bank0
  5920  0E07  082B               	movf	pad@fp,w
  5921  0E08  00FD               	movwf	??_pad
  5922  0E09  087D               	movf	??_pad,w
  5923  0E0A  00F3               	movwf	fputc@fp
  5924  0E0B  318D  255F  318D   	fcall	_fputc
  5925  0E0E                     l1657:
  5926                           
  5927                           ;/Applications/microchip/xc8/v2.20/pic/sources/c99/common/doprnt.c: 86:         ++i;
  5928  0E0E  3001               	movlw	1
  5929  0E0F  0140               	movlb	0	; select bank0
  5930  0E10  07A7               	addwf	pad@i,f
  5931  0E11  3000               	movlw	0
  5932  0E12  3DA8               	addwfc	pad@i+1,f
  5933  0E13                     l1659:
  5934                           
  5935                           ;/Applications/microchip/xc8/v2.20/pic/sources/c99/common/doprnt.c: 84:     while (i < w
      +                          ) {
  5936  0E13  0828               	movf	pad@i+1,w
  5937  0E14  3A80               	xorlw	128
  5938  0E15  00FD               	movwf	??_pad
  5939  0E16  082A               	movf	pad@w+1,w
  5940  0E17  3A80               	xorlw	128
  5941  0E18  027D               	subwf	??_pad,w
  5942  0E19  1D03               	skipz
  5943  0E1A  2E1D               	goto	u1335
  5944  0E1B  0829               	movf	pad@w,w
  5945  0E1C  0227               	subwf	pad@i,w
  5946  0E1D                     u1335:
  5947  0E1D  1C03               	skipc
  5948  0E1E  2E20               	goto	u1331
  5949  0E1F  2E21               	goto	u1330
  5950  0E20                     u1331:
  5951  0E20  2E02               	goto	l1655
  5952  0E21                     u1330:
  5953  0E21                     l802:
  5954                           
  5955                           ;/Applications/microchip/xc8/v2.20/pic/sources/c99/common/doprnt.c: 90:     if (!(flags 
      +                          & (1 << 0))) {
  5956  0E21  0141               	movlb	1	; select bank1
  5957  0E22  1852               	btfsc	_flags^(0+128),0
  5958  0E23  2E25               	goto	u1341
  5959  0E24  2E26               	goto	u1340
  5960  0E25                     u1341:
  5961  0E25  2E2F               	goto	l1663
  5962  0E26                     u1340:
  5963  0E26                     l1661:
  5964                           
  5965                           ;/Applications/microchip/xc8/v2.20/pic/sources/c99/common/doprnt.c: 91:         fputs((c
      +                          onst char *)buf, fp);
  5966  0E26  0140               	movlb	0	; select bank0
  5967  0E27  082B               	movf	pad@fp,w
  5968  0E28  00FD               	movwf	??_pad
  5969  0E29  087D               	movf	??_pad,w
  5970  0E2A  00F9               	movwf	fputs@fp
  5971  0E2B  0824               	movf	pad@buf,w
  5972  0E2C  318C  24D2  318D   	fcall	_fputs
  5973  0E2F                     l1663:
  5974                           
  5975                           ;/Applications/microchip/xc8/v2.20/pic/sources/c99/common/doprnt.c: 94:     return strle
      +                          n(buf) + w;
  5976  0E2F  0140               	movlb	0	; select bank0
  5977  0E30  0824               	movf	pad@buf,w
  5978  0E31  00F0               	movwf	strlen@s
  5979  0E32  3001               	movlw	1
  5980  0E33  00F1               	movwf	strlen@s+1
  5981  0E34  318C  2457  318D   	fcall	_strlen
  5982  0E37  0140               	movlb	0	; select bank0
  5983  0E38  0829               	movf	pad@w,w
  5984  0E39  0770               	addwf	?_strlen,w
  5985  0E3A  00A4               	movwf	?_pad
  5986  0E3B  082A               	movf	pad@w+1,w
  5987  0E3C  3D71               	addwfc	?_strlen+1,w
  5988  0E3D  00A5               	movwf	?_pad+1
  5989  0E3E                     l804:
  5990  0E3E  0008               	return
  5991  0E3F                     __end_of_pad:
  5992                           
  5993                           	psect	text18
  5994  0C57                     __ptext18:	
  5995 ;; *************** function _strlen *****************
  5996 ;; Defined at:
  5997 ;;		line 5 in file "/Applications/microchip/xc8/v2.20/pic/sources/c99/common/strlen.c"
  5998 ;; Parameters:    Size  Location     Type
  5999 ;;  s               2    0[COMMON] PTR const unsigned char 
  6000 ;;		 -> stoa@nuls(7), dbuf(32), ?_printf(2), CompileTime(9), 
  6001 ;;		 -> CompileDate(12), Version(6), Project(20), 
  6002 ;; Auto vars:     Size  Location     Type
  6003 ;;  a               2    3[COMMON] PTR const unsigned char 
  6004 ;;		 -> stoa@nuls(7), dbuf(32), ?_printf(2), CompileTime(9), 
  6005 ;;		 -> CompileDate(12), Version(6), Project(20), 
  6006 ;; Return value:  Size  Location     Type
  6007 ;;                  2    0[COMMON] unsigned int 
  6008 ;; Registers used:
  6009 ;;		wreg, fsr0l, fsr0h, status,2, status,0
  6010 ;; Tracked objects:
  6011 ;;		On entry : 0/0
  6012 ;;		On exit  : 0/0
  6013 ;;		Unchanged: 0/0
  6014 ;; Data sizes:     COMMON   BANK0   BANK1   BANK2   BANK3   BANK4   BANK5   BANK6   BANK7   BANK8   BANK9  BANK10  BANK1
      +1  BANK12  BANK13  BANK14  BANK15  BANK16  BANK17  BANK18  BANK19  BANK20  BANK21  BANK22  BANK23  BANK24  BANK25  BANK2
      +6  BANK27  BANK28  BANK29  BANK30  BANK31  BANK32  BANK33  BANK34  BANK35  BANK36  BANK37  BANK38  BANK39  BANK40  BANK4
      +1  BANK42  BANK43  BANK44  BANK45  BANK46  BANK47  BANK48  BANK49  BANK50
  6015 ;;      Params:         2       0       0       0       0       0       0       0       0       0       0       0       
      +0       0       0       0       0       0       0       0       0       0       0       0       0       0       0       
      +0       0       0       0       0       0       0       0       0       0       0       0       0       0       0       
      +0       0       0       0       0       0       0       0       0       0
  6016 ;;      Locals:         2       0       0       0       0       0       0       0       0       0       0       0       
      +0       0       0       0       0       0       0       0       0       0       0       0       0       0       0       
      +0       0       0       0       0       0       0       0       0       0       0       0       0       0       0       
      +0       0       0       0       0       0       0       0       0       0
  6017 ;;      Temps:          1       0       0       0       0       0       0       0       0       0       0       0       
      +0       0       0       0       0       0       0       0       0       0       0       0       0       0       0       
      +0       0       0       0       0       0       0       0       0       0       0       0       0       0       0       
      +0       0       0       0       0       0       0       0       0       0
  6018 ;;      Totals:         5       0       0       0       0       0       0       0       0       0       0       0       
      +0       0       0       0       0       0       0       0       0       0       0       0       0       0       0       
      +0       0       0       0       0       0       0       0       0       0       0       0       0       0       0       
      +0       0       0       0       0       0       0       0       0       0
  6019 ;;Total ram usage:        5 bytes
  6020 ;; Hardware stack levels used:    1
  6021 ;; This function calls:
  6022 ;;		Nothing
  6023 ;; This function is called by:
  6024 ;;		_pad
  6025 ;;		_stoa
  6026 ;; This function uses a non-reentrant model
  6027 ;;
  6028                           
  6029                           
  6030                           ;psect for function _strlen
  6031  0C57                     _strlen:
  6032  0C57                     l1567:	
  6033                           ;incstack = 0
  6034                           ; Regs used in _strlen: [wreg-fsr0h+status,2+status,0]
  6035                           
  6036  0C57  0871               	movf	strlen@s+1,w
  6037  0C58  00F4               	movwf	strlen@a+1
  6038  0C59  0870               	movf	strlen@s,w
  6039  0C5A  00F3               	movwf	strlen@a
  6040  0C5B  2C60               	goto	l1571
  6041  0C5C                     l1569:
  6042  0C5C  3001               	movlw	1
  6043  0C5D  07F0               	addwf	strlen@s,f
  6044  0C5E  3000               	movlw	0
  6045  0C5F  3DF1               	addwfc	strlen@s+1,f
  6046  0C60                     l1571:
  6047  0C60  0870               	movf	strlen@s,w
  6048  0C61  0084               	movwf	4
  6049  0C62  0871               	movf	strlen@s+1,w
  6050  0C63  0085               	movwf	5
  6051  0C64  0012               	moviw fsr0++
  6052  0C65  1D03               	btfss	3,2
  6053  0C66  2C68               	goto	u1091
  6054  0C67  2C69               	goto	u1090
  6055  0C68                     u1091:
  6056  0C68  2C5C               	goto	l1569
  6057  0C69                     u1090:
  6058  0C69                     l1573:
  6059  0C69  0873               	movf	strlen@a,w
  6060  0C6A  0270               	subwf	strlen@s,w
  6061  0C6B  00F0               	movwf	?_strlen
  6062  0C6C  0874               	movf	strlen@a+1,w
  6063  0C6D  3B71               	subwfb	strlen@s+1,w
  6064  0C6E  00F1               	movwf	?_strlen+1
  6065  0C6F                     l901:
  6066  0C6F  0008               	return
  6067  0C70                     __end_of_strlen:
  6068                           
  6069                           	psect	text19
  6070  0CD2                     __ptext19:	
  6071 ;; *************** function _fputs *****************
  6072 ;; Defined at:
  6073 ;;		line 8 in file "/Applications/microchip/xc8/v2.20/pic/sources/c99/common/nf_fputs.c"
  6074 ;; Parameters:    Size  Location     Type
  6075 ;;  s               1    wreg     PTR const unsigned char 
  6076 ;;		 -> dbuf(32), 
  6077 ;;  fp              1    9[COMMON] PTR struct _IO_FILE
  6078 ;;		 -> NULL(0), 
  6079 ;; Auto vars:     Size  Location     Type
  6080 ;;  s               1    3[BANK0 ] PTR const unsigned char 
  6081 ;;		 -> dbuf(32), 
  6082 ;;  i               2    1[BANK0 ] int 
  6083 ;;  c               1    0[BANK0 ] unsigned char 
  6084 ;; Return value:  Size  Location     Type
  6085 ;;                  2    9[COMMON] int 
  6086 ;; Registers used:
  6087 ;;		wreg, fsr1l, fsr1h, status,2, status,0, pclath, cstack
  6088 ;; Tracked objects:
  6089 ;;		On entry : 0/0
  6090 ;;		On exit  : 0/0
  6091 ;;		Unchanged: 0/0
  6092 ;; Data sizes:     COMMON   BANK0   BANK1   BANK2   BANK3   BANK4   BANK5   BANK6   BANK7   BANK8   BANK9  BANK10  BANK1
      +1  BANK12  BANK13  BANK14  BANK15  BANK16  BANK17  BANK18  BANK19  BANK20  BANK21  BANK22  BANK23  BANK24  BANK25  BANK2
      +6  BANK27  BANK28  BANK29  BANK30  BANK31  BANK32  BANK33  BANK34  BANK35  BANK36  BANK37  BANK38  BANK39  BANK40  BANK4
      +1  BANK42  BANK43  BANK44  BANK45  BANK46  BANK47  BANK48  BANK49  BANK50
  6093 ;;      Params:         1       0       0       0       0       0       0       0       0       0       0       0       
      +0       0       0       0       0       0       0       0       0       0       0       0       0       0       0       
      +0       0       0       0       0       0       0       0       0       0       0       0       0       0       0       
      +0       0       0       0       0       0       0       0       0       0
  6094 ;;      Locals:         0       4       0       0       0       0       0       0       0       0       0       0       
      +0       0       0       0       0       0       0       0       0       0       0       0       0       0       0       
      +0       0       0       0       0       0       0       0       0       0       0       0       0       0       0       
      +0       0       0       0       0       0       0       0       0       0
  6095 ;;      Temps:          3       0       0       0       0       0       0       0       0       0       0       0       
      +0       0       0       0       0       0       0       0       0       0       0       0       0       0       0       
      +0       0       0       0       0       0       0       0       0       0       0       0       0       0       0       
      +0       0       0       0       0       0       0       0       0       0
  6096 ;;      Totals:         4       4       0       0       0       0       0       0       0       0       0       0       
      +0       0       0       0       0       0       0       0       0       0       0       0       0       0       0       
      +0       0       0       0       0       0       0       0       0       0       0       0       0       0       0       
      +0       0       0       0       0       0       0       0       0       0
  6097 ;;Total ram usage:        8 bytes
  6098 ;; Hardware stack levels used:    1
  6099 ;; Hardware stack levels required when called:    2
  6100 ;; This function calls:
  6101 ;;		_fputc
  6102 ;; This function is called by:
  6103 ;;		_pad
  6104 ;; This function uses a non-reentrant model
  6105 ;;
  6106                           
  6107                           
  6108                           ;psect for function _fputs
  6109  0CD2                     _fputs:
  6110                           
  6111                           ;incstack = 0
  6112                           ; Regs used in _fputs: [wreg+fsr1l+fsr1h+status,2+status,0+pclath+cstack]
  6113                           ;fputs@s stored from wreg
  6114  0CD2  0140               	movlb	0	; select bank0
  6115  0CD3  00A3               	movwf	fputs@s
  6116  0CD4                     l1559:
  6117  0CD4  01A1               	clrf	fputs@i
  6118  0CD5  01A2               	clrf	fputs@i+1
  6119  0CD6  2CEA               	goto	l1565
  6120  0CD7                     l1561:
  6121  0CD7  0820               	movf	fputs@c,w
  6122  0CD8  00FA               	movwf	??_fputs
  6123  0CD9  01FB               	clrf	??_fputs+1
  6124  0CDA  087A               	movf	??_fputs,w
  6125  0CDB  00F1               	movwf	fputc@c
  6126  0CDC  087B               	movf	??_fputs+1,w
  6127  0CDD  00F2               	movwf	fputc@c+1
  6128  0CDE  0879               	movf	fputs@fp,w
  6129  0CDF  00FC               	movwf	??_fputs+2
  6130  0CE0  087C               	movf	??_fputs+2,w
  6131  0CE1  00F3               	movwf	fputc@fp
  6132  0CE2  318D  255F  318C   	fcall	_fputc
  6133  0CE5                     l1563:
  6134  0CE5  3001               	movlw	1
  6135  0CE6  0140               	movlb	0	; select bank0
  6136  0CE7  07A1               	addwf	fputs@i,f
  6137  0CE8  3000               	movlw	0
  6138  0CE9  3DA2               	addwfc	fputs@i+1,f
  6139  0CEA                     l1565:
  6140  0CEA  0821               	movf	fputs@i,w
  6141  0CEB  0723               	addwf	fputs@s,w
  6142  0CEC  00FA               	movwf	??_fputs
  6143  0CED  087A               	movf	??_fputs,w
  6144  0CEE  0086               	movwf	6
  6145  0CEF  3001               	movlw	1	; select bank2/3
  6146  0CF0  0087               	movwf	7
  6147  0CF1  0801               	movf	1,w
  6148  0CF2  00FB               	movwf	??_fputs+1
  6149  0CF3  087B               	movf	??_fputs+1,w
  6150  0CF4  00A0               	movwf	fputs@c
  6151  0CF5  0820               	movf	fputs@c,w
  6152  0CF6  1D03               	btfss	3,2
  6153  0CF7  2CF9               	goto	u1081
  6154  0CF8  2CFA               	goto	u1080
  6155  0CF9                     u1081:
  6156  0CF9  2CD7               	goto	l1561
  6157  0CFA                     u1080:
  6158  0CFA                     l895:
  6159  0CFA  0008               	return
  6160  0CFB                     __end_of_fputs:
  6161                           
  6162                           	psect	text20
  6163  0D5F                     __ptext20:	
  6164 ;; *************** function _fputc *****************
  6165 ;; Defined at:
  6166 ;;		line 8 in file "/Applications/microchip/xc8/v2.20/pic/sources/c99/common/nf_fputc.c"
  6167 ;; Parameters:    Size  Location     Type
  6168 ;;  c               2    1[COMMON] int 
  6169 ;;  fp              1    3[COMMON] PTR struct _IO_FILE
  6170 ;;		 -> NULL(0), 
  6171 ;; Auto vars:     Size  Location     Type
  6172 ;;		None
  6173 ;; Return value:  Size  Location     Type
  6174 ;;                  2    1[COMMON] int 
  6175 ;; Registers used:
  6176 ;;		wreg, fsr1l, fsr1h, status,2, status,0, pclath, cstack
  6177 ;; Tracked objects:
  6178 ;;		On entry : 0/0
  6179 ;;		On exit  : 0/0
  6180 ;;		Unchanged: 0/0
  6181 ;; Data sizes:     COMMON   BANK0   BANK1   BANK2   BANK3   BANK4   BANK5   BANK6   BANK7   BANK8   BANK9  BANK10  BANK1
      +1  BANK12  BANK13  BANK14  BANK15  BANK16  BANK17  BANK18  BANK19  BANK20  BANK21  BANK22  BANK23  BANK24  BANK25  BANK2
      +6  BANK27  BANK28  BANK29  BANK30  BANK31  BANK32  BANK33  BANK34  BANK35  BANK36  BANK37  BANK38  BANK39  BANK40  BANK4
      +1  BANK42  BANK43  BANK44  BANK45  BANK46  BANK47  BANK48  BANK49  BANK50
  6182 ;;      Params:         3       0       0       0       0       0       0       0       0       0       0       0       
      +0       0       0       0       0       0       0       0       0       0       0       0       0       0       0       
      +0       0       0       0       0       0       0       0       0       0       0       0       0       0       0       
      +0       0       0       0       0       0       0       0       0       0
  6183 ;;      Locals:         0       0       0       0       0       0       0       0       0       0       0       0       
      +0       0       0       0       0       0       0       0       0       0       0       0       0       0       0       
      +0       0       0       0       0       0       0       0       0       0       0       0       0       0       0       
      +0       0       0       0       0       0       0       0       0       0
  6184 ;;      Temps:          5       0       0       0       0       0       0       0       0       0       0       0       
      +0       0       0       0       0       0       0       0       0       0       0       0       0       0       0       
      +0       0       0       0       0       0       0       0       0       0       0       0       0       0       0       
      +0       0       0       0       0       0       0       0       0       0
  6185 ;;      Totals:         8       0       0       0       0       0       0       0       0       0       0       0       
      +0       0       0       0       0       0       0       0       0       0       0       0       0       0       0       
      +0       0       0       0       0       0       0       0       0       0       0       0       0       0       0       
      +0       0       0       0       0       0       0       0       0       0
  6186 ;;Total ram usage:        8 bytes
  6187 ;; Hardware stack levels used:    1
  6188 ;; Hardware stack levels required when called:    1
  6189 ;; This function calls:
  6190 ;;		_putch
  6191 ;; This function is called by:
  6192 ;;		_pad
  6193 ;;		_stoa
  6194 ;;		_vfpfcnvrt
  6195 ;;		_fputs
  6196 ;; This function uses a non-reentrant model
  6197 ;;
  6198                           
  6199                           
  6200                           ;psect for function _fputc
  6201  0D5F                     _fputc:
  6202  0D5F                     l1545:	
  6203                           ;incstack = 0
  6204                           ; Regs used in _fputc: [wreg+fsr1l+fsr1h+status,2+status,0+pclath+cstack]
  6205                           
  6206  0D5F  0873               	movf	fputc@fp,w
  6207  0D60  1903               	btfsc	3,2
  6208  0D61  2D63               	goto	u1041
  6209  0D62  2D64               	goto	u1040
  6210  0D63                     u1041:
  6211  0D63  2D69               	goto	l1549
  6212  0D64                     u1040:
  6213  0D64                     l1547:
  6214  0D64  0873               	movf	fputc@fp,w
  6215  0D65  1D03               	btfss	3,2
  6216  0D66  2D68               	goto	u1051
  6217  0D67  2D69               	goto	u1050
  6218  0D68                     u1051:
  6219  0D68  2D6E               	goto	l1551
  6220  0D69                     u1050:
  6221  0D69                     l1549:
  6222  0D69  0871               	movf	fputc@c,w
  6223  0D6A  318B  23DD  318D   	fcall	_putch
  6224  0D6D  2D9D               	goto	l887
  6225  0D6E                     l1551:
  6226  0D6E  0873               	movf	fputc@fp,w
  6227  0D6F  3E03               	addlw	3
  6228  0D70  0086               	movwf	6
  6229  0D71  0187               	clrf	7
  6230  0D72  0016               	moviw fsr1++
  6231  0D73  0401               	iorwf	1,w
  6232  0D74  1903               	btfsc	3,2
  6233  0D75  2D77               	goto	u1061
  6234  0D76  2D78               	goto	u1060
  6235  0D77                     u1061:
  6236  0D77  2D95               	goto	l1555
  6237  0D78                     u1060:
  6238  0D78                     l1553:
  6239  0D78  0873               	movf	fputc@fp,w
  6240  0D79  3E03               	addlw	3
  6241  0D7A  0086               	movwf	6
  6242  0D7B  0187               	clrf	7
  6243  0D7C  3F40               	moviw [0]fsr1
  6244  0D7D  00F4               	movwf	??_fputc
  6245  0D7E  3F41               	moviw [1]fsr1
  6246  0D7F  00F5               	movwf	??_fputc+1
  6247  0D80  0A73               	incf	fputc@fp,w
  6248  0D81  0086               	movwf	6
  6249  0D82  0187               	clrf	7
  6250  0D83  3F40               	moviw [0]fsr1
  6251  0D84  00F6               	movwf	??_fputc+2
  6252  0D85  3F41               	moviw [1]fsr1
  6253  0D86  00F7               	movwf	??_fputc+3
  6254  0D87  0877               	movf	??_fputc+3,w
  6255  0D88  3A80               	xorlw	128
  6256  0D89  00F8               	movwf	??_fputc+4
  6257  0D8A  0875               	movf	??_fputc+1,w
  6258  0D8B  3A80               	xorlw	128
  6259  0D8C  0278               	subwf	??_fputc+4,w
  6260  0D8D  1D03               	skipz
  6261  0D8E  2D91               	goto	u1075
  6262  0D8F  0874               	movf	??_fputc,w
  6263  0D90  0276               	subwf	??_fputc+2,w
  6264  0D91                     u1075:
  6265  0D91  1803               	skipnc
  6266  0D92  2D94               	goto	u1071
  6267  0D93  2D95               	goto	u1070
  6268  0D94                     u1071:
  6269  0D94  2D9D               	goto	l887
  6270  0D95                     u1070:
  6271  0D95                     l1555:
  6272  0D95  0A73               	incf	fputc@fp,w
  6273  0D96  0086               	movwf	6
  6274  0D97  0187               	clrf	7
  6275  0D98  3001               	movlw	1
  6276  0D99  0781               	addwf	1,f
  6277  0D9A  3141               	addfsr 1,1
  6278  0D9B  1803               	skipnc
  6279  0D9C  0A81               	incf	1,f
  6280  0D9D                     l887:
  6281  0D9D  0008               	return
  6282  0D9E                     __end_of_fputc:
  6283                           
  6284                           	psect	text21
  6285  0BDD                     __ptext21:	
  6286 ;; *************** function _putch *****************
  6287 ;; Defined at:
  6288 ;;		line 425 in file "main.c"
  6289 ;; Parameters:    Size  Location     Type
  6290 ;;  c               1    wreg     unsigned char 
  6291 ;; Auto vars:     Size  Location     Type
  6292 ;;  c               1    0[COMMON] unsigned char 
  6293 ;; Return value:  Size  Location     Type
  6294 ;;                  1    wreg      void 
  6295 ;; Registers used:
  6296 ;;		wreg
  6297 ;; Tracked objects:
  6298 ;;		On entry : 0/0
  6299 ;;		On exit  : 0/0
  6300 ;;		Unchanged: 0/0
  6301 ;; Data sizes:     COMMON   BANK0   BANK1   BANK2   BANK3   BANK4   BANK5   BANK6   BANK7   BANK8   BANK9  BANK10  BANK1
      +1  BANK12  BANK13  BANK14  BANK15  BANK16  BANK17  BANK18  BANK19  BANK20  BANK21  BANK22  BANK23  BANK24  BANK25  BANK2
      +6  BANK27  BANK28  BANK29  BANK30  BANK31  BANK32  BANK33  BANK34  BANK35  BANK36  BANK37  BANK38  BANK39  BANK40  BANK4
      +1  BANK42  BANK43  BANK44  BANK45  BANK46  BANK47  BANK48  BANK49  BANK50
  6302 ;;      Params:         0       0       0       0       0       0       0       0       0       0       0       0       
      +0       0       0       0       0       0       0       0       0       0       0       0       0       0       0       
      +0       0       0       0       0       0       0       0       0       0       0       0       0       0       0       
      +0       0       0       0       0       0       0       0       0       0
  6303 ;;      Locals:         1       0       0       0       0       0       0       0       0       0       0       0       
      +0       0       0       0       0       0       0       0       0       0       0       0       0       0       0       
      +0       0       0       0       0       0       0       0       0       0       0       0       0       0       0       
      +0       0       0       0       0       0       0       0       0       0
  6304 ;;      Temps:          0       0       0       0       0       0       0       0       0       0       0       0       
      +0       0       0       0       0       0       0       0       0       0       0       0       0       0       0       
      +0       0       0       0       0       0       0       0       0       0       0       0       0       0       0       
      +0       0       0       0       0       0       0       0       0       0
  6305 ;;      Totals:         1       0       0       0       0       0       0       0       0       0       0       0       
      +0       0       0       0       0       0       0       0       0       0       0       0       0       0       0       
      +0       0       0       0       0       0       0       0       0       0       0       0       0       0       0       
      +0       0       0       0       0       0       0       0       0       0
  6306 ;;Total ram usage:        1 bytes
  6307 ;; Hardware stack levels used:    1
  6308 ;; This function calls:
  6309 ;;		Nothing
  6310 ;; This function is called by:
  6311 ;;		_fputc
  6312 ;; This function uses a non-reentrant model
  6313 ;;
  6314                           
  6315                           
  6316                           ;psect for function _putch
  6317  0BDD                     _putch:
  6318                           
  6319                           ;incstack = 0
  6320                           ; Regs used in _putch: [wreg]
  6321                           ;putch@c stored from wreg
  6322  0BDD  00F0               	movwf	putch@c
  6323  0BDE                     l1541:
  6324  0BDE                     l133:	
  6325                           ;main.c: 426:     while(!TX1STAbits.TRMT);
  6326                           
  6327  0BDE  0142               	movlb	2	; select bank2
  6328  0BDF  1C9E               	btfss	30,1	;volatile
  6329  0BE0  2BE2               	goto	u1031
  6330  0BE1  2BE3               	goto	u1030
  6331  0BE2                     u1031:
  6332  0BE2  2BDE               	goto	l133
  6333  0BE3                     u1030:
  6334  0BE3                     l1543:
  6335                           
  6336                           ;main.c: 427:     TX1REG = c;
  6337  0BE3  0870               	movf	putch@c,w
  6338  0BE4  009A               	movwf	26	;volatile
  6339  0BE5                     l136:
  6340  0BE5  0008               	return
  6341  0BE6                     __end_of_putch:
  6342                           
  6343                           	psect	text22
  6344  0C70                     __ptext22:	
  6345 ;; *************** function _abs *****************
  6346 ;; Defined at:
  6347 ;;		line 1 in file "/Applications/microchip/xc8/v2.20/pic/sources/c99/common/abs.c"
  6348 ;; Parameters:    Size  Location     Type
  6349 ;;  a               2    3[COMMON] int 
  6350 ;; Auto vars:     Size  Location     Type
  6351 ;;		None
  6352 ;; Return value:  Size  Location     Type
  6353 ;;                  2    3[COMMON] int 
  6354 ;; Registers used:
  6355 ;;		wreg, status,2, status,0
  6356 ;; Tracked objects:
  6357 ;;		On entry : 0/0
  6358 ;;		On exit  : 0/0
  6359 ;;		Unchanged: 0/0
  6360 ;; Data sizes:     COMMON   BANK0   BANK1   BANK2   BANK3   BANK4   BANK5   BANK6   BANK7   BANK8   BANK9  BANK10  BANK1
      +1  BANK12  BANK13  BANK14  BANK15  BANK16  BANK17  BANK18  BANK19  BANK20  BANK21  BANK22  BANK23  BANK24  BANK25  BANK2
      +6  BANK27  BANK28  BANK29  BANK30  BANK31  BANK32  BANK33  BANK34  BANK35  BANK36  BANK37  BANK38  BANK39  BANK40  BANK4
      +1  BANK42  BANK43  BANK44  BANK45  BANK46  BANK47  BANK48  BANK49  BANK50
  6361 ;;      Params:         2       0       0       0       0       0       0       0       0       0       0       0       
      +0       0       0       0       0       0       0       0       0       0       0       0       0       0       0       
      +0       0       0       0       0       0       0       0       0       0       0       0       0       0       0       
      +0       0       0       0       0       0       0       0       0       0
  6362 ;;      Locals:         0       0       0       0       0       0       0       0       0       0       0       0       
      +0       0       0       0       0       0       0       0       0       0       0       0       0       0       0       
      +0       0       0       0       0       0       0       0       0       0       0       0       0       0       0       
      +0       0       0       0       0       0       0       0       0       0
  6363 ;;      Temps:          2       0       0       0       0       0       0       0       0       0       0       0       
      +0       0       0       0       0       0       0       0       0       0       0       0       0       0       0       
      +0       0       0       0       0       0       0       0       0       0       0       0       0       0       0       
      +0       0       0       0       0       0       0       0       0       0
  6364 ;;      Totals:         4       0       0       0       0       0       0       0       0       0       0       0       
      +0       0       0       0       0       0       0       0       0       0       0       0       0       0       0       
      +0       0       0       0       0       0       0       0       0       0       0       0       0       0       0       
      +0       0       0       0       0       0       0       0       0       0
  6365 ;;Total ram usage:        4 bytes
  6366 ;; Hardware stack levels used:    1
  6367 ;; This function calls:
  6368 ;;		Nothing
  6369 ;; This function is called by:
  6370 ;;		_dtoa
  6371 ;; This function uses a non-reentrant model
  6372 ;;
  6373                           
  6374                           
  6375                           ;psect for function _abs
  6376  0C70                     _abs:
  6377  0C70                     l1667:	
  6378                           ;incstack = 0
  6379                           ; Regs used in _abs: [wreg+status,2+status,0]
  6380                           
  6381  0C70  0874               	movf	abs@a+1,w
  6382  0C71  3A80               	xorlw	128
  6383  0C72  00F5               	movwf	??_abs
  6384  0C73  3080               	movlw	128
  6385  0C74  0275               	subwf	??_abs,w
  6386  0C75  1D03               	skipz
  6387  0C76  2C79               	goto	u1355
  6388  0C77  3001               	movlw	1
  6389  0C78  0273               	subwf	abs@a,w
  6390  0C79                     u1355:
  6391  0C79  1803               	skipnc
  6392  0C7A  2C7C               	goto	u1351
  6393  0C7B  2C7D               	goto	u1350
  6394  0C7C                     u1351:
  6395  0C7C  2C89               	goto	l872
  6396  0C7D                     u1350:
  6397  0C7D                     l1669:
  6398  0C7D  0973               	comf	abs@a,w
  6399  0C7E  00F5               	movwf	??_abs
  6400  0C7F  0974               	comf	abs@a+1,w
  6401  0C80  00F6               	movwf	??_abs+1
  6402  0C81  0AF5               	incf	??_abs,f
  6403  0C82  1903               	skipnz
  6404  0C83  0AF6               	incf	??_abs+1,f
  6405  0C84  0875               	movf	??_abs,w
  6406  0C85  00F3               	movwf	?_abs
  6407  0C86  0876               	movf	??_abs+1,w
  6408  0C87  00F4               	movwf	?_abs+1
  6409  0C88  2C89               	goto	l875
  6410  0C89                     l872:
  6411  0C89                     l875:
  6412  0C89  0008               	return
  6413  0C8A                     __end_of_abs:
  6414                           
  6415                           	psect	text23
  6416  0F16                     __ptext23:	
  6417 ;; *************** function ___aomod *****************
  6418 ;; Defined at:
  6419 ;;		line 7 in file "/Applications/microchip/xc8/v2.20/pic/sources/c99/common/aomod.c"
  6420 ;; Parameters:    Size  Location     Type
  6421 ;;  divisor         8    0[BANK0 ] long long 
  6422 ;;  dividend        8    8[BANK0 ] long long 
  6423 ;; Auto vars:     Size  Location     Type
  6424 ;;  sign            1    2[COMMON] unsigned char 
  6425 ;;  counter         1    1[COMMON] unsigned char 
  6426 ;; Return value:  Size  Location     Type
  6427 ;;                  8    0[BANK0 ] long long 
  6428 ;; Registers used:
  6429 ;;		wreg, fsr1l, fsr1h, status,2, status,0
  6430 ;; Tracked objects:
  6431 ;;		On entry : 0/0
  6432 ;;		On exit  : 0/0
  6433 ;;		Unchanged: 0/0
  6434 ;; Data sizes:     COMMON   BANK0   BANK1   BANK2   BANK3   BANK4   BANK5   BANK6   BANK7   BANK8   BANK9  BANK10  BANK1
      +1  BANK12  BANK13  BANK14  BANK15  BANK16  BANK17  BANK18  BANK19  BANK20  BANK21  BANK22  BANK23  BANK24  BANK25  BANK2
      +6  BANK27  BANK28  BANK29  BANK30  BANK31  BANK32  BANK33  BANK34  BANK35  BANK36  BANK37  BANK38  BANK39  BANK40  BANK4
      +1  BANK42  BANK43  BANK44  BANK45  BANK46  BANK47  BANK48  BANK49  BANK50
  6435 ;;      Params:         0      16       0       0       0       0       0       0       0       0       0       0       
      +0       0       0       0       0       0       0       0       0       0       0       0       0       0       0       
      +0       0       0       0       0       0       0       0       0       0       0       0       0       0       0       
      +0       0       0       0       0       0       0       0       0       0
  6436 ;;      Locals:         2       0       0       0       0       0       0       0       0       0       0       0       
      +0       0       0       0       0       0       0       0       0       0       0       0       0       0       0       
      +0       0       0       0       0       0       0       0       0       0       0       0       0       0       0       
      +0       0       0       0       0       0       0       0       0       0
  6437 ;;      Temps:          1       0       0       0       0       0       0       0       0       0       0       0       
      +0       0       0       0       0       0       0       0       0       0       0       0       0       0       0       
      +0       0       0       0       0       0       0       0       0       0       0       0       0       0       0       
      +0       0       0       0       0       0       0       0       0       0
  6438 ;;      Totals:         3      16       0       0       0       0       0       0       0       0       0       0       
      +0       0       0       0       0       0       0       0       0       0       0       0       0       0       0       
      +0       0       0       0       0       0       0       0       0       0       0       0       0       0       0       
      +0       0       0       0       0       0       0       0       0       0
  6439 ;;Total ram usage:       19 bytes
  6440 ;; Hardware stack levels used:    1
  6441 ;; This function calls:
  6442 ;;		Nothing
  6443 ;; This function is called by:
  6444 ;;		_dtoa
  6445 ;; This function uses a non-reentrant model
  6446 ;;
  6447                           
  6448                           
  6449                           ;psect for function ___aomod
  6450  0F16                     ___aomod:
  6451  0F16                     l1615:	
  6452                           ;incstack = 0
  6453                           ; Regs used in ___aomod: [wreg+fsr1l+fsr1h+status,2+status,0]
  6454                           
  6455  0F16  01F2               	clrf	___aomod@sign
  6456  0F17                     l1617:
  6457  0F17  3028               	movlw	low ___aomod@dividend
  6458  0F18  0086               	movwf	6
  6459  0F19  3000               	movlw	high ___aomod@dividend
  6460  0F1A  0087               	movwf	7
  6461  0F1B  3F47               	moviw [7]fsr1
  6462  0F1C  00F0               	movwf	??___aomod
  6463  0F1D  1FF0               	btfss	??___aomod,7
  6464  0F1E  2F20               	goto	u1211
  6465  0F1F  2F21               	goto	u1210
  6466  0F20                     u1211:
  6467  0F20  2F42               	goto	l1621
  6468  0F21                     u1210:
  6469  0F21                     l1619:
  6470  0F21  0140               	movlb	0	; select bank0
  6471  0F22  09A8               	comf	___aomod@dividend,f
  6472  0F23  09A9               	comf	___aomod@dividend+1,f
  6473  0F24  09AA               	comf	___aomod@dividend+2,f
  6474  0F25  09AB               	comf	___aomod@dividend+3,f
  6475  0F26  09AC               	comf	___aomod@dividend+4,f
  6476  0F27  09AD               	comf	___aomod@dividend+5,f
  6477  0F28  09AE               	comf	___aomod@dividend+6,f
  6478  0F29  09AF               	comf	___aomod@dividend+7,f
  6479  0F2A  0AA8               	incf	___aomod@dividend,f
  6480  0F2B  1D03               	skipz
  6481  0F2C  2F40               	goto	u122lld
  6482  0F2D  0AA9               	incf	___aomod@dividend+1,f
  6483  0F2E  1D03               	skipz
  6484  0F2F  2F40               	goto	u122lld
  6485  0F30  0AAA               	incf	___aomod@dividend+2,f
  6486  0F31  1D03               	skipz
  6487  0F32  2F40               	goto	u122lld
  6488  0F33  0AAB               	incf	___aomod@dividend+3,f
  6489  0F34  1D03               	skipz
  6490  0F35  2F40               	goto	u122lld
  6491  0F36  0AAC               	incf	___aomod@dividend+4,f
  6492  0F37  1D03               	skipz
  6493  0F38  2F40               	goto	u122lld
  6494  0F39  0AAD               	incf	___aomod@dividend+5,f
  6495  0F3A  1D03               	skipz
  6496  0F3B  2F40               	goto	u122lld
  6497  0F3C  0AAE               	incf	___aomod@dividend+6,f
  6498  0F3D  1D03               	skipz
  6499  0F3E  2F40               	goto	u122lld
  6500  0F3F  0AAF               	incf	___aomod@dividend+7,f
  6501  0F40                     u122lld:
  6502  0F40  01F2               	clrf	___aomod@sign
  6503  0F41  0AF2               	incf	___aomod@sign,f
  6504  0F42                     l1621:
  6505  0F42  3020               	movlw	low ___aomod@divisor
  6506  0F43  0086               	movwf	6
  6507  0F44  3000               	movlw	high ___aomod@divisor
  6508  0F45  0087               	movwf	7
  6509  0F46  3F47               	moviw [7]fsr1
  6510  0F47  00F0               	movwf	??___aomod
  6511  0F48  1FF0               	btfss	??___aomod,7
  6512  0F49  2F4B               	goto	u1231
  6513  0F4A  2F4C               	goto	u1230
  6514  0F4B                     u1231:
  6515  0F4B  2F6B               	goto	l1625
  6516  0F4C                     u1230:
  6517  0F4C                     l1623:
  6518  0F4C  0140               	movlb	0	; select bank0
  6519  0F4D  09A0               	comf	___aomod@divisor,f
  6520  0F4E  09A1               	comf	___aomod@divisor+1,f
  6521  0F4F  09A2               	comf	___aomod@divisor+2,f
  6522  0F50  09A3               	comf	___aomod@divisor+3,f
  6523  0F51  09A4               	comf	___aomod@divisor+4,f
  6524  0F52  09A5               	comf	___aomod@divisor+5,f
  6525  0F53  09A6               	comf	___aomod@divisor+6,f
  6526  0F54  09A7               	comf	___aomod@divisor+7,f
  6527  0F55  0AA0               	incf	___aomod@divisor,f
  6528  0F56  1D03               	skipz
  6529  0F57  2F6B               	goto	u124lld
  6530  0F58  0AA1               	incf	___aomod@divisor+1,f
  6531  0F59  1D03               	skipz
  6532  0F5A  2F6B               	goto	u124lld
  6533  0F5B  0AA2               	incf	___aomod@divisor+2,f
  6534  0F5C  1D03               	skipz
  6535  0F5D  2F6B               	goto	u124lld
  6536  0F5E  0AA3               	incf	___aomod@divisor+3,f
  6537  0F5F  1D03               	skipz
  6538  0F60  2F6B               	goto	u124lld
  6539  0F61  0AA4               	incf	___aomod@divisor+4,f
  6540  0F62  1D03               	skipz
  6541  0F63  2F6B               	goto	u124lld
  6542  0F64  0AA5               	incf	___aomod@divisor+5,f
  6543  0F65  1D03               	skipz
  6544  0F66  2F6B               	goto	u124lld
  6545  0F67  0AA6               	incf	___aomod@divisor+6,f
  6546  0F68  1D03               	skipz
  6547  0F69  2F6B               	goto	u124lld
  6548  0F6A  0AA7               	incf	___aomod@divisor+7,f
  6549  0F6B                     u124lld:
  6550  0F6B                     l1625:
  6551  0F6B  0140               	movlb	0	; select bank0
  6552  0F6C  0820               	movf	___aomod@divisor,w
  6553  0F6D  0421               	iorwf	___aomod@divisor+1,w
  6554  0F6E  0422               	iorwf	___aomod@divisor+2,w
  6555  0F6F  0423               	iorwf	___aomod@divisor+3,w
  6556  0F70  0424               	iorwf	___aomod@divisor+4,w
  6557  0F71  0425               	iorwf	___aomod@divisor+5,w
  6558  0F72  0426               	iorwf	___aomod@divisor+6,w
  6559  0F73  0427               	iorwf	___aomod@divisor+7,w
  6560  0F74  1903               	skipnz
  6561  0F75  2F77               	goto	u1251
  6562  0F76  2F78               	goto	u1250
  6563  0F77                     u1251:
  6564  0F77  2FCB               	goto	l1641
  6565  0F78                     u1250:
  6566  0F78                     l1627:
  6567  0F78  01F1               	clrf	___aomod@counter
  6568  0F79  0AF1               	incf	___aomod@counter,f
  6569  0F7A  2F87               	goto	l1633
  6570  0F7B                     l1629:
  6571  0F7B  35A0               	lslf	___aomod@divisor,f
  6572  0F7C  0DA1               	rlf	___aomod@divisor+1,f
  6573  0F7D  0DA2               	rlf	___aomod@divisor+2,f
  6574  0F7E  0DA3               	rlf	___aomod@divisor+3,f
  6575  0F7F  0DA4               	rlf	___aomod@divisor+4,f
  6576  0F80  0DA5               	rlf	___aomod@divisor+5,f
  6577  0F81  0DA6               	rlf	___aomod@divisor+6,f
  6578  0F82  0DA7               	rlf	___aomod@divisor+7,f
  6579  0F83                     l1631:
  6580  0F83  3001               	movlw	1
  6581  0F84  00F0               	movwf	??___aomod
  6582  0F85  0870               	movf	??___aomod,w
  6583  0F86  07F1               	addwf	___aomod@counter,f
  6584  0F87                     l1633:
  6585  0F87  1FA7               	btfss	___aomod@divisor+7,7
  6586  0F88  2F8A               	goto	u1261
  6587  0F89  2F8B               	goto	u1260
  6588  0F8A                     u1261:
  6589  0F8A  2F7B               	goto	l1629
  6590  0F8B                     u1260:
  6591  0F8B                     l1635:
  6592  0F8B  0827               	movf	___aomod@divisor+7,w
  6593  0F8C  022F               	subwf	___aomod@dividend+7,w
  6594  0F8D  1D03               	skipz
  6595  0F8E  2FA9               	goto	u1275
  6596  0F8F  0826               	movf	___aomod@divisor+6,w
  6597  0F90  022E               	subwf	___aomod@dividend+6,w
  6598  0F91  1D03               	skipz
  6599  0F92  2FA9               	goto	u1275
  6600  0F93  0825               	movf	___aomod@divisor+5,w
  6601  0F94  022D               	subwf	___aomod@dividend+5,w
  6602  0F95  1D03               	skipz
  6603  0F96  2FA9               	goto	u1275
  6604  0F97  0824               	movf	___aomod@divisor+4,w
  6605  0F98  022C               	subwf	___aomod@dividend+4,w
  6606  0F99  1D03               	skipz
  6607  0F9A  2FA9               	goto	u1275
  6608  0F9B  0823               	movf	___aomod@divisor+3,w
  6609  0F9C  022B               	subwf	___aomod@dividend+3,w
  6610  0F9D  1D03               	skipz
  6611  0F9E  2FA9               	goto	u1275
  6612  0F9F  0822               	movf	___aomod@divisor+2,w
  6613  0FA0  022A               	subwf	___aomod@dividend+2,w
  6614  0FA1  1D03               	skipz
  6615  0FA2  2FA9               	goto	u1275
  6616  0FA3  0821               	movf	___aomod@divisor+1,w
  6617  0FA4  0229               	subwf	___aomod@dividend+1,w
  6618  0FA5  1D03               	skipz
  6619  0FA6  2FA9               	goto	u1275
  6620  0FA7  0820               	movf	___aomod@divisor,w
  6621  0FA8  0228               	subwf	___aomod@dividend,w
  6622  0FA9                     u1275:
  6623  0FA9  1C03               	skipc
  6624  0FAA  2FAC               	goto	u1271
  6625  0FAB  2FAD               	goto	u1270
  6626  0FAC                     u1271:
  6627  0FAC  2FBD               	goto	l1639
  6628  0FAD                     u1270:
  6629  0FAD                     l1637:
  6630  0FAD  0820               	movf	___aomod@divisor,w
  6631  0FAE  02A8               	subwf	___aomod@dividend,f
  6632  0FAF  0821               	movf	___aomod@divisor+1,w
  6633  0FB0  3BA9               	subwfb	___aomod@dividend+1,f
  6634  0FB1  0822               	movf	___aomod@divisor+2,w
  6635  0FB2  3BAA               	subwfb	___aomod@dividend+2,f
  6636  0FB3  0823               	movf	___aomod@divisor+3,w
  6637  0FB4  3BAB               	subwfb	___aomod@dividend+3,f
  6638  0FB5  0824               	movf	___aomod@divisor+4,w
  6639  0FB6  3BAC               	subwfb	___aomod@dividend+4,f
  6640  0FB7  0825               	movf	___aomod@divisor+5,w
  6641  0FB8  3BAD               	subwfb	___aomod@dividend+5,f
  6642  0FB9  0826               	movf	___aomod@divisor+6,w
  6643  0FBA  3BAE               	subwfb	___aomod@dividend+6,f
  6644  0FBB  0827               	movf	___aomod@divisor+7,w
  6645  0FBC  3BAF               	subwfb	___aomod@dividend+7,f
  6646  0FBD                     l1639:
  6647  0FBD  36A7               	lsrf	___aomod@divisor+7,f
  6648  0FBE  0CA6               	rrf	___aomod@divisor+6,f
  6649  0FBF  0CA5               	rrf	___aomod@divisor+5,f
  6650  0FC0  0CA4               	rrf	___aomod@divisor+4,f
  6651  0FC1  0CA3               	rrf	___aomod@divisor+3,f
  6652  0FC2  0CA2               	rrf	___aomod@divisor+2,f
  6653  0FC3  0CA1               	rrf	___aomod@divisor+1,f
  6654  0FC4  0CA0               	rrf	___aomod@divisor,f
  6655  0FC5  3001               	movlw	1
  6656  0FC6  02F1               	subwf	___aomod@counter,f
  6657  0FC7  1D03               	btfss	3,2
  6658  0FC8  2FCA               	goto	u1281
  6659  0FC9  2FCB               	goto	u1280
  6660  0FCA                     u1281:
  6661  0FCA  2F8B               	goto	l1635
  6662  0FCB                     u1280:
  6663  0FCB                     l1641:
  6664  0FCB  0872               	movf	___aomod@sign,w
  6665  0FCC  1903               	btfsc	3,2
  6666  0FCD  2FCF               	goto	u1291
  6667  0FCE  2FD0               	goto	u1290
  6668  0FCF                     u1291:
  6669  0FCF  2FEE               	goto	l422
  6670  0FD0                     u1290:
  6671  0FD0                     l1643:
  6672  0FD0  09A8               	comf	___aomod@dividend,f
  6673  0FD1  09A9               	comf	___aomod@dividend+1,f
  6674  0FD2  09AA               	comf	___aomod@dividend+2,f
  6675  0FD3  09AB               	comf	___aomod@dividend+3,f
  6676  0FD4  09AC               	comf	___aomod@dividend+4,f
  6677  0FD5  09AD               	comf	___aomod@dividend+5,f
  6678  0FD6  09AE               	comf	___aomod@dividend+6,f
  6679  0FD7  09AF               	comf	___aomod@dividend+7,f
  6680  0FD8  0AA8               	incf	___aomod@dividend,f
  6681  0FD9  1D03               	skipz
  6682  0FDA  2FEE               	goto	u130lld
  6683  0FDB  0AA9               	incf	___aomod@dividend+1,f
  6684  0FDC  1D03               	skipz
  6685  0FDD  2FEE               	goto	u130lld
  6686  0FDE  0AAA               	incf	___aomod@dividend+2,f
  6687  0FDF  1D03               	skipz
  6688  0FE0  2FEE               	goto	u130lld
  6689  0FE1  0AAB               	incf	___aomod@dividend+3,f
  6690  0FE2  1D03               	skipz
  6691  0FE3  2FEE               	goto	u130lld
  6692  0FE4  0AAC               	incf	___aomod@dividend+4,f
  6693  0FE5  1D03               	skipz
  6694  0FE6  2FEE               	goto	u130lld
  6695  0FE7  0AAD               	incf	___aomod@dividend+5,f
  6696  0FE8  1D03               	skipz
  6697  0FE9  2FEE               	goto	u130lld
  6698  0FEA  0AAE               	incf	___aomod@dividend+6,f
  6699  0FEB  1D03               	skipz
  6700  0FEC  2FEE               	goto	u130lld
  6701  0FED  0AAF               	incf	___aomod@dividend+7,f
  6702  0FEE                     u130lld:
  6703  0FEE                     l422:
  6704  0FEE  0140               	movlb	0	; select bank0
  6705  0FEF  0828               	movf	___aomod@dividend,w
  6706  0FF0  00A0               	movwf	?___aomod
  6707  0FF1  0829               	movf	___aomod@dividend+1,w
  6708  0FF2  00A1               	movwf	?___aomod+1
  6709  0FF3  082A               	movf	___aomod@dividend+2,w
  6710  0FF4  00A2               	movwf	?___aomod+2
  6711  0FF5  082B               	movf	___aomod@dividend+3,w
  6712  0FF6  00A3               	movwf	?___aomod+3
  6713  0FF7  082C               	movf	___aomod@dividend+4,w
  6714  0FF8  00A4               	movwf	?___aomod+4
  6715  0FF9  082D               	movf	___aomod@dividend+5,w
  6716  0FFA  00A5               	movwf	?___aomod+5
  6717  0FFB  082E               	movf	___aomod@dividend+6,w
  6718  0FFC  00A6               	movwf	?___aomod+6
  6719  0FFD  082F               	movf	___aomod@dividend+7,w
  6720  0FFE  00A7               	movwf	?___aomod+7
  6721  0FFF                     l423:
  6722  0FFF  0008               	return
  6723  1000                     __end_of___aomod:
  6724                           
  6725                           	psect	text24
  6726  0025                     __ptext24:	
  6727 ;; *************** function ___aodiv *****************
  6728 ;; Defined at:
  6729 ;;		line 7 in file "/Applications/microchip/xc8/v2.20/pic/sources/c99/common/aodiv.c"
  6730 ;; Parameters:    Size  Location     Type
  6731 ;;  divisor         8    0[BANK0 ] long long 
  6732 ;;  dividend        8    8[BANK0 ] long long 
  6733 ;; Auto vars:     Size  Location     Type
  6734 ;;  quotient        8    3[COMMON] long long 
  6735 ;;  sign            1    2[COMMON] unsigned char 
  6736 ;;  counter         1    1[COMMON] unsigned char 
  6737 ;; Return value:  Size  Location     Type
  6738 ;;                  8    0[BANK0 ] long long 
  6739 ;; Registers used:
  6740 ;;		wreg, fsr1l, fsr1h, status,2, status,0
  6741 ;; Tracked objects:
  6742 ;;		On entry : 0/0
  6743 ;;		On exit  : 0/0
  6744 ;;		Unchanged: 0/0
  6745 ;; Data sizes:     COMMON   BANK0   BANK1   BANK2   BANK3   BANK4   BANK5   BANK6   BANK7   BANK8   BANK9  BANK10  BANK1
      +1  BANK12  BANK13  BANK14  BANK15  BANK16  BANK17  BANK18  BANK19  BANK20  BANK21  BANK22  BANK23  BANK24  BANK25  BANK2
      +6  BANK27  BANK28  BANK29  BANK30  BANK31  BANK32  BANK33  BANK34  BANK35  BANK36  BANK37  BANK38  BANK39  BANK40  BANK4
      +1  BANK42  BANK43  BANK44  BANK45  BANK46  BANK47  BANK48  BANK49  BANK50
  6746 ;;      Params:         0      16       0       0       0       0       0       0       0       0       0       0       
      +0       0       0       0       0       0       0       0       0       0       0       0       0       0       0       
      +0       0       0       0       0       0       0       0       0       0       0       0       0       0       0       
      +0       0       0       0       0       0       0       0       0       0
  6747 ;;      Locals:        10       0       0       0       0       0       0       0       0       0       0       0       
      +0       0       0       0       0       0       0       0       0       0       0       0       0       0       0       
      +0       0       0       0       0       0       0       0       0       0       0       0       0       0       0       
      +0       0       0       0       0       0       0       0       0       0
  6748 ;;      Temps:          1       0       0       0       0       0       0       0       0       0       0       0       
      +0       0       0       0       0       0       0       0       0       0       0       0       0       0       0       
      +0       0       0       0       0       0       0       0       0       0       0       0       0       0       0       
      +0       0       0       0       0       0       0       0       0       0
  6749 ;;      Totals:        11      16       0       0       0       0       0       0       0       0       0       0       
      +0       0       0       0       0       0       0       0       0       0       0       0       0       0       0       
      +0       0       0       0       0       0       0       0       0       0       0       0       0       0       0       
      +0       0       0       0       0       0       0       0       0       0
  6750 ;;Total ram usage:       27 bytes
  6751 ;; Hardware stack levels used:    1
  6752 ;; This function calls:
  6753 ;;		Nothing
  6754 ;; This function is called by:
  6755 ;;		_dtoa
  6756 ;; This function uses a non-reentrant model
  6757 ;;
  6758                           
  6759                           
  6760                           ;psect for function ___aodiv
  6761  0025                     ___aodiv:
  6762  0025                     l1577:	
  6763                           ;incstack = 0
  6764                           ; Regs used in ___aodiv: [wreg+fsr1l+fsr1h+status,2+status,0]
  6765                           
  6766  0025  01F2               	clrf	___aodiv@sign
  6767  0026                     l1579:
  6768  0026  3020               	movlw	low ___aodiv@divisor
  6769  0027  0086               	movwf	6
  6770  0028  3000               	movlw	high ___aodiv@divisor
  6771  0029  0087               	movwf	7
  6772  002A  3F47               	moviw [7]fsr1
  6773  002B  00F0               	movwf	??___aodiv
  6774  002C  1FF0               	btfss	??___aodiv,7
  6775  002D  282F               	goto	u1101
  6776  002E  2830               	goto	u1100
  6777  002F                     u1101:
  6778  002F  2851               	goto	l1583
  6779  0030                     u1100:
  6780  0030                     l1581:
  6781  0030  0140               	movlb	0	; select bank0
  6782  0031  09A0               	comf	___aodiv@divisor,f
  6783  0032  09A1               	comf	___aodiv@divisor+1,f
  6784  0033  09A2               	comf	___aodiv@divisor+2,f
  6785  0034  09A3               	comf	___aodiv@divisor+3,f
  6786  0035  09A4               	comf	___aodiv@divisor+4,f
  6787  0036  09A5               	comf	___aodiv@divisor+5,f
  6788  0037  09A6               	comf	___aodiv@divisor+6,f
  6789  0038  09A7               	comf	___aodiv@divisor+7,f
  6790  0039  0AA0               	incf	___aodiv@divisor,f
  6791  003A  1D03               	skipz
  6792  003B  284F               	goto	u111lld
  6793  003C  0AA1               	incf	___aodiv@divisor+1,f
  6794  003D  1D03               	skipz
  6795  003E  284F               	goto	u111lld
  6796  003F  0AA2               	incf	___aodiv@divisor+2,f
  6797  0040  1D03               	skipz
  6798  0041  284F               	goto	u111lld
  6799  0042  0AA3               	incf	___aodiv@divisor+3,f
  6800  0043  1D03               	skipz
  6801  0044  284F               	goto	u111lld
  6802  0045  0AA4               	incf	___aodiv@divisor+4,f
  6803  0046  1D03               	skipz
  6804  0047  284F               	goto	u111lld
  6805  0048  0AA5               	incf	___aodiv@divisor+5,f
  6806  0049  1D03               	skipz
  6807  004A  284F               	goto	u111lld
  6808  004B  0AA6               	incf	___aodiv@divisor+6,f
  6809  004C  1D03               	skipz
  6810  004D  284F               	goto	u111lld
  6811  004E  0AA7               	incf	___aodiv@divisor+7,f
  6812  004F                     u111lld:
  6813  004F  01F2               	clrf	___aodiv@sign
  6814  0050  0AF2               	incf	___aodiv@sign,f
  6815  0051                     l1583:
  6816  0051  3028               	movlw	low ___aodiv@dividend
  6817  0052  0086               	movwf	6
  6818  0053  3000               	movlw	high ___aodiv@dividend
  6819  0054  0087               	movwf	7
  6820  0055  3F47               	moviw [7]fsr1
  6821  0056  00F0               	movwf	??___aodiv
  6822  0057  1FF0               	btfss	??___aodiv,7
  6823  0058  285A               	goto	u1121
  6824  0059  285B               	goto	u1120
  6825  005A                     u1121:
  6826  005A  287E               	goto	l1589
  6827  005B                     u1120:
  6828  005B                     l1585:
  6829  005B  0140               	movlb	0	; select bank0
  6830  005C  09A8               	comf	___aodiv@dividend,f
  6831  005D  09A9               	comf	___aodiv@dividend+1,f
  6832  005E  09AA               	comf	___aodiv@dividend+2,f
  6833  005F  09AB               	comf	___aodiv@dividend+3,f
  6834  0060  09AC               	comf	___aodiv@dividend+4,f
  6835  0061  09AD               	comf	___aodiv@dividend+5,f
  6836  0062  09AE               	comf	___aodiv@dividend+6,f
  6837  0063  09AF               	comf	___aodiv@dividend+7,f
  6838  0064  0AA8               	incf	___aodiv@dividend,f
  6839  0065  1D03               	skipz
  6840  0066  287A               	goto	u113lld
  6841  0067  0AA9               	incf	___aodiv@dividend+1,f
  6842  0068  1D03               	skipz
  6843  0069  287A               	goto	u113lld
  6844  006A  0AAA               	incf	___aodiv@dividend+2,f
  6845  006B  1D03               	skipz
  6846  006C  287A               	goto	u113lld
  6847  006D  0AAB               	incf	___aodiv@dividend+3,f
  6848  006E  1D03               	skipz
  6849  006F  287A               	goto	u113lld
  6850  0070  0AAC               	incf	___aodiv@dividend+4,f
  6851  0071  1D03               	skipz
  6852  0072  287A               	goto	u113lld
  6853  0073  0AAD               	incf	___aodiv@dividend+5,f
  6854  0074  1D03               	skipz
  6855  0075  287A               	goto	u113lld
  6856  0076  0AAE               	incf	___aodiv@dividend+6,f
  6857  0077  1D03               	skipz
  6858  0078  287A               	goto	u113lld
  6859  0079  0AAF               	incf	___aodiv@dividend+7,f
  6860  007A                     u113lld:
  6861  007A                     l1587:
  6862  007A  3001               	movlw	1
  6863  007B  00F0               	movwf	??___aodiv
  6864  007C  0870               	movf	??___aodiv,w
  6865  007D  06F2               	xorwf	___aodiv@sign,f
  6866  007E                     l1589:
  6867  007E  3073               	movlw	low ___aodiv@quotient
  6868  007F  0086               	movwf	6
  6869  0080  3000               	movlw	high ___aodiv@quotient
  6870  0081  0087               	movwf	7
  6871  0082  3008               	movlw	8
  6872  0083  00F0               	movwf	??___aodiv
  6873  0084  3000               	movlw	0
  6874  0085                     u1140:
  6875  0085  001E               	movwi fsr1++
  6876  0086  0BF0               	decfsz	??___aodiv,f
  6877  0087  2885               	goto	u1140
  6878  0088                     l1591:
  6879  0088  0140               	movlb	0	; select bank0
  6880  0089  0820               	movf	___aodiv@divisor,w
  6881  008A  0421               	iorwf	___aodiv@divisor+1,w
  6882  008B  0422               	iorwf	___aodiv@divisor+2,w
  6883  008C  0423               	iorwf	___aodiv@divisor+3,w
  6884  008D  0424               	iorwf	___aodiv@divisor+4,w
  6885  008E  0425               	iorwf	___aodiv@divisor+5,w
  6886  008F  0426               	iorwf	___aodiv@divisor+6,w
  6887  0090  0427               	iorwf	___aodiv@divisor+7,w
  6888  0091  1903               	skipnz
  6889  0092  2894               	goto	u1151
  6890  0093  2895               	goto	u1150
  6891  0094                     u1151:
  6892  0094  28F1               	goto	l1611
  6893  0095                     u1150:
  6894  0095                     l1593:
  6895  0095  01F1               	clrf	___aodiv@counter
  6896  0096  0AF1               	incf	___aodiv@counter,f
  6897  0097  28A4               	goto	l1599
  6898  0098                     l1595:
  6899  0098  35A0               	lslf	___aodiv@divisor,f
  6900  0099  0DA1               	rlf	___aodiv@divisor+1,f
  6901  009A  0DA2               	rlf	___aodiv@divisor+2,f
  6902  009B  0DA3               	rlf	___aodiv@divisor+3,f
  6903  009C  0DA4               	rlf	___aodiv@divisor+4,f
  6904  009D  0DA5               	rlf	___aodiv@divisor+5,f
  6905  009E  0DA6               	rlf	___aodiv@divisor+6,f
  6906  009F  0DA7               	rlf	___aodiv@divisor+7,f
  6907  00A0                     l1597:
  6908  00A0  3001               	movlw	1
  6909  00A1  00F0               	movwf	??___aodiv
  6910  00A2  0870               	movf	??___aodiv,w
  6911  00A3  07F1               	addwf	___aodiv@counter,f
  6912  00A4                     l1599:
  6913  00A4  1FA7               	btfss	___aodiv@divisor+7,7
  6914  00A5  28A7               	goto	u1161
  6915  00A6  28A8               	goto	u1160
  6916  00A7                     u1161:
  6917  00A7  2898               	goto	l1595
  6918  00A8                     u1160:
  6919  00A8                     l1601:
  6920  00A8  35F3               	lslf	___aodiv@quotient,f
  6921  00A9  0DF4               	rlf	___aodiv@quotient+1,f
  6922  00AA  0DF5               	rlf	___aodiv@quotient+2,f
  6923  00AB  0DF6               	rlf	___aodiv@quotient+3,f
  6924  00AC  0DF7               	rlf	___aodiv@quotient+4,f
  6925  00AD  0DF8               	rlf	___aodiv@quotient+5,f
  6926  00AE  0DF9               	rlf	___aodiv@quotient+6,f
  6927  00AF  0DFA               	rlf	___aodiv@quotient+7,f
  6928  00B0                     l1603:
  6929  00B0  0827               	movf	___aodiv@divisor+7,w
  6930  00B1  022F               	subwf	___aodiv@dividend+7,w
  6931  00B2  1D03               	skipz
  6932  00B3  28CE               	goto	u1175
  6933  00B4  0826               	movf	___aodiv@divisor+6,w
  6934  00B5  022E               	subwf	___aodiv@dividend+6,w
  6935  00B6  1D03               	skipz
  6936  00B7  28CE               	goto	u1175
  6937  00B8  0825               	movf	___aodiv@divisor+5,w
  6938  00B9  022D               	subwf	___aodiv@dividend+5,w
  6939  00BA  1D03               	skipz
  6940  00BB  28CE               	goto	u1175
  6941  00BC  0824               	movf	___aodiv@divisor+4,w
  6942  00BD  022C               	subwf	___aodiv@dividend+4,w
  6943  00BE  1D03               	skipz
  6944  00BF  28CE               	goto	u1175
  6945  00C0  0823               	movf	___aodiv@divisor+3,w
  6946  00C1  022B               	subwf	___aodiv@dividend+3,w
  6947  00C2  1D03               	skipz
  6948  00C3  28CE               	goto	u1175
  6949  00C4  0822               	movf	___aodiv@divisor+2,w
  6950  00C5  022A               	subwf	___aodiv@dividend+2,w
  6951  00C6  1D03               	skipz
  6952  00C7  28CE               	goto	u1175
  6953  00C8  0821               	movf	___aodiv@divisor+1,w
  6954  00C9  0229               	subwf	___aodiv@dividend+1,w
  6955  00CA  1D03               	skipz
  6956  00CB  28CE               	goto	u1175
  6957  00CC  0820               	movf	___aodiv@divisor,w
  6958  00CD  0228               	subwf	___aodiv@dividend,w
  6959  00CE                     u1175:
  6960  00CE  1C03               	skipc
  6961  00CF  28D1               	goto	u1171
  6962  00D0  28D2               	goto	u1170
  6963  00D1                     u1171:
  6964  00D1  28E3               	goto	l1609
  6965  00D2                     u1170:
  6966  00D2                     l1605:
  6967  00D2  0820               	movf	___aodiv@divisor,w
  6968  00D3  02A8               	subwf	___aodiv@dividend,f
  6969  00D4  0821               	movf	___aodiv@divisor+1,w
  6970  00D5  3BA9               	subwfb	___aodiv@dividend+1,f
  6971  00D6  0822               	movf	___aodiv@divisor+2,w
  6972  00D7  3BAA               	subwfb	___aodiv@dividend+2,f
  6973  00D8  0823               	movf	___aodiv@divisor+3,w
  6974  00D9  3BAB               	subwfb	___aodiv@dividend+3,f
  6975  00DA  0824               	movf	___aodiv@divisor+4,w
  6976  00DB  3BAC               	subwfb	___aodiv@dividend+4,f
  6977  00DC  0825               	movf	___aodiv@divisor+5,w
  6978  00DD  3BAD               	subwfb	___aodiv@dividend+5,f
  6979  00DE  0826               	movf	___aodiv@divisor+6,w
  6980  00DF  3BAE               	subwfb	___aodiv@dividend+6,f
  6981  00E0  0827               	movf	___aodiv@divisor+7,w
  6982  00E1  3BAF               	subwfb	___aodiv@dividend+7,f
  6983  00E2                     l1607:
  6984  00E2  1473               	bsf	___aodiv@quotient,0
  6985  00E3                     l1609:
  6986  00E3  36A7               	lsrf	___aodiv@divisor+7,f
  6987  00E4  0CA6               	rrf	___aodiv@divisor+6,f
  6988  00E5  0CA5               	rrf	___aodiv@divisor+5,f
  6989  00E6  0CA4               	rrf	___aodiv@divisor+4,f
  6990  00E7  0CA3               	rrf	___aodiv@divisor+3,f
  6991  00E8  0CA2               	rrf	___aodiv@divisor+2,f
  6992  00E9  0CA1               	rrf	___aodiv@divisor+1,f
  6993  00EA  0CA0               	rrf	___aodiv@divisor,f
  6994  00EB  3001               	movlw	1
  6995  00EC  02F1               	subwf	___aodiv@counter,f
  6996  00ED  1D03               	btfss	3,2
  6997  00EE  28F0               	goto	u1181
  6998  00EF  28F1               	goto	u1180
  6999  00F0                     u1181:
  7000  00F0  28A8               	goto	l1601
  7001  00F1                     u1180:
  7002  00F1                     l1611:
  7003  00F1  0872               	movf	___aodiv@sign,w
  7004  00F2  1903               	btfsc	3,2
  7005  00F3  28F5               	goto	u1191
  7006  00F4  28F6               	goto	u1190
  7007  00F5                     u1191:
  7008  00F5  2914               	goto	l409
  7009  00F6                     u1190:
  7010  00F6                     l1613:
  7011  00F6  09F3               	comf	___aodiv@quotient,f
  7012  00F7  09F4               	comf	___aodiv@quotient+1,f
  7013  00F8  09F5               	comf	___aodiv@quotient+2,f
  7014  00F9  09F6               	comf	___aodiv@quotient+3,f
  7015  00FA  09F7               	comf	___aodiv@quotient+4,f
  7016  00FB  09F8               	comf	___aodiv@quotient+5,f
  7017  00FC  09F9               	comf	___aodiv@quotient+6,f
  7018  00FD  09FA               	comf	___aodiv@quotient+7,f
  7019  00FE  0AF3               	incf	___aodiv@quotient,f
  7020  00FF  1D03               	skipz
  7021  0100  2914               	goto	u120lld
  7022  0101  0AF4               	incf	___aodiv@quotient+1,f
  7023  0102  1D03               	skipz
  7024  0103  2914               	goto	u120lld
  7025  0104  0AF5               	incf	___aodiv@quotient+2,f
  7026  0105  1D03               	skipz
  7027  0106  2914               	goto	u120lld
  7028  0107  0AF6               	incf	___aodiv@quotient+3,f
  7029  0108  1D03               	skipz
  7030  0109  2914               	goto	u120lld
  7031  010A  0AF7               	incf	___aodiv@quotient+4,f
  7032  010B  1D03               	skipz
  7033  010C  2914               	goto	u120lld
  7034  010D  0AF8               	incf	___aodiv@quotient+5,f
  7035  010E  1D03               	skipz
  7036  010F  2914               	goto	u120lld
  7037  0110  0AF9               	incf	___aodiv@quotient+6,f
  7038  0111  1D03               	skipz
  7039  0112  2914               	goto	u120lld
  7040  0113  0AFA               	incf	___aodiv@quotient+7,f
  7041  0114                     u120lld:
  7042  0114                     l409:
  7043  0114  0873               	movf	___aodiv@quotient,w
  7044  0115  0140               	movlb	0	; select bank0
  7045  0116  00A0               	movwf	?___aodiv
  7046  0117  0874               	movf	___aodiv@quotient+1,w
  7047  0118  00A1               	movwf	?___aodiv+1
  7048  0119  0875               	movf	___aodiv@quotient+2,w
  7049  011A  00A2               	movwf	?___aodiv+2
  7050  011B  0876               	movf	___aodiv@quotient+3,w
  7051  011C  00A3               	movwf	?___aodiv+3
  7052  011D  0877               	movf	___aodiv@quotient+4,w
  7053  011E  00A4               	movwf	?___aodiv+4
  7054  011F  0878               	movf	___aodiv@quotient+5,w
  7055  0120  00A5               	movwf	?___aodiv+5
  7056  0121  0879               	movf	___aodiv@quotient+6,w
  7057  0122  00A6               	movwf	?___aodiv+6
  7058  0123  087A               	movf	___aodiv@quotient+7,w
  7059  0124  00A7               	movwf	?___aodiv+7
  7060  0125                     l410:
  7061  0125  0008               	return
  7062  0126                     __end_of___aodiv:
  7063                           
  7064                           	psect	text25
  7065  0C07                     __ptext25:	
  7066 ;; *************** function _UartConfig *****************
  7067 ;; Defined at:
  7068 ;;		line 358 in file "main.c"
  7069 ;; Parameters:    Size  Location     Type
  7070 ;;		None
  7071 ;; Auto vars:     Size  Location     Type
  7072 ;;		None
  7073 ;; Return value:  Size  Location     Type
  7074 ;;                  1    wreg      void 
  7075 ;; Registers used:
  7076 ;;		wreg, status,2
  7077 ;; Tracked objects:
  7078 ;;		On entry : 0/0
  7079 ;;		On exit  : 0/0
  7080 ;;		Unchanged: 0/0
  7081 ;; Data sizes:     COMMON   BANK0   BANK1   BANK2   BANK3   BANK4   BANK5   BANK6   BANK7   BANK8   BANK9  BANK10  BANK1
      +1  BANK12  BANK13  BANK14  BANK15  BANK16  BANK17  BANK18  BANK19  BANK20  BANK21  BANK22  BANK23  BANK24  BANK25  BANK2
      +6  BANK27  BANK28  BANK29  BANK30  BANK31  BANK32  BANK33  BANK34  BANK35  BANK36  BANK37  BANK38  BANK39  BANK40  BANK4
      +1  BANK42  BANK43  BANK44  BANK45  BANK46  BANK47  BANK48  BANK49  BANK50
  7082 ;;      Params:         0       0       0       0       0       0       0       0       0       0       0       0       
      +0       0       0       0       0       0       0       0       0       0       0       0       0       0       0       
      +0       0       0       0       0       0       0       0       0       0       0       0       0       0       0       
      +0       0       0       0       0       0       0       0       0       0
  7083 ;;      Locals:         0       0       0       0       0       0       0       0       0       0       0       0       
      +0       0       0       0       0       0       0       0       0       0       0       0       0       0       0       
      +0       0       0       0       0       0       0       0       0       0       0       0       0       0       0       
      +0       0       0       0       0       0       0       0       0       0
  7084 ;;      Temps:          0       0       0       0       0       0       0       0       0       0       0       0       
      +0       0       0       0       0       0       0       0       0       0       0       0       0       0       0       
      +0       0       0       0       0       0       0       0       0       0       0       0       0       0       0       
      +0       0       0       0       0       0       0       0       0       0
  7085 ;;      Totals:         0       0       0       0       0       0       0       0       0       0       0       0       
      +0       0       0       0       0       0       0       0       0       0       0       0       0       0       0       
      +0       0       0       0       0       0       0       0       0       0       0       0       0       0       0       
      +0       0       0       0       0       0       0       0       0       0
  7086 ;;Total ram usage:        0 bytes
  7087 ;; Hardware stack levels used:    1
  7088 ;; This function calls:
  7089 ;;		Nothing
  7090 ;; This function is called by:
  7091 ;;		_Initiallize
  7092 ;; This function uses a non-reentrant model
  7093 ;;
  7094                           
  7095                           
  7096                           ;psect for function _UartConfig
  7097  0C07                     _UartConfig:
  7098  0C07                     l1859:	
  7099                           ;incstack = 0
  7100                           ; Regs used in _UartConfig: [wreg+status,2]
  7101                           
  7102                           
  7103                           ;main.c: 365:     RC1STAbits.SPEN = 0;
  7104  0C07  0142               	movlb	2	; select bank2
  7105  0C08  139D               	bcf	29,7	;volatile
  7106                           
  7107                           ;main.c: 366:     TX1STAbits.TXEN = 0;
  7108  0C09  129E               	bcf	30,5	;volatile
  7109                           
  7110                           ;main.c: 369:     PIR3bits.TX1IF = 0;
  7111  0C0A  014E               	movlb	14	; select bank14
  7112  0C0B  120F               	bcf	15,4	;volatile
  7113                           
  7114                           ;main.c: 370:     PIE3bits.TX1IE = 0;
  7115  0C0C  1219               	bcf	25,4	;volatile
  7116                           
  7117                           ;main.c: 371:     PIR3bits.RC1IF = 0;
  7118  0C0D  128F               	bcf	15,5	;volatile
  7119                           
  7120                           ;main.c: 372:     PIE3bits.RC1IE = 0;
  7121  0C0E  1299               	bcf	25,5	;volatile
  7122                           
  7123                           ;main.c: 375:     TX1STAbits.SYNC = 0;
  7124  0C0F  0142               	movlb	2	; select bank2
  7125  0C10  121E               	bcf	30,4	;volatile
  7126                           
  7127                           ;main.c: 376:     TX1STAbits.BRGH = 1;
  7128  0C11  151E               	bsf	30,2	;volatile
  7129                           
  7130                           ;main.c: 379:     RC1STAbits.CREN = 1;
  7131  0C12  161D               	bsf	29,4	;volatile
  7132                           
  7133                           ;main.c: 382:     BAUD1CONbits.BRG16 = 1;
  7134  0C13  159F               	bsf	31,3	;volatile
  7135  0C14                     l1861:
  7136                           
  7137                           ;main.c: 383:     SP1BRGH = 0x00;
  7138  0C14  019C               	clrf	28	;volatile
  7139  0C15                     l1863:
  7140                           
  7141                           ;main.c: 384:     SP1BRGL = 0x44;
  7142  0C15  3044               	movlw	68
  7143  0C16  009B               	movwf	27	;volatile
  7144  0C17                     l1865:
  7145                           
  7146                           ;main.c: 387:     RC1STAbits.SPEN = 1;
  7147  0C17  179D               	bsf	29,7	;volatile
  7148  0C18                     l1867:
  7149                           
  7150                           ;main.c: 388:     TX1STAbits.TXEN = 1;
  7151  0C18  169E               	bsf	30,5	;volatile
  7152  0C19                     l130:
  7153  0C19  0008               	return
  7154  0C1A                     __end_of_UartConfig:
  7155                           
  7156                           	psect	text26
  7157  0BCF                     __ptext26:	
  7158 ;; *************** function _StopwatchConfig *****************
  7159 ;; Defined at:
  7160 ;;		line 432 in file "main.c"
  7161 ;; Parameters:    Size  Location     Type
  7162 ;;		None
  7163 ;; Auto vars:     Size  Location     Type
  7164 ;;		None
  7165 ;; Return value:  Size  Location     Type
  7166 ;;                  1    wreg      void 
  7167 ;; Registers used:
  7168 ;;		wreg, status,2, status,0
  7169 ;; Tracked objects:
  7170 ;;		On entry : 0/0
  7171 ;;		On exit  : 0/0
  7172 ;;		Unchanged: 0/0
  7173 ;; Data sizes:     COMMON   BANK0   BANK1   BANK2   BANK3   BANK4   BANK5   BANK6   BANK7   BANK8   BANK9  BANK10  BANK1
      +1  BANK12  BANK13  BANK14  BANK15  BANK16  BANK17  BANK18  BANK19  BANK20  BANK21  BANK22  BANK23  BANK24  BANK25  BANK2
      +6  BANK27  BANK28  BANK29  BANK30  BANK31  BANK32  BANK33  BANK34  BANK35  BANK36  BANK37  BANK38  BANK39  BANK40  BANK4
      +1  BANK42  BANK43  BANK44  BANK45  BANK46  BANK47  BANK48  BANK49  BANK50
  7174 ;;      Params:         0       0       0       0       0       0       0       0       0       0       0       0       
      +0       0       0       0       0       0       0       0       0       0       0       0       0       0       0       
      +0       0       0       0       0       0       0       0       0       0       0       0       0       0       0       
      +0       0       0       0       0       0       0       0       0       0
  7175 ;;      Locals:         0       0       0       0       0       0       0       0       0       0       0       0       
      +0       0       0       0       0       0       0       0       0       0       0       0       0       0       0       
      +0       0       0       0       0       0       0       0       0       0       0       0       0       0       0       
      +0       0       0       0       0       0       0       0       0       0
  7176 ;;      Temps:          0       0       0       0       0       0       0       0       0       0       0       0       
      +0       0       0       0       0       0       0       0       0       0       0       0       0       0       0       
      +0       0       0       0       0       0       0       0       0       0       0       0       0       0       0       
      +0       0       0       0       0       0       0       0       0       0
  7177 ;;      Totals:         0       0       0       0       0       0       0       0       0       0       0       0       
      +0       0       0       0       0       0       0       0       0       0       0       0       0       0       0       
      +0       0       0       0       0       0       0       0       0       0       0       0       0       0       0       
      +0       0       0       0       0       0       0       0       0       0
  7178 ;;Total ram usage:        0 bytes
  7179 ;; Hardware stack levels used:    1
  7180 ;; This function calls:
  7181 ;;		Nothing
  7182 ;; This function is called by:
  7183 ;;		_Initiallize
  7184 ;; This function uses a non-reentrant model
  7185 ;;
  7186                           
  7187                           
  7188                           ;psect for function _StopwatchConfig
  7189  0BCF                     _StopwatchConfig:
  7190  0BCF                     l1869:	
  7191                           ;incstack = 0
  7192                           ; Regs used in _StopwatchConfig: [wreg+status,2+status,0]
  7193                           
  7194                           
  7195                           ;main.c: 442:     T1CONbits.ON = 0;
  7196  0BCF  0144               	movlb	4	; select bank4
  7197  0BD0  100E               	bcf	14,0	;volatile
  7198  0BD1                     l1871:
  7199                           
  7200                           ;main.c: 443:     T1CLKbits.CS = 1;
  7201  0BD1  0811               	movf	17,w	;volatile
  7202  0BD2  39F0               	andlw	-16
  7203  0BD3  3801               	iorlw	1
  7204  0BD4  0091               	movwf	17	;volatile
  7205  0BD5                     l139:
  7206  0BD5  0008               	return
  7207  0BD6                     __end_of_StopwatchConfig:
  7208                           
  7209                           	psect	text27
  7210  0005                     __ptext27:	
  7211 ;; *************** function _SetPerformanceMode *****************
  7212 ;; Defined at:
  7213 ;;		line 197 in file "main.c"
  7214 ;; Parameters:    Size  Location     Type
  7215 ;;		None
  7216 ;; Auto vars:     Size  Location     Type
  7217 ;;		None
  7218 ;; Return value:  Size  Location     Type
  7219 ;;                  1    wreg      void 
  7220 ;; Registers used:
  7221 ;;		None
  7222 ;; Tracked objects:
  7223 ;;		On entry : 0/0
  7224 ;;		On exit  : 0/0
  7225 ;;		Unchanged: 0/0
  7226 ;; Data sizes:     COMMON   BANK0   BANK1   BANK2   BANK3   BANK4   BANK5   BANK6   BANK7   BANK8   BANK9  BANK10  BANK1
      +1  BANK12  BANK13  BANK14  BANK15  BANK16  BANK17  BANK18  BANK19  BANK20  BANK21  BANK22  BANK23  BANK24  BANK25  BANK2
      +6  BANK27  BANK28  BANK29  BANK30  BANK31  BANK32  BANK33  BANK34  BANK35  BANK36  BANK37  BANK38  BANK39  BANK40  BANK4
      +1  BANK42  BANK43  BANK44  BANK45  BANK46  BANK47  BANK48  BANK49  BANK50
  7227 ;;      Params:         0       0       0       0       0       0       0       0       0       0       0       0       
      +0       0       0       0       0       0       0       0       0       0       0       0       0       0       0       
      +0       0       0       0       0       0       0       0       0       0       0       0       0       0       0       
      +0       0       0       0       0       0       0       0       0       0
  7228 ;;      Locals:         0       0       0       0       0       0       0       0       0       0       0       0       
      +0       0       0       0       0       0       0       0       0       0       0       0       0       0       0       
      +0       0       0       0       0       0       0       0       0       0       0       0       0       0       0       
      +0       0       0       0       0       0       0       0       0       0
  7229 ;;      Temps:          0       0       0       0       0       0       0       0       0       0       0       0       
      +0       0       0       0       0       0       0       0       0       0       0       0       0       0       0       
      +0       0       0       0       0       0       0       0       0       0       0       0       0       0       0       
      +0       0       0       0       0       0       0       0       0       0
  7230 ;;      Totals:         0       0       0       0       0       0       0       0       0       0       0       0       
      +0       0       0       0       0       0       0       0       0       0       0       0       0       0       0       
      +0       0       0       0       0       0       0       0       0       0       0       0       0       0       0       
      +0       0       0       0       0       0       0       0       0       0
  7231 ;;Total ram usage:        0 bytes
  7232 ;; Hardware stack levels used:    1
  7233 ;; This function calls:
  7234 ;;		Nothing
  7235 ;; This function is called by:
  7236 ;;		_Initiallize
  7237 ;; This function uses a non-reentrant model
  7238 ;;
  7239                           
  7240                           
  7241                           ;psect for function _SetPerformanceMode
  7242  0005                     _SetPerformanceMode:
  7243  0005                     l124:	
  7244                           ;incstack = 0
  7245                           ; Regs used in _SetPerformanceMode: []
  7246                           
  7247  0005  0008               	return
  7248  0006                     __end_of_SetPerformanceMode:
  7249                           
  7250                           	psect	text28
  7251  0C2D                     __ptext28:	
  7252 ;; *************** function _PinConfig *****************
  7253 ;; Defined at:
  7254 ;;		line 283 in file "main.c"
  7255 ;; Parameters:    Size  Location     Type
  7256 ;;		None
  7257 ;; Auto vars:     Size  Location     Type
  7258 ;;		None
  7259 ;; Return value:  Size  Location     Type
  7260 ;;                  1    wreg      void 
  7261 ;; Registers used:
  7262 ;;		wreg
  7263 ;; Tracked objects:
  7264 ;;		On entry : 0/0
  7265 ;;		On exit  : 0/0
  7266 ;;		Unchanged: 0/0
  7267 ;; Data sizes:     COMMON   BANK0   BANK1   BANK2   BANK3   BANK4   BANK5   BANK6   BANK7   BANK8   BANK9  BANK10  BANK1
      +1  BANK12  BANK13  BANK14  BANK15  BANK16  BANK17  BANK18  BANK19  BANK20  BANK21  BANK22  BANK23  BANK24  BANK25  BANK2
      +6  BANK27  BANK28  BANK29  BANK30  BANK31  BANK32  BANK33  BANK34  BANK35  BANK36  BANK37  BANK38  BANK39  BANK40  BANK4
      +1  BANK42  BANK43  BANK44  BANK45  BANK46  BANK47  BANK48  BANK49  BANK50
  7268 ;;      Params:         0       0       0       0       0       0       0       0       0       0       0       0       
      +0       0       0       0       0       0       0       0       0       0       0       0       0       0       0       
      +0       0       0       0       0       0       0       0       0       0       0       0       0       0       0       
      +0       0       0       0       0       0       0       0       0       0
  7269 ;;      Locals:         0       0       0       0       0       0       0       0       0       0       0       0       
      +0       0       0       0       0       0       0       0       0       0       0       0       0       0       0       
      +0       0       0       0       0       0       0       0       0       0       0       0       0       0       0       
      +0       0       0       0       0       0       0       0       0       0
  7270 ;;      Temps:          0       0       0       0       0       0       0       0       0       0       0       0       
      +0       0       0       0       0       0       0       0       0       0       0       0       0       0       0       
      +0       0       0       0       0       0       0       0       0       0       0       0       0       0       0       
      +0       0       0       0       0       0       0       0       0       0
  7271 ;;      Totals:         0       0       0       0       0       0       0       0       0       0       0       0       
      +0       0       0       0       0       0       0       0       0       0       0       0       0       0       0       
      +0       0       0       0       0       0       0       0       0       0       0       0       0       0       0       
      +0       0       0       0       0       0       0       0       0       0
  7272 ;;Total ram usage:        0 bytes
  7273 ;; Hardware stack levels used:    1
  7274 ;; This function calls:
  7275 ;;		Nothing
  7276 ;; This function is called by:
  7277 ;;		_Initiallize
  7278 ;; This function uses a non-reentrant model
  7279 ;;
  7280                           
  7281                           
  7282                           ;psect for function _PinConfig
  7283  0C2D                     _PinConfig:
  7284  0C2D                     l1851:	
  7285                           ;incstack = 0
  7286                           ; Regs used in _PinConfig: [wreg]
  7287                           
  7288                           
  7289                           ;main.c: 288:     TRISCbits.TRISC7 = 0;
  7290  0C2D  0140               	movlb	0	; select bank0
  7291  0C2E  1394               	bcf	20,7	;volatile
  7292                           
  7293                           ;main.c: 289:     TRISCbits.TRISC6 = 1;
  7294  0C2F  1714               	bsf	20,6	;volatile
  7295  0C30                     l1853:
  7296                           
  7297                           ;main.c: 297:     PPSLOCK = 0x55;
  7298  0C30  3055               	movlw	85
  7299  0C31  017D               	movlb	61	; select bank61
  7300  0C32  008F               	movwf	15	;volsfr
  7301                           
  7302                           ;main.c: 298:     PPSLOCK = 0xAA;
  7303  0C33  30AA               	movlw	170
  7304  0C34  008F               	movwf	15	;volsfr
  7305  0C35                     l1855:
  7306                           
  7307                           ;main.c: 299:     PPSLOCKbits.PPSLOCKED = 0;
  7308  0C35  100F               	bcf	15,0	;volsfr
  7309                           
  7310                           ;main.c: 303:     RC7PPS = 0x0D;
  7311  0C36  300D               	movlw	13
  7312  0C37  017E               	movlb	62	; select bank62
  7313  0C38  00A7               	movwf	39	;volatile
  7314                           
  7315                           ;main.c: 306:     RX1PPS = 0x16;
  7316  0C39  3016               	movlw	22
  7317  0C3A  017D               	movlb	61	; select bank61
  7318  0C3B  00CB               	movwf	75	;volatile
  7319                           
  7320                           ;main.c: 310:     PPSLOCK = 0x55;
  7321  0C3C  3055               	movlw	85
  7322  0C3D  008F               	movwf	15	;volsfr
  7323                           
  7324                           ;main.c: 311:     PPSLOCK = 0xAA;
  7325  0C3E  30AA               	movlw	170
  7326  0C3F  008F               	movwf	15	;volsfr
  7327  0C40                     l1857:
  7328                           
  7329                           ;main.c: 312:     PPSLOCKbits.PPSLOCKED = 1;
  7330  0C40  140F               	bsf	15,0	;volsfr
  7331  0C41                     l127:
  7332  0C41  0008               	return
  7333  0C42                     __end_of_PinConfig:
  7334  007E                     btemp	set	126	;btemp
  7335  007E                     wtemp0	set	126
  7336                           
  7337                           	psect	config
  7338                           
  7339                           ;Config register CONFIG1 @ 0x8007
  7340                           ;	External Oscillator mode selection bits
  7341                           ;	FEXTOSC = OFF, Oscillator not enabled
  7342                           ;	Power-up default value for COSC bits
  7343                           ;	RSTOSC = HFINT32, HFINTOSC with OSCFRQ= 32 MHz and CDIV = 1:1
  7344                           ;	Clock Out Enable bit
  7345                           ;	CLKOUTEN = ON, CLKOUT function is enabled; FOSC/4 clock appears at OSC2
  7346                           ;	VBAT Pin Enable bit
  7347                           ;	VBATEN = OFF, VBAT functionality is disabled
  7348                           ;	LCD Charge Pump Mode bit
  7349                           ;	LCDPEN = OFF, LCD Charge Pump is disabled.
  7350                           ;	Clock Switch Enable bit
  7351                           ;	CSWEN = ON, Writing to NOSC and NDIV is allowed
  7352                           ;	Fail-Safe Clock Monitor Enable bit
  7353                           ;	FCMEN = ON, FSCM timer enabled
  7354  8007                     	org	32775
  7355  8007  3A88               	dw	14984
  7356                           
  7357                           ;Config register CONFIG2 @ 0x8008
  7358                           ;	Master Clear Enable bit
  7359                           ;	MCLRE = ON, MCLR pin is Master Clear function
  7360                           ;	Power-up Timer selection bits
  7361                           ;	PWRTE = OFF, PWRT disable
  7362                           ;	Low-Power BOR enable bit
  7363                           ;	LPBOREN = OFF, ULPBOR disabled
  7364                           ;	Brown-out reset enable bits
  7365                           ;	BOREN = ON, Brown-out Reset Enabled, SBOREN bit is ignored
  7366                           ;	Brown-out Reset Voltage Selection
  7367                           ;	BORV = LO, Brown-out Reset Voltage (VBOR) set to 1.9V on LF, and 2.45V on F Devices
  7368                           ;	Zero-cross detect disable
  7369                           ;	ZCD = OFF, Zero-cross detect circuit is disabled at POR.
  7370                           ;	Peripheral Pin Select one-way control
  7371                           ;	PPS1WAY = OFF, The PPSLOCK bit can be set and cleared repeatedly by software
  7372                           ;	Stack Overflow/Underflow Reset Enable bit
  7373                           ;	STVREN = ON, Stack Overflow or Underflow will cause a reset
  7374  8008                     	org	32776
  7375  8008  37FF               	dw	14335
  7376                           
  7377                           ;Config register CONFIG3 @ 0x8009
  7378                           ;	WDT Period Select bits
  7379                           ;	WDTCPS = WDTCPS_31, Divider ratio 1:65536; software control of WDTPS
  7380                           ;	WDT operating mode
  7381                           ;	WDTE = OFF, WDT Disabled, SWDTEN is ignored
  7382                           ;	WDT Window Select bits
  7383                           ;	WDTCWS = WDTCWS_7, window always open (100%); software control; keyed access not requi
      +                          red
  7384                           ;	WDT input clock selector
  7385                           ;	WDTCCS = SC, Software Control
  7386  8009                     	org	32777
  7387  8009  3F9F               	dw	16287
  7388                           
  7389                           ;Config register CONFIG4 @ 0x800A
  7390                           ;	Boot Block Size Selection bits
  7391                           ;	BBSIZE = 512, Boot Block Size (Words) 512
  7392                           ;	Boot Block Enable bit
  7393                           ;	BBEN = OFF, Boot Block disabled
  7394                           ;	SAF Enable bit
  7395                           ;	SAFEN = OFF, SAF disabled
  7396                           ;	Application Block Write Protection bit
  7397                           ;	WRTAPP = OFF, Application Block NOT write-protected
  7398                           ;	Boot Block Write Protection bit
  7399                           ;	WRTB = OFF, Boot Block NOT write-protected
  7400                           ;	Configuration Register Write Protection bit
  7401                           ;	WRTC = OFF, Configuration Words NOT write-protected
  7402                           ;	Data EEPROM Write Protection bit
  7403                           ;	WRTD = OFF, Data EEPROM NOT write-protected
  7404                           ;	Storage Area Flash Write Protection bit
  7405                           ;	WRTSAF = OFF, SAF NOT write-protected
  7406                           ;	Low Voltage Programming Enable bit
  7407                           ;	LVP = ON, Low Voltage programming enabled. MCLR/Vpp pin function is MCLR.
  7408  800A                     	org	32778
  7409  800A  3FFF               	dw	16383
  7410                           
  7411                           ;Config register CONFIG5 @ 0x800B
  7412                           ;	UserNVM Program memory code protection bit
  7413                           ;	CP = OFF, UserNVM code protection disabled
  7414  800B                     	org	32779
  7415  800B  3FFF               	dw	16383

Data Sizes:
    Strings     280
    Constant    47
    Data        7
    BSS         101
    Persistent  32
    Stack       0

Auto Spaces:
    Space          Size  Autos    Used
    COMMON           14     14      14
    BANK0            80     80      80
    BANK1            80      4      80
    BANK2            80      0      32
    BANK3            80      0       0
    BANK4            80      0       0
    BANK5            80      0       0
    BANK6            80      0       0
    BANK7            80      0       0
    BANK8            80      0       0
    BANK9            80      0       0
    BANK10           80      0       0
    BANK11           80      0       0
    BANK12           80      0       0
    BANK13           80      0       0
    BANK14           80      0       0
    BANK15           80      0       0
    BANK16           80      0       0
    BANK17           80      0       0
    BANK18           80      0       0
    BANK19           80      0       0
    BANK20           80      0       0
    BANK21           80      0       0
    BANK22           80      0       0
    BANK23           80      0       0
    BANK24           80      0       0
    BANK25           80      0       0
    BANK26           80      0       0
    BANK27           80      0       0
    BANK28           80      0       0
    BANK29           80      0       0
    BANK30           80      0       0
    BANK31           80      0       0
    BANK32           80      0       0
    BANK33           80      0       0
    BANK34           80      0       0
    BANK35           80      0       0
    BANK36           80      0       0
    BANK37           80      0       0
    BANK38           80      0       0
    BANK39           80      0       0
    BANK40           80      0       0
    BANK41           80      0       0
    BANK42           80      0       0
    BANK43           80      0       0
    BANK44           80      0       0
    BANK45           80      0       0
    BANK46           80      0       0
    BANK47           80      0       0
    BANK48           80      0       0
    BANK49           80      0       0
    BANK50           80      0       0

Pointer List with Targets:

    strlen@s	PTR const unsigned char  size(2) Largest target is 32
		 -> stoa@nuls(BANK0[7]), dbuf(BANK2[32]), ?_printf(BANK0[2]), CompileTime(CODE[9]), 
		 -> CompileDate(CODE[12]), Version(CODE[6]), Project(CODE[20]), 

    strlen@a	PTR const unsigned char  size(2) Largest target is 32
		 -> stoa@nuls(BANK0[7]), dbuf(BANK2[32]), ?_printf(BANK0[2]), CompileTime(CODE[9]), 
		 -> CompileDate(CODE[12]), Version(CODE[6]), Project(CODE[20]), 

    fputs@s	PTR const unsigned char  size(1) Largest target is 32
		 -> dbuf(BANK2[32]), 

    fputs@fp	PTR struct _IO_FILE size(1) Largest target is 0
		 -> NULL(NULL[0]), 

    S893_IO_FILE$buffer	PTR unsigned char  size(1) Largest target is 0

    fputc@fp.buffer	PTR unsigned char  size(1) Largest target is 0

    fputc@fp	PTR struct _IO_FILE size(1) Largest target is 0
		 -> NULL(NULL[0]), 

    vfprintf@ap	PTR PTR void  size(1) Largest target is 1
		 -> printf@ap(BANK0[1]), 

    vfprintf@fp	PTR struct _IO_FILE size(1) Largest target is 0
		 -> NULL(NULL[0]), 

    vfprintf@fmt	PTR const unsigned char  size(2) Largest target is 67
		 -> STR_12(CODE[19]), STR_11(CODE[17]), STR_10(CODE[14]), STR_9(CODE[14]), 
		 -> STR_8(CODE[15]), STR_7(CODE[26]), STR_6(CODE[24]), STR_5(CODE[21]), 
		 -> STR_4(CODE[21]), STR_3(CODE[21]), STR_2(CODE[21]), STR_1(CODE[67]), 

    vfprintf@cfmt	PTR unsigned char  size(2) Largest target is 67
		 -> STR_12(CODE[19]), STR_11(CODE[17]), STR_10(CODE[14]), STR_9(CODE[14]), 
		 -> STR_8(CODE[15]), STR_7(CODE[26]), STR_6(CODE[24]), STR_5(CODE[21]), 
		 -> STR_4(CODE[21]), STR_3(CODE[21]), STR_2(CODE[21]), STR_1(CODE[67]), 

    vfpfcnvrt@cp	PTR unsigned char  size(2) Largest target is 20
		 -> ?_printf(BANK0[2]), CompileTime(CODE[9]), CompileDate(CODE[12]), Version(CODE[6]), 
		 -> Project(CODE[20]), 

    vfpfcnvrt@fp	PTR struct _IO_FILE size(1) Largest target is 0
		 -> NULL(NULL[0]), 

    vfpfcnvrt@ap	PTR PTR void  size(1) Largest target is 1
		 -> printf@ap(BANK0[1]), 

    vfpfcnvrt@fmt	PTR PTR unsigned char  size(1) Largest target is 2
		 -> vfprintf@cfmt(BANK0[2]), 

    stoa@fp	PTR struct _IO_FILE size(1) Largest target is 0
		 -> NULL(NULL[0]), 

    stoa@s	PTR unsigned char  size(2) Largest target is 20
		 -> ?_printf(BANK0[2]), CompileTime(CODE[9]), CompileDate(CODE[12]), Version(CODE[6]), 
		 -> Project(CODE[20]), 

    stoa@cp	PTR unsigned char  size(2) Largest target is 20
		 -> stoa@nuls(BANK0[7]), ?_printf(BANK0[2]), CompileTime(CODE[9]), CompileDate(CODE[12]), 
		 -> Version(CODE[6]), Project(CODE[20]), 

    dtoa@fp	PTR struct _IO_FILE size(1) Largest target is 0
		 -> NULL(NULL[0]), 

    pad@fp	PTR struct _IO_FILE size(1) Largest target is 0
		 -> NULL(NULL[0]), 

    pad@buf	PTR unsigned char  size(1) Largest target is 32
		 -> dbuf(BANK2[32]), 

    printf@fmt	PTR const unsigned char  size(2) Largest target is 67
		 -> STR_12(CODE[19]), STR_11(CODE[17]), STR_10(CODE[14]), STR_9(CODE[14]), 
		 -> STR_8(CODE[15]), STR_7(CODE[26]), STR_6(CODE[24]), STR_5(CODE[21]), 
		 -> STR_4(CODE[21]), STR_3(CODE[21]), STR_2(CODE[21]), STR_1(CODE[67]), 

    printf@ap	PTR void [1] size(1) Largest target is 2
		 -> ?_printf(BANK0[2]), 


Critical Paths under _main in COMMON

    _main->___flmul
    _mul8->___wmul
    _mul32->___lmul
    ___flmul->__Umul8_16
    _vfpfcnvrt->_stoa
    _stoa->_fputc
    _dtoa->_pad
    _pad->_fputs
    _fputs->_fputc
    _fputc->_putch
    _abs->___aomod

Critical Paths under _main in BANK0

    _main->_printf
    _Initiallize->_printf
    _printf->_vfprintf
    _vfprintf->_vfpfcnvrt
    _vfpfcnvrt->_dtoa
    _dtoa->___aodiv
    _dtoa->___aomod
    _pad->_fputs
    _abs->___aomod

Critical Paths under _main in BANK1

    None.

Critical Paths under _main in BANK2

    None.

Critical Paths under _main in BANK3

    None.

Critical Paths under _main in BANK4

    None.

Critical Paths under _main in BANK5

    None.

Critical Paths under _main in BANK6

    None.

Critical Paths under _main in BANK7

    None.

Critical Paths under _main in BANK8

    None.

Critical Paths under _main in BANK9

    None.

Critical Paths under _main in BANK10

    None.

Critical Paths under _main in BANK11

    None.

Critical Paths under _main in BANK12

    None.

Critical Paths under _main in BANK13

    None.

Critical Paths under _main in BANK14

    None.

Critical Paths under _main in BANK15

    None.

Critical Paths under _main in BANK16

    None.

Critical Paths under _main in BANK17

    None.

Critical Paths under _main in BANK18

    None.

Critical Paths under _main in BANK19

    None.

Critical Paths under _main in BANK20

    None.

Critical Paths under _main in BANK21

    None.

Critical Paths under _main in BANK22

    None.

Critical Paths under _main in BANK23

    None.

Critical Paths under _main in BANK24

    None.

Critical Paths under _main in BANK25

    None.

Critical Paths under _main in BANK26

    None.

Critical Paths under _main in BANK27

    None.

Critical Paths under _main in BANK28

    None.

Critical Paths under _main in BANK29

    None.

Critical Paths under _main in BANK30

    None.

Critical Paths under _main in BANK31

    None.

Critical Paths under _main in BANK32

    None.

Critical Paths under _main in BANK33

    None.

Critical Paths under _main in BANK34

    None.

Critical Paths under _main in BANK35

    None.

Critical Paths under _main in BANK36

    None.

Critical Paths under _main in BANK37

    None.

Critical Paths under _main in BANK38

    None.

Critical Paths under _main in BANK39

    None.

Critical Paths under _main in BANK40

    None.

Critical Paths under _main in BANK41

    None.

Critical Paths under _main in BANK42

    None.

Critical Paths under _main in BANK43

    None.

Critical Paths under _main in BANK44

    None.

Critical Paths under _main in BANK45

    None.

Critical Paths under _main in BANK46

    None.

Critical Paths under _main in BANK47

    None.

Critical Paths under _main in BANK48

    None.

Critical Paths under _main in BANK49

    None.

Critical Paths under _main in BANK50

    None.

Call Graph Tables:

 ---------------------------------------------------------------------------------
 (Depth) Function   	        Calls       Base Space   Used Autos Params    Refs
 ---------------------------------------------------------------------------------
 (0) _main                                                 4     4      0   24310
                                              0 BANK1      4     4      0
                        _Initiallize
                      _StopwatchRead
                   _StopwatchRestart
                            ___flmul
                              _mul32
                               _mul8
                             _printf
                              _sum32
                               _sum8
 ---------------------------------------------------------------------------------
 (1) _sum8                                                 2     1      1     120
                                              0 COMMON     2     1      1
 ---------------------------------------------------------------------------------
 (1) _sum32                                               12     4      8     196
                                              0 COMMON    12     4      8
 ---------------------------------------------------------------------------------
 (1) _mul8                                                 4     1      3     364
                                              6 COMMON     4     1      3
                             ___wmul
 ---------------------------------------------------------------------------------
 (2) ___wmul                                               6     2      4     244
                                              0 COMMON     6     2      4
 ---------------------------------------------------------------------------------
 (1) _mul32                                                8     0      8     440
                                              0 BANK0      8     0      8
                             ___lmul
 ---------------------------------------------------------------------------------
 (2) ___lmul                                              12     4      8     244
                                              0 COMMON    12     4      8
 ---------------------------------------------------------------------------------
 (1) ___flmul                                             26    18      8    2569
                                              9 COMMON     5     5      0
                                              0 BANK0     21    13      8
                          __Umul8_16
 ---------------------------------------------------------------------------------
 (2) __Umul8_16                                            9     7      2     799
                                              0 COMMON     9     7      2
 ---------------------------------------------------------------------------------
 (1) _StopwatchRestart                                     0     0      0       0
 ---------------------------------------------------------------------------------
 (1) _StopwatchRead                                        5     3      2      47
                                              0 COMMON     5     3      2
 ---------------------------------------------------------------------------------
 (1) _Initiallize                                          0     0      0   10264
                          _PinConfig
                 _SetPerformanceMode
                    _StopwatchConfig
                         _UartConfig
                             _printf
 ---------------------------------------------------------------------------------
 (1) _printf                                               8     4      4   10264
                                             72 BANK0      8     4      4
                           _vfprintf
 ---------------------------------------------------------------------------------
 (2) _vfprintf                                             8     5      3    9296
                                             64 BANK0      8     5      3
                          _vfpfcnvrt
 ---------------------------------------------------------------------------------
 (3) _vfpfcnvrt                                           40    38      2    8965
                                             46 BANK0     18    16      2
                               _dtoa
                              _fputc
                               _stoa
 ---------------------------------------------------------------------------------
 (4) _stoa                                                23    21      2    2015
                                              9 COMMON     5     3      2
                                              0 BANK0     18    18      0
                              _fputc
                             _strlen
 ---------------------------------------------------------------------------------
 (4) _dtoa                                                30    22      8    5060
                                             16 BANK0     30    22      8
                            ___aodiv
                            ___aomod
                                _abs
                                _pad
 ---------------------------------------------------------------------------------
 (5) _pad                                                  9     6      3    3437
                                             13 COMMON     1     1      0
                                              4 BANK0      8     5      3
                              _fputc
                              _fputs
                             _strlen
 ---------------------------------------------------------------------------------
 (5) _strlen                                               5     3      2     182
                                              0 COMMON     5     3      2
 ---------------------------------------------------------------------------------
 (6) _fputs                                                8     7      1    1561
                                              9 COMMON     4     3      1
                                              0 BANK0      4     4      0
                              _fputc
 ---------------------------------------------------------------------------------
 (5) _fputc                                                8     5      3    1246
                                              1 COMMON     8     5      3
                              _putch
 ---------------------------------------------------------------------------------
 (6) _putch                                                1     1      0      22
                                              0 COMMON     1     1      0
 ---------------------------------------------------------------------------------
 (5) _abs                                                  4     2      2     142
                                              3 COMMON     4     2      2
                            ___aomod (ARG)
 ---------------------------------------------------------------------------------
 (5) ___aomod                                             19     3     16     448
                                              0 COMMON     3     3      0
                                              0 BANK0     16     0     16
 ---------------------------------------------------------------------------------
 (5) ___aodiv                                             27    11     16     452
                                              0 COMMON    11    11      0
                                              0 BANK0     16     0     16
 ---------------------------------------------------------------------------------
 (2) _UartConfig                                           0     0      0       0
 ---------------------------------------------------------------------------------
 (2) _StopwatchConfig                                      0     0      0       0
 ---------------------------------------------------------------------------------
 (2) _SetPerformanceMode                                   0     0      0       0
 ---------------------------------------------------------------------------------
 (2) _PinConfig                                            0     0      0       0
 ---------------------------------------------------------------------------------
 Estimated maximum stack depth 6
 ---------------------------------------------------------------------------------

 Call Graph Graphs:

 _main (ROOT)
   _Initiallize
     _PinConfig
     _SetPerformanceMode
     _StopwatchConfig
     _UartConfig
     _printf
       _vfprintf
         _vfpfcnvrt
           _dtoa
             ___aodiv
             ___aomod
             _abs
               ___aomod (ARG)
             _pad
               _fputc
                 _putch
               _fputs
                 _fputc
                   _putch
               _strlen
           _fputc
             _putch
           _stoa
             _fputc
               _putch
             _strlen
   _StopwatchRead
   _StopwatchRestart
   ___flmul
     __Umul8_16
   _mul32
     ___lmul
   _mul8
     ___wmul
   _printf
     _vfprintf
       _vfpfcnvrt
         _dtoa
           ___aodiv
           ___aomod
           _abs
             ___aomod (ARG)
           _pad
             _fputc
               _putch
             _fputs
               _fputc
                 _putch
             _strlen
         _fputc
           _putch
         _stoa
           _fputc
             _putch
           _strlen
   _sum32
   _sum8

 Address spaces:
Name               Size   Autos  Total    Cost      Usage
BIGRAM             FF0      0       0       0        0.0%
EEDATA             100      0       0       0        0.0%
NULL                 0      0       0       0        0.0%
CODE                 0      0       0       0        0.0%
BITCOMMON            E      0       0       1        0.0%
BITSFR0              0      0       0       1        0.0%
SFR0                 0      0       0       1        0.0%
COMMON               E      E       E       2      100.0%
BITSFR1              0      0       0       2        0.0%
SFR1                 0      0       0       2        0.0%
BITSFR2              0      0       0       3        0.0%
SFR2                 0      0       0       3        0.0%
STACK                0      0       0       3        0.0%
BITBANK0            50      0       0       4        0.0%
BITSFR3              0      0       0       4        0.0%
SFR3                 0      0       0       4        0.0%
BANK0               50     50      50       5      100.0%
BITSFR4              0      0       0       5        0.0%
SFR4                 0      0       0       5        0.0%
BITBANK1            50      0       0       6        0.0%
BITSFR5              0      0       0       6        0.0%
SFR5                 0      0       0       6        0.0%
BANK1               50      4      50       7      100.0%
BITSFR6              0      0       0       7        0.0%
SFR6                 0      0       0       7        0.0%
BITBANK2            50      0       0       8        0.0%
BITSFR7              0      0       0       8        0.0%
SFR7                 0      0       0       8        0.0%
BANK2               50      0      20       9       40.0%
BITSFR8              0      0       0       9        0.0%
SFR8                 0      0       0       9        0.0%
BITBANK3            50      0       0      10        0.0%
BITSFR9              0      0       0      10        0.0%
SFR9                 0      0       0      10        0.0%
BANK3               50      0       0      11        0.0%
BITSFR10             0      0       0      11        0.0%
SFR10                0      0       0      11        0.0%
BITBANK4            50      0       0      12        0.0%
BITSFR11             0      0       0      12        0.0%
SFR11                0      0       0      12        0.0%
BANK4               50      0       0      13        0.0%
BITSFR12             0      0       0      13        0.0%
SFR12                0      0       0      13        0.0%
BITBANK5            50      0       0      14        0.0%
BITSFR13             0      0       0      14        0.0%
SFR13                0      0       0      14        0.0%
BANK5               50      0       0      15        0.0%
BITSFR14             0      0       0      15        0.0%
SFR14                0      0       0      15        0.0%
BITBANK6            50      0       0      16        0.0%
BITSFR15             0      0       0      16        0.0%
SFR15                0      0       0      16        0.0%
BANK6               50      0       0      17        0.0%
BITSFR16             0      0       0      17        0.0%
SFR16                0      0       0      17        0.0%
BITBANK7            50      0       0      18        0.0%
BITSFR17             0      0       0      18        0.0%
SFR17                0      0       0      18        0.0%
BANK7               50      0       0      19        0.0%
BITSFR18             0      0       0      19        0.0%
SFR18                0      0       0      19        0.0%
BITBANK8            50      0       0      20        0.0%
BITSFR19             0      0       0      20        0.0%
SFR19                0      0       0      20        0.0%
BANK8               50      0       0      21        0.0%
BITSFR20             0      0       0      21        0.0%
SFR20                0      0       0      21        0.0%
BITBANK9            50      0       0      22        0.0%
BITSFR21             0      0       0      22        0.0%
SFR21                0      0       0      22        0.0%
BANK9               50      0       0      23        0.0%
BITSFR22             0      0       0      23        0.0%
SFR22                0      0       0      23        0.0%
BITBANK10           50      0       0      24        0.0%
BITSFR23             0      0       0      24        0.0%
SFR23                0      0       0      24        0.0%
BANK10              50      0       0      25        0.0%
BITSFR24             0      0       0      25        0.0%
SFR24                0      0       0      25        0.0%
BITBANK11           50      0       0      26        0.0%
BITSFR25             0      0       0      26        0.0%
SFR25                0      0       0      26        0.0%
BANK11              50      0       0      27        0.0%
BITSFR26             0      0       0      27        0.0%
SFR26                0      0       0      27        0.0%
BITSFR27             0      0       0      28        0.0%
SFR27                0      0       0      28        0.0%
ABS                  0      0      CE      28        0.0%
BITBANK12           50      0       0      29        0.0%
BITSFR28             0      0       0      29        0.0%
SFR28                0      0       0      29        0.0%
BANK12              50      0       0      30        0.0%
BITSFR29             0      0       0      30        0.0%
SFR29                0      0       0      30        0.0%
BITBANK13           50      0       0      31        0.0%
BITSFR30             0      0       0      31        0.0%
SFR30                0      0       0      31        0.0%
BANK13              50      0       0      32        0.0%
BITSFR31             0      0       0      32        0.0%
SFR31                0      0       0      32        0.0%
BITBANK14           50      0       0      33        0.0%
BITSFR32             0      0       0      33        0.0%
SFR32                0      0       0      33        0.0%
BANK14              50      0       0      34        0.0%
BITSFR33             0      0       0      34        0.0%
SFR33                0      0       0      34        0.0%
BITBANK15           50      0       0      35        0.0%
BITSFR34             0      0       0      35        0.0%
SFR34                0      0       0      35        0.0%
BANK15              50      0       0      36        0.0%
BITSFR35             0      0       0      36        0.0%
SFR35                0      0       0      36        0.0%
BITBANK16           50      0       0      37        0.0%
BITSFR36             0      0       0      37        0.0%
SFR36                0      0       0      37        0.0%
BANK16              50      0       0      38        0.0%
BITSFR37             0      0       0      38        0.0%
SFR37                0      0       0      38        0.0%
BITBANK17           50      0       0      39        0.0%
BITSFR38             0      0       0      39        0.0%
SFR38                0      0       0      39        0.0%
BANK17              50      0       0      40        0.0%
BITSFR39             0      0       0      40        0.0%
SFR39                0      0       0      40        0.0%
BITBANK18           50      0       0      41        0.0%
BITSFR40             0      0       0      41        0.0%
SFR40                0      0       0      41        0.0%
BANK18              50      0       0      42        0.0%
BITSFR41             0      0       0      42        0.0%
SFR41                0      0       0      42        0.0%
BITBANK19           50      0       0      43        0.0%
BITSFR42             0      0       0      43        0.0%
SFR42                0      0       0      43        0.0%
BANK19              50      0       0      44        0.0%
BITSFR43             0      0       0      44        0.0%
SFR43                0      0       0      44        0.0%
BITBANK20           50      0       0      45        0.0%
BITSFR44             0      0       0      45        0.0%
SFR44                0      0       0      45        0.0%
BANK20              50      0       0      46        0.0%
BITSFR45             0      0       0      46        0.0%
SFR45                0      0       0      46        0.0%
BITBANK21           50      0       0      47        0.0%
BITSFR46             0      0       0      47        0.0%
SFR46                0      0       0      47        0.0%
BANK21              50      0       0      48        0.0%
BITSFR47             0      0       0      48        0.0%
SFR47                0      0       0      48        0.0%
BITBANK22           50      0       0      49        0.0%
BITSFR48             0      0       0      49        0.0%
SFR48                0      0       0      49        0.0%
BANK22              50      0       0      50        0.0%
BITSFR49             0      0       0      50        0.0%
SFR49                0      0       0      50        0.0%
BITBANK23           50      0       0      51        0.0%
BITSFR50             0      0       0      51        0.0%
SFR50                0      0       0      51        0.0%
BANK23              50      0       0      52        0.0%
BITSFR51             0      0       0      52        0.0%
SFR51                0      0       0      52        0.0%
BITBANK24           50      0       0      53        0.0%
BITSFR52             0      0       0      53        0.0%
SFR52                0      0       0      53        0.0%
BANK24              50      0       0      54        0.0%
BITSFR53             0      0       0      54        0.0%
SFR53                0      0       0      54        0.0%
BITBANK25           50      0       0      55        0.0%
BITSFR54             0      0       0      55        0.0%
SFR54                0      0       0      55        0.0%
BANK25              50      0       0      56        0.0%
BITSFR55             0      0       0      56        0.0%
SFR55                0      0       0      56        0.0%
BITBANK26           50      0       0      57        0.0%
BITSFR56             0      0       0      57        0.0%
SFR56                0      0       0      57        0.0%
BANK26              50      0       0      58        0.0%
BITSFR57             0      0       0      58        0.0%
SFR57                0      0       0      58        0.0%
BITSFR58             0      0       0      59        0.0%
SFR58                0      0       0      59        0.0%
DATA                 0      0      CE      59        0.0%
BITBANK27           50      0       0      60        0.0%
BITSFR59             0      0       0      60        0.0%
SFR59                0      0       0      60        0.0%
BANK27              50      0       0      61        0.0%
BITSFR60             0      0       0      61        0.0%
SFR60                0      0       0      61        0.0%
BITBANK28           50      0       0      62        0.0%
BITSFR61             0      0       0      62        0.0%
SFR61                0      0       0      62        0.0%
BANK28              50      0       0      63        0.0%
BITSFR62             0      0       0      63        0.0%
SFR62                0      0       0      63        0.0%
BITBANK29           50      0       0      64        0.0%
BITSFR63             0      0       0      64        0.0%
SFR63                0      0       0      64        0.0%
BANK29              50      0       0      65        0.0%
BITBANK30           50      0       0      66        0.0%
BANK30              50      0       0      67        0.0%
BITBANK31           50      0       0      68        0.0%
BANK31              50      0       0      69        0.0%
BITBANK32           50      0       0      70        0.0%
BANK32              50      0       0      71        0.0%
BITBANK33           50      0       0      72        0.0%
BANK33              50      0       0      73        0.0%
BITBANK34           50      0       0      74        0.0%
BANK34              50      0       0      75        0.0%
BITBANK35           50      0       0      76        0.0%
BANK35              50      0       0      77        0.0%
BITBANK36           50      0       0      78        0.0%
BANK36              50      0       0      79        0.0%
BITBANK37           50      0       0      80        0.0%
BANK37              50      0       0      81        0.0%
BITBANK38           50      0       0      82        0.0%
BANK38              50      0       0      83        0.0%
BITBANK39           50      0       0      84        0.0%
BANK39              50      0       0      85        0.0%
BITBANK40           50      0       0      86        0.0%
BANK40              50      0       0      87        0.0%
BITBANK41           50      0       0      88        0.0%
BANK41              50      0       0      89        0.0%
BITBANK42           50      0       0      90        0.0%
BANK42              50      0       0      91        0.0%
BITBANK43           50      0       0      92        0.0%
BANK43              50      0       0      93        0.0%
BITBANK44           50      0       0      94        0.0%
BANK44              50      0       0      95        0.0%
BITBANK45           50      0       0      96        0.0%
BANK45              50      0       0      97        0.0%
BITBANK46           50      0       0      98        0.0%
BANK46              50      0       0      99        0.0%
BITBANK47           50      0       0     100        0.0%
BANK47              50      0       0     101        0.0%
BITBANK48           50      0       0     102        0.0%
BANK48              50      0       0     103        0.0%
BITBANK49           50      0       0     104        0.0%
BANK49              50      0       0     105        0.0%
BITBANK50           50      0       0     106        0.0%
BANK50              50      0       0     107        0.0%


Microchip Technology PIC Macro Assembler V2.20 build 20200408173844 
Symbol Table                                                                                   Sat Sep 12 17:05:30 2020

                          _a 00E4                            _b 00E3                            _c 00E2  
                          _d 00C8                            _e 00C4                            _f 00C0  
                          _g 00E0                            _h 00A0                            _i 00BC  
                          _j 00B8                            _k 00B4                            _l 00B0  
                          _m 00AC                            _n 00A8          ___wmul@multiplicand 0072  
        __Umul8_16@word_mpld 0076           _SetPerformanceMode 0005                          l121 0DE2  
                        l130 0C19                          l115 0587                          l124 0005  
                        l116 0587                          l133 0BDE                          l142 0BC2  
                        l127 0C41                          l311 0024                          l151 0C56  
                        l136 0BE5                          l145 0BF4                          l410 0125  
                        l154 0C2C                          l139 0BD5                          l323 0D5E  
                        l148 0BBD                          l157 0CD1                          l309 0010  
                        l422 0FEE                          l423 0FFF                          l409 0114  
                        l712 075C                          l802 0E21                          l706 07E0  
                        l804 0E3E                          l812 02A3                          l901 0C6F  
                        l813 02BB                          l725 0C9C                          l830 03A3  
                        l718 07D4                          l807 027D                          l727 0CAC  
                        l816 032C                          l808 0286                          l860 0233  
                        l772 0C06                          l853 0F15                          l839 0E89  
                        l872 0C89                          l848 0EEA                          l875 0C89  
                        l868 0D2B                          l887 0D9D                          l895 0CFA  
                        l799 0DFF                          _abs 0C70                          _pad 0DE3  
                        wreg 0009                 ___flmul@aexp 002D                 ___flmul@bexp 002E  
               ___flmul@sign 0028                 ___flmul@temp 0033                 ___flmul@prod 002F  
        ?_SetPerformanceMode 0070                 _BAUD1CONbits 011F                         l2011 0633  
                       l2003 05F2                         ?_abs 0073                         l2021 067B  
                       l2013 064D                         l2005 05FF                         l2101 03A7  
                       l2031 06B1                         l2023 0682                         l2015 065A  
                       l2007 060C                         l2111 03B6                         l2041 0712  
                       l2033 06C5                         l2025 068F                         l2017 0667  
                       l2009 0626                         l2121 03E1                         l2113 03C4  
                       l2051 0731                         l2043 0719                         l2035 06D2  
                       l2027 0696                         l2019 066E                         l2131 041C  
                       l2123 03E2                         l2115 03CF                         l2107 03AA  
                       l2061 0745                         l2053 0738                         l2045 0725  
                       l2037 06E6                         l2029 06AA                         l2141 045F  
                       l2133 041D                         l2125 03FC                         l2117 03D2  
                       l2109 03B3                         l2071 076E                         l2063 0759  
                       l2047 072C                         l2055 073C                         l2039 06FB  
                       l2151 047D                         l2143 0460                         l2135 0427  
                       l2127 03FF                         l2119 03D3                         l1601 00A8  
                       l2081 07A5                         l2073 0772                         l2057 0740  
                       l2049 0730                         l2161 04C4                         l2153 047E  
                       l2145 046A                         l2137 042A                         l2129 0400  
                       l1603 00B0                         l1611 00F1                         l2091 07CF  
                       l2083 07B3                         l2075 078A                         l2067 0761  
                       l2059 0741                         l2171 0504                         l2163 04CC  
                       l2155 04B1                         l2147 0472                         l2139 042B  
                       l1613 00F6                         l1605 00D2                         l1621 0F42  
                       l1541 0BDE                         l1701 02FF                         l2093 07D0  
                       l2085 07BC                         l2069 0766                         l2077 078E  
                       l2173 050E                         l2165 04CF                         l2157 04B2  
                       l2149 047A                         l1607 00E2                         l1631 0F83  
                       l1623 0F4C                         l1615 0F16                         l1543 0BE3  
                       l1551 0D6E                         l1703 033A                         l1711 0367  
                       l2095 07D8                         l2087 07BE                         l2079 079B  
                       l2175 0512                         l2167 04D0                         l2159 04BC  
                       l1609 00E3                         l1633 0F87                         l1641 0FCB  
                       l1625 0F6B                         l1617 0F17                         l1553 0D78  
                       l1545 0D5F                         l1561 0CD7                         l1721 0383  
                       l1713 036E                         l1705 0347                         l1801 01B9  
                       l2089 07CB                         l2177 051F                         l2169 0503  
                       l1643 0FD0                         l1635 0F8B                         l1627 0F78  
                       l1619 0F21                         l1555 0D95                         l1547 0D64  
                       l1563 0CE5                         l1571 0C60                         l1651 0DF8  
                       l1723 0387                         l1715 0373                         l1707 0354  
                       l1731 0E4F                         l1811 01EC                         l1803 01C1  
                       l2099 03A4                         l1581 0030                         l1637 0FAD  
                       l1629 0F7B                         l1549 0D69                         l1565 0CEA  
                       l1573 0C69                         l1661 0E26                         l1653 0DFD  
                       l1645 0DE5                         l1717 0378                         l1725 0390  
                       l1709 0362                         l1741 0E71                         l1733 0E53  
                       l1821 020D                         l1813 01F4                         l1805 01CD  
                       l1901 0C8B                         l1591 0088                         l1583 0051  
                       l1639 0FBD                         l1559 0CD4                         l1567 0C57  
                       l1663 0E2F                         l1655 0E02                         l1647 0DEA  
                       l1719 037E                         l1671 0236                         l1751 0E9C  
                       l1743 0E75                         l1735 0E59                         l1815 01FF  
                       l1911 0CA8                         l1903 0C8D                         l1593 0095  
                       l1585 005B                         l1577 0025                         l1569 0C5C  
                       l1657 0E0E                         l1649 0DF3                         l1681 0295  
                       l1673 0246                         l1761 0ED3                         l1753 0EA8  
                       l1745 0E84                         l1737 0E5D                         l1729 0E41  
                       l1809 01DB                         l1825 0210                         l1841 0D23  
                       l1833 0CFD                         l1921 0DA7                         l1905 0C94  
                       l1851 0C2D                         l1595 0098                         l1587 007A  
                       l1579 0026                         l1667 0C70                         l1659 0E13  
                       l1691 02C0                         l1683 029B                         l1675 0259  
                       l1771 0EFC                         l1763 0ED8                         l1755 0EAD  
                       l1747 0E96                         l1739 0E69                         l1827 0229  
                       l1819 0205                         l1835 0D01                         l1931 0DDF  
                       l1923 0DAF                         l1915 0D9E                         l1907 0C98  
                       l1853 0C30                         l1861 0C14                         l1597 00A0  
                       l1589 007E                         l1669 0C7D                         l1693 02C3  
                       l1685 02AB                         l1677 025F                         l1773 0F01  
                       l1765 0EDC                         l1757 0EBC                         l1781 0139  
                       l1837 0D05                         l1845 0BF5                         l1925 0DBB  
                       l1917 0DA1                         l1941 0BE6                         l1933 0BBE  
                       l1909 0CA3                         l1855 0C35                         l1871 0BD1  
                       l1863 0C15                         l1599 00A4                         l1695 02C8  
                       l1687 02B1                         l1679 0282                         l1775 0F10  
                       l1759 0EC0                         l1791 016D                         l1783 0141  
                       l1839 0D19                         l1847 0BFA                         l1927 0DC7  
                       l1919 0DA4                         l1943 0BE8                         l1935 0BC1  
                       l1951 0C42                         l1857 0C40                         l1865 0C17  
                       l1697 02F7                         l1689 02B6                         l1769 0EF0  
                       l1793 0175                         l1785 0146                         l1929 0DD3  
                       l1961 0590                         l1881 001A                         l1873 0006  
                       l1937 0BBB                         l1867 0C18                         l1859 0C07  
                       l1699 02FB                         l1795 018E                         l1787 014A  
                       l1779 0128                         l1971 05A3                         l1963 0594  
                       l1891 0D38                         l1955 0CAD                         l1883 0020  
                       l1875 0008                         l1947 0C1B                         l1869 0BCF  
                       l1789 015C                         l1981 05BE                         l1973 05AB  
                       l1965 0598                         l1893 0D40                         l1877 000C  
                       ?_pad 0024                         l1799 01A8                         l1991 05D5  
                       l1983 05C2                         l1975 05AD                         l1967 0599  
                       l1959 058A                         l1895 0D47                         l1887 0D2C  
                       l1879 0015                         l1993 05D7                         l1985 05C3  
                       l1977 05B5                         l1969 059E                         l1897 0D56  
                       l1889 0D34                         l1995 05DF                         l1987 05C8  
                       l1979 05BA                         l1997 05E4                         l1989 05CD  
                       l1999 05E9                         STR_1 1006                         STR_2 1090  
                       STR_3 10BA                         STR_4 107B                         STR_5 10A5  
                       STR_6 1063                         STR_7 1049                         STR_8 1107  
                       STR_9 1124                         u1100 0030                         u1101 002F  
                       u1030 0BE3                         u1031 0BE2                         u1120 005B  
                       u1040 0D64                         u2000 0780                         u1121 005A  
                       u1041 0D63                         u1210 0F21                         u1050 0D69  
                       u2010 079B                         u1211 0F20                         u1051 0D68  
                       u2011 079A                         u1140 0085                         u1060 0D78  
                       u2020 07B3                         u1061 0D77                         u2021 07B2  
                       u2005 077C                         u1150 0095                         u1230 0F4C  
                       u1070 0D95                         u1310 0DEA                         u2030 07CF  
                       u1151 0094                         u1231 0F4B                         u1071 0D94  
                       u1311 0DE9                         u2031 07CE                         u2015 0797  
                       u1160 00A8                         u1080 0CFA                         u1320 0DF8  
                       u1400 0282                         u2040 051F                         u1161 00A7  
                       u1081 0CF9                         u1321 0DF7                         u1401 0281  
                       u2025 07AF                         u2041 051E                         u1170 00D2  
                       u1250 0F78                         u1090 0C69                         u1330 0E21  
                       u1410 0295                         u1171 00D1                         u1251 0F77  
                       u1075 0D91                         u1091 0C68                         u1331 0E20  
                       u1411 0294                         u1180 00F1                         u1260 0F8B  
                       u1340 0E26                         u1500 0373                         u1420 02B1  
                       u1181 00F0                         u1261 0F8A                         u1341 0E25  
                       u1501 0372                         u1421 02B0                         u2045 051B  
                       u1190 00F6                         u1270 0FAD                         u1350 0C7D  
                       u1510 037E                         u1430 02B6                         u1191 00F5  
                       u1175 00CE                         u1271 0FAC                         u1351 0C7C  
                       u1335 0E1D                         u1511 037D                         u1431 02B5  
                       u1415 0291                         u1280 0FCB                         u1440 033A  
                       u1360 0251                         u1600 0F10                         u1520 0E4B  
                       u1281 0FCA                         u1441 0339                         u1361 024F  
                       u1601 0F0F                         u1290 0FD0                         u1450 0347  
                       u1370 0252                         u1530 0E59                         u1610 0139  
                       u1291 0FCF                         u1275 0FA9                         u1355 0C79  
                       u1451 0346                         u1531 0E58                         u1611 0138  
                       u1460 0354                         u1380 025F                         u1540 0E75  
                       u1620 015C                         u1700 0020                         u1461 0353  
                       u1445 0336                         u1381 025E                         u1605 0F0C  
                       u1541 0E74                         u1621 015B                         u1701 001F  
                       u1470 0362                         u1550 0E83                         u1630 016D  
                       u1710 0D38                         u1471 0361                         u1551 0E82  
                       u1631 016C                         u1711 0D37                         u1480 0367  
                       u1560 0E9B                         u1640 01B9                         u1800 05A3  
                       u1481 0366                         u1465 0350                         u1561 0E9A  
                       u1641 01B8                         u1801 05A2                         u1490 036E  
                       u1570 0EBC                         u1650 01EC                         u1810 05C2  
                       u1491 036D                         u1475 035E                         u1571 0EBB  
                       u1555 0E7F                         u1651 01EB                         u1811 05C1  
                       u1580 0EEA                         u1660 0D23                         u1820 05C8  
                       u1740 0D56                         u1581 0EE9                         u1661 0D22  
                       u1821 05C7                         u1741 0D55                         u1725 0D41  
                       u1590 0EEF                         u1750 0C98                         u1830 05CD  
                       u1670 000C                         u1591 0EEE                         u1575 0EB8  
                       u1751 0C97                         u1831 05CC                         u1735 0D48  
                       u1671 000B                         u1920 0730                         u1840 05E4  
                       u1585 0EE6                         u1921 072F                         u1905 0713  
                       u1841 05E3                         u1770 0CA8                         u1850 05E9  
                       u1771 0CA7                         u1915 0726                         u1851 05E8  
                       u1940 0740                         u1780 0598                         u1765 0C9D  
                       u1941 073F                         u1781 0597                         u1685 0011  
                       u1950 0745                         u1790 059E                         u1951 0744  
                       u1935 0732                         u1791 059D                         u1695 0016  
                       u1960 0759                         u1880 06F1                         u1961 0758  
                       u1865 0668                         u1970 0760                         u1890 0708  
                       u1971 075F                         u1875 0697                         u1980 0766  
                       u1981 0765                         u1885 06ED                         u1990 0772  
                       u1991 0771                         u1895 0704                         abs@a 0073  
                       _dbuf 0120                         _main 03A4                         _dtoa 0234  
                       _mul8 0C1A                         _prec 00D0                         _sum8 0BBA  
                       _nout 00CC                         pad@i 0027                         pad@p 0025  
                       fsr0h 0005                         fsr1h 0007                         indf0 0000  
                       fsr0l 0004                         indf1 0001                         fsr1l 0006  
                       pad@w 0029                         _stoa 0E3F                         btemp 007E  
                       start 0002         ??_SetPerformanceMode 0070                        ??_abs 0075  
     __size_of_StopwatchRead 000F                        ??_pad 007D              __end_of_Project 10E3  
            __end_of_Version 1006              __end_of___aodiv 0126                        ?_main 0070  
                      ?_dtoa 0030              __end_of___aomod 1000                        ?_mul8 0076  
                      STR_10 1116                        STR_11 10F6                        STR_12 10E3  
                      ?_sum8 0070              __end_of___flmul 07E1          __end_of_CompileDate 113E  
                      ?_stoa 0079                ??_Initiallize 007E          __end_of_CompileTime 1147  
               vfpfcnvrt@fmt 004E                        _TMR1H 020D                        _TMR1L 020C  
        ___lmul@multiplicand 0074                        _flags 00D2                        _mul32 0CAD  
                      _fputc 0D5F                        _fputs 0CD2                        _sum32 0C42  
                      pad@fp 002B                        _width 00CE                        _putch 0BDD  
                      dtoa@d 0030                        dtoa@i 004C                        dtoa@n 0044  
                      dtoa@p 003D                        dtoa@s 0042                        dtoa@w 0040  
                      mul8@a 0079                        mul8@b 0076                        sum8@a 0071  
                      sum8@b 0070                        stoa@i 0027                        stoa@l 0030  
                      stoa@p 002E                        stoa@s 0079                        stoa@w 0029  
                      status 0003                        wtemp0 007E              __initialization 07E1  
               __end_of_main 058A                 __end_of_dtoa 03A4                 __end_of_mul8 0C2D  
               __end_of_sum8 0BBE                 __end_of_stoa 0F16                       ??_main 00EC  
                     ??_dtoa 0038                       ??_mul8 0079                       ??_sum8 0071  
                     ??_stoa 007B                       ?_mul32 0020                       ?_fputc 0071  
                     ?_fputs 0079                       ?_sum32 0070                _StopwatchRead 0BE6  
        __end_of_Initiallize 0DE3                       ?_putch 0070                       _RC7PPS 1F27  
                     u111lld 004F                       u120lld 0114                       u113lld 007A  
                     u130lld 0FEE                       u122lld 0F40                       u124lld 0F6B  
                     _RX1PPS 1ECB                       u139lld 027D                       _TX1REG 011A  
         __size_of_PinConfig 0015                   _UartConfig 0C07                 vfprintf@cfmt 0066  
  __size_of_StopwatchRestart 0005                       ___lmul 0D2C                    ??___aodiv 0070  
                _CompileDate 1132                    ??___aomod 0070                       ___wmul 0006  
                  ??___flmul 0079                  _CompileTime 113E                       _printf 0BF5  
                     pad@buf 0024                       dtoa@fp 003F                       _strlen 0C57  
                     mul32@a 0020                       mul32@b 0024                       fputc@c 0071  
                     fputs@c 0020                       fputs@i 0021                       fputs@s 0023  
                     sum32@a 0070                       sum32@b 0074           __size_of__Umul8_16 0023  
                     stoa@cp 002B                       stoa@fp 002D                       putch@c 0070  
             ?_StopwatchRead 0070             __end_of_vfprintf 0D2C      __end_of__initialization 07FD  
             __pcstackCOMMON 0070                 __pidataBANK1 0BD6                __end_of_mul32 0CD2  
              __end_of_fputc 0D9E                __end_of_fputs 0CFB                __end_of_sum32 0C57  
              __end_of_putch 0BE6                  _Initiallize 0D9E            __end_of_PinConfig 0C42  
   __size_of_StopwatchConfig 0007                      ??_mul32 007C                      ??_fputc 0074  
                    ??_fputs 007A                      ??_sum32 0078                      ??_putch 0070  
                 __pbssBANK1 00A0                   __pbssBANK2 0120                  ?_UartConfig 0070  
          __end_of__Umul8_16 0CAD                   __pmaintext 03A4                      ?___lmul 0070  
                    ?___wmul 0070               ___lmul@product 0078                      ?_printf 0068  
                    ?_strlen 0070                      _SP1BRGH 011C              ??_StopwatchRead 0072  
                    _SP1BRGL 011B           __size_of_vfpfcnvrt 010E                      _PPSLOCK 1E8F  
         _elapsedTicks_mul32 00D8           _elapsedTicks_sum32 00DC  __size_of_SetPerformanceMode 0001  
                    _Project 10CF             _StopwatchRestart 0BBE                      _Version 1000  
                    ___aodiv 0025                      ___aomod 0F16              __size_of___lmul 0033  
                    ___flmul 058A              __size_of___wmul 001F                    ?_vfprintf 0060  
             main@loop_count 00EE                      __ptext1 0BBA                      __ptext2 0C42  
                    __ptext3 0C1A                      __ptext4 0006                      __ptext5 0CAD  
                    __ptext6 0D2C                      __ptext7 058A                      __ptext8 0C8A  
                    __ptext9 0BBE              __size_of_printf 0012                    _T1CLKbits 0211  
            __size_of_strlen 0019                    _T1CONbits 020E                 __size_of_abs 001A  
               __size_of_pad 005C          __size_of_UartConfig 0013                      clrloop0 0BC4  
       end_of_initialization 07FD            ??_StopwatchConfig 0070                      fputc@fp 0073  
                    init_ram 0BC9                      fputs@fp 0079                      initloop 0BCA  
          __end_of_vfpfcnvrt 0234                   ??_vfprintf 0063                      strlen@a 0073  
                    strlen@s 0070                    _TRISCbits 0014                  ___flmul@grs 0029  
             __end_of___lmul 0D5F                  vfpfcnvrt@ap 004F                  vfpfcnvrt@cp 005D  
                vfpfcnvrt@fp 005F                  vfpfcnvrt@ll 0055               __end_of___wmul 0025  
               ?_Initiallize 0070               __end_of_printf 0C07               __end_of_strlen 0C70  
        start_initialization 07E1                  __end_of_abs 0C8A                  __end_of_pad 0E3F  
                  _PinConfig 0C2D                 ??_UartConfig 0070                  vfprintf@fmt 0060  
                   ??___lmul 0078                     ??___wmul 0074                    __Umul8_16 0C8A  
                __pdataBANK1 00E5                     ??_printf 006C                     ??_strlen 0072  
                  ___flmul@a 0024                    ___flmul@b 0020                    ___latbits 0004  
              __pcstackBANK0 0020                __pcstackBANK1 00EC             ___aodiv@dividend 0028  
         __end_of_UartConfig 0C1A     __end_of_StopwatchRestart 0BC3                   ?_PinConfig 0070  
                   ?___aodiv 0020                     ?___aomod 0020             ___aodiv@quotient 0073  
                   ?___flmul 0020                   ?__Umul8_16 0070            __size_of_vfprintf 0031  
          _elapsedTicks_fp32 00D6            _elapsedTicks_fp64 00D4            _elapsedTicks_mul8 00DA  
          _elapsedTicks_sum8 00DE              _StopwatchConfig 0BCF        __end_of_StopwatchRead 0BF5  
             __size_of_mul32 0025               __size_of_fputc 003F               __size_of_fputs 0029  
             __size_of_sum32 0015               __size_of_putch 0009               ___wmul@product 0074  
                  clear_ram0 0BC3                     _PIE3bits 0719   __end_of_SetPerformanceMode 0006  
                   _PIR3bits 070F                    _vfpfcnvrt 0126            ___wmul@multiplier 0070  
       __size_of_Initiallize 0045                  ??_PinConfig 0070            ___lmul@multiplier 0070  
                 vfprintf@ap 0062                   vfprintf@fp 0065                  ??__Umul8_16 0072  
           __size_of___aodiv 0101             __size_of___aomod 00EA      __end_of_StopwatchConfig 0BD6  
           __size_of___flmul 0257                   ?_vfpfcnvrt 004E              ___aodiv@divisor 0020  
            ___aodiv@counter 0071                     _dtoa$957 003B                     __ptext10 0BE6  
                   __ptext11 0D9E                     __ptext20 0D5F                     __ptext12 0BF5  
                   __ptext21 0BDD                     __ptext13 0CFB                     __ptext22 0C70  
                   __ptext14 0126                     __ptext23 0F16                     __ptext15 0E3F  
                   __ptext24 0025                     __ptext16 0234                     __ptext25 0C07  
                   __ptext17 0DE3                     __ptext26 0BCF                     __ptext18 0C57  
                   __ptext27 0005                     __ptext19 0CD2                     __ptext28 0C2D  
              __size_of_main 01E6                __size_of_dtoa 0170                __size_of_mul8 0013  
              __size_of_sum8 0004                __size_of_stoa 00D7                   _RC1STAbits 011D  
                  stoa@F1139 00E5                     _vfprintf 0CFB                    printf@fmt 0068  
           ___aomod@dividend 0028               __pstringtext10 10BA               __pstringtext11 10E3  
             __pstringtext12 10F6               __pstringtext13 1107               __pstringtext14 1116  
             __pstringtext15 1124               __pstringtext16 0000            ?_StopwatchRestart 0070  
         ??_StopwatchRestart 0070                  _PPSLOCKbits 1E8F                     printf@ap 006F  
            ___aomod@divisor 0020             ?_StopwatchConfig 0070                  ??_vfpfcnvrt 0050  
                   stoa@nuls 0020              ___aomod@counter 0071             StopwatchRead@tmp 0073  
              __pstringtext1 10CF                __pstringtext2 1132                __pstringtext3 113E  
              __pstringtext4 1000                __pstringtext5 1049                __pstringtext6 1063  
              __pstringtext7 107B                __pstringtext8 1090                __pstringtext9 10A5  
     __Umul8_16@multiplicand 0070                   _TX1STAbits 011E                 ___aodiv@sign 0072  
       __Umul8_16@multiplier 0078                 ___aomod@sign 0072            __Umul8_16@product 0074  
